(lp1
(lp2
S'machine'
p3
aS'learning'
p4
aS'is'
p5
aS'super'
p6
aS'fun'
p7
aa(lp8
S'python'
p9
aS'is'
p10
aS'super'
p11
aS','
aS'super'
p12
aS'cool'
p13
aa(lp14
S'statistics'
p15
aS'is'
p16
aS'cool'
p17
aS','
aS'too'
p18
aa(lp19
S'data'
p20
aS'science'
p21
aS'is'
p22
aS'fun'
p23
aa(lp24
S'python'
p25
aS'is'
p26
aS'great'
p27
aS'for'
p28
aS'machine'
p29
aS'learning'
p30
aa(lp31
S'i'
aS'like'
p32
aS'football'
p33
aa(lp34
S'football'
p35
aS'is'
p36
aS'great'
p37
aS'to'
p38
aS'watch'
p39
aa.