(lp1
(lp2
F1
aI0
aI0
aI0
aI0
aI0
aI0
aI0
aF1
aF1
aI0
aF1
aI0
aa(lp3
I0
aI0
aI0
aF1
aI0
aI0
aI0
aI0
aI0
aI0
aI0
aF1.6931471805599454
aF1
aa(lp4
I0
aI0
aI0
aI0
aI0
aI0
aI0
aF1
aI0
aI0
aI0
aI0
aF1
aa(lp5
I0
aI0
aI0
aI0
aF1
aI0
aI0
aI0
aI0
aF1
aF1
aI0
aI0
aa(lp6
F1
aF1
aI0
aF1
aI0
aI0
aI0
aI0
aF1
aI0
aI0
aI0
aI0
aa(lp7
I0
aI0
aF1
aI0
aI0
aI0
aF1
aI0
aI0
aI0
aI0
aI0
aI0
aa(lp8
I0
aF1
aI0
aI0
aI0
aF1
aF1
aI0
aI0
aI0
aI0
aI0
aI0
aa.