(lp1
(lp2
S'machin'
p3
aS'learn'
p4
aS'super'
p5
aS'fun'
p6
aa(lp7
S'python'
p8
aS'super'
p9
aS'super'
p10
aS'cool'
p11
aa(lp12
S'statist'
p13
aS'cool'
p14
aa(lp15
S'data'
p16
aS'scienc'
p17
aS'fun'
p18
aa(lp19
S'python'
p20
aS'great'
p21
aS'machin'
p22
aS'learn'
p23
aa(lp24
S'like'
p25
aS'footbal'
p26
aa(lp27
S'footbal'
p28
aS'great'
p29
aS'watch'
p30
aa.