(dp1
I0
S'machin'
p2
sI1
S'great'
p3
sI2
S'like'
p4
sI3
S'python'
p5
sI4
S'data'
p6
sI5
S'watch'
p7
sI6
S'footbal'
p8
sI7
S'statist'
p9
sI8
S'learn'
p10
sI9
S'fun'
p11
sI10
S'scienc'
p12
sI11
S'super'
p13
sI12
S'cool'
p14
s.