(dp1
I0
S'zerostart'
p2
sI1
S'great'
p3
sI2
S'statistics'
p4
sI3
S'like'
p5
sI4
S'for'
p6
sI5
S'to'
p7
sI6
S'python'
p8
sI7
S'data'
p9
sI8
S'is'
p10
sI9
S'football'
p11
sI10
S'watch'
p12
sI11
S','
sI12
S'machine'
p13
sI13
S'i'
sI14
S'too'
p14
sI15
S'learning'
p15
sI16
S'science'
p16
sI17
S'fun'
p17
sI18
S'super'
p18
sI19
S'cool'
p19
sI20
S'EOF'
p20
sI21
S'UNK'
p21
s.