(dp1
S'ham'
p2
(lp3
(lp4
I1797
aI2561
aI1248
aI572
aI2160
aI1455
aI414
aI1707
aI859
aI859
aa(lp5
I1455
aI414
aI1707
aI859
aI74
aI859
aa(lp6
I1248
aI572
aI2160
aI1455
aI414
aI1707
aI859
aI859
aa(lp7
I2741
aI566
aa(lp8
I2657
aI2561
aI1492
aI626
aI3031
aa(lp9
I2905
aI1472
aI752
aI708
aI3147
aa(lp10
I940
aI23
aa(lp11
I1344
aI2381
aa(lp12
I1609
aa(lp13
I3140
aI414
aI2902
aI1652
aI3306
aa(lp14
I3140
aI2561
aI980
aa(lp15
I3125
aI626
aI2875
aa(lp16
I125
aI287
aa(lp17
a(lp18
I2657
aI2561
aI3134
aI2754
aa(lp19
I2672
aa(lp20
I2657
aI2781
aI535
aa(lp21
I1880
aa(lp22
I1797
aI2561
aI1425
aI572
aI277
aI3031
aI243
aI2905
aI243
aI940
aI243
aI1344
aa(lp23
I1797
aI2561
aI1425
aI572
aI280
aI3106
aI2561
aI3117
aI2673
aI243
aI201
aI1960
aa(lp24
I1207
aI557
aI1636
aI2321
aI414
aI414
aI1580
aa(lp25
I1797
aI2561
aI1425
aI572
aI283
aI1990
aI1797
aI2561
aI2235
aa(lp26
I2773
aa(lp27
I2657
aI3367
aI3264
aI681
aa(lp28
I2657
aI2781
aI1234
aI557
aI2395
aa(lp29
I1283
aI3359
aI2629
aI414
aI1902
aa(lp30
I1934
aI960
aI626
aI1847
aI1240
aa(lp31
I1916
aI2781
aI687
aI2459
aa(lp32
I2781
aI1594
aa(lp33
I558
aI273
aI1393
aa(lp34
I558
aI273
aa(lp35
I1598
aI1652
aI201
aI1881
aI1816
aa(lp36
I1458
aI899
aI2561
aI198
aI2781
aI2543
aI1271
aa(lp37
I1797
aI2561
aI1425
aI572
aI281
aI2741
aI566
aa(lp38
I2657
aI3367
aI2570
aI1652
aI752
aI1723
aI752
aI557
aI752
aI1724
aI752
aI1301
aI1008
aI973
aI2570
aI1008
aa(lp39
I2078
aI2619
aI1622
aa(lp40
I575
aI1083
aa(lp41
I2657
aI2561
aI166
aI557
aI3293
aI2166
aI2256
aa(lp42
I2979
aI2149
aI1324
aI2533
aa(lp43
I1797
aI2561
aI1425
aI572
aI537
aI2530
aI243
aI1077
aI2131
aa(lp44
I3208
aI899
aI129
aI748
aI1595
aa(lp45
I746
aI557
aI1668
aI2561
aI129
aI748
aI1595
aa(lp46
I1797
aI2561
aI1425
aI572
aI3002
aI1594
aI243
aI558
aI273
aa(lp47
I1594
aa(lp48
I3118
aa(lp49
I1078
aI7
aI952
aI1787
aI1484
aa(lp50
I1331
aI1084
aI3140
aa(lp51
I3042
aI1062
aI2668
aI3358
aa(lp52
I455
aI2657
aa(lp53
I455
aI490
aa(lp54
I1797
aI2561
aI1425
aI572
aI293
aI2530
aI2362
aa(lp55
I1797
aI2561
aI1425
aI572
aI293
aI2530
aI2362
aa(lp56
I2530
aI2362
aa(lp57
I1797
aI2561
aI1425
aI572
aI293
aI2530
aI2362
aa(lp58
I431
aI1008
aI1369
aI148
aI1008
aI1652
aI1285
aI414
aI972
aI2362
aa(lp59
I1797
aI2561
aI1425
aI572
aI293
aI2530
aI2362
aa(lp60
I1797
aI2561
aI1425
aI572
aI293
aI2530
aI2362
aa(lp61
I1797
aI2561
aI1425
aI572
aI250
aI3106
aI2561
aI1207
aI414
aI1298
aI243
aI455
aI243
aI1902
aa(lp62
I1797
aI2561
aI1425
aI572
aI250
aI3106
aI2561
aI1207
aI414
aI1298
aI243
aI455
aI243
aI1902
aa(lp63
I1797
aI2561
aI1425
aI572
aI250
aI3106
aI2561
aI1207
aI414
aI1298
aI243
aI455
aI243
aI1902
aa(lp64
I1797
aI2561
aI1425
aI572
aI250
aI3106
aI2561
aI1207
aI414
aI1298
aI243
aI455
aI243
aI1902
aa(lp65
I80
aI2629
aI414
aI1128
aI299
aa(lp66
I687
aI1948
aI402
aa(lp67
I1797
aI2561
aI1425
aI572
aI248
aI2530
aI2362
aa(lp68
I1797
aI2561
aI1425
aI572
aI248
aI2530
aI2362
aa(lp69
I1425
aI572
aI248
aI2530
aI2362
aa(lp70
I2507
aI557
aI2658
aI626
aI429
aI1193
aa(lp71
I1425
aI572
aI247
aI2668
aI243
aI1716
aa(lp72
I1425
aI572
aI247
aI2668
aI243
aI1716
aa(lp73
I2151
aI414
aI2653
aI1339
aa(lp74
I2657
aI2561
aI454
aI170
aI2169
aa(lp75
I1797
aI2561
aI1425
aI572
aI294
aI1594
aa(lp76
I1594
aI243
aI765
aI243
aI114
aI853
aa(lp77
I1797
aI2561
aI1425
aI572
aI254
aI1622
aa(lp78
I1797
aI2561
aI1425
aI572
aI254
aI1622
aa(lp79
I1797
aI2561
aI1425
aI572
aI254
aI1622
aa(lp80
I2404
aI2875
aa(lp81
I431
aI3142
aI1786
aa(lp82
I80
aI3361
aI2561
aI2668
aI1652
aI431
aI1603
aa(lp83
I1460
aI1207
aI566
aa(lp84
I1797
aI2561
aI1425
aI572
aI247
aI2668
aI243
aI1716
aa(lp85
I1797
aI2561
aI1425
aI572
aI247
aI2668
aa(lp86
I3091
aI1802
aI1002
aI3076
aI557
aI1156
aI3231
aI2528
aI967
aI1825
aI626
aI431
aI3440
aI1535
aa(lp87
I1797
aI2561
aI1425
aI572
aI249
aI687
aI2459
aa(lp88
I1797
aI2561
aI1425
aI572
aI296
aI687
aI2459
aa(lp89
I566
aI662
aI2923
aI898
aI129
aI748
aI1595
aa(lp90
I2803
aI2875
aI1722
aI3034
aI129
aI748
aI1990
aI1952
aI1952
aI1952
aa(lp91
I3034
aI1782
aI1779
aI2800
aI557
aI1185
aI2875
aI1952
aa(lp92
I1387
aI1652
aI2257
aI1597
aI1652
aI2875
aa(lp93
I653
aI1652
aI669
aI2630
aI557
aI421
aI1722
aI1287
aI3431
aI1364
aa(lp94
I1854
aI1207
aI617
aI2795
aI3358
aa(lp95
I3350
aI965
aa(lp96
I2530
aI2923
aI899
aI1443
aa(lp97
I1658
aa(lp98
I1407
aI3348
aI229
aI880
aa(lp99
I396
aI1652
aI2965
aI2306
aa(lp100
I2781
aI812
aI1976
aI501
aa(lp101
I455
aI490
aI414
aI414
aI1976
aI1393
aa(lp102
I1425
aI572
aI495
aI2362
aa(lp103
I2530
aI2362
aI557
aI1521
aI862
aI2600
aa(lp104
I1797
aI2561
aI1425
aI572
aI498
aI2362
aa(lp105
I2539
aI1455
aI572
aI1551
aa(lp106
I1797
aI2561
aI1425
aI572
aI759
aI765
aa(lp107
I1797
aI2561
aI1425
aI572
aI759
aI765
aa(lp108
I765
aa(lp109
I1797
aI2561
aI1425
aI572
aI753
aI194
aI926
aI529
aI187
aI2577
aI1825
aI3358
aa(lp110
I1797
aI2561
aI1425
aI572
aI756
aI1825
aI243
aI687
aI2459
aa(lp111
I812
aI1976
aI501
aa(lp112
I1797
aI2561
aI1425
aI572
aI753
aI194
aI926
aI529
aI187
aI2577
aI1825
aI3358
aa(lp113
I1425
aI572
aI753
aI194
aI926
aI529
aI187
aI2577
aI1825
aI3358
aa(lp114
I1797
aI2561
aI1425
aI572
aI757
aI3305
aI2561
aI895
aI243
aI2131
aa(lp115
I687
aI1948
aI402
aI1290
aa(lp116
I1915
aI2221
aI41
aI2561
aI1207
aI2415
aa(lp117
I1248
aI1434
aI2561
aI80
aI434
aa(lp118
I2539
aI1551
aa(lp119
I3183
aI748
aI1976
aI1377
aI2429
aI1652
aI3330
aI220
aa(lp120
I2657
aI2561
aI2995
aa(lp121
I193
aI2136
aa(lp122
I53
aI3091
aI3358
aa(lp123
I849
aI2983
aI1050
aI1952
aa(lp124
I2201
aI1953
aa(lp125
I1829
aI1652
aI3264
aI811
aI3091
aa(lp126
I2338
aa(lp127
I1797
aI2561
aI2392
aa(lp128
I1976
aI2555
aI3367
aI431
aI1385
aa(lp129
I2305
aI414
aI847
aI626
aI431
aI920
aa(lp130
I3438
aI2561
aI2219
aI1712
aa(lp131
I2839
aI1652
aI404
aa(lp132
I165
aI557
aI2136
aI1193
aI1484
aa(lp133
I2216
aI2561
aI2283
aI2251
aI1664
aI647
aI3358
aa(lp134
I1425
aI572
aI467
aI2301
aI504
aI2561
aI2875
aI3164
aI414
aI884
aI243
aI3179
aI491
aa(lp135
I2530
aI2362
aa(lp136
I3214
aI1594
aa(lp137
I2657
aI2561
aI321
aI2599
aI748
aI2668
aI557
aI302
aa(lp138
I2657
aI2561
aI1170
aI862
aI212
aa(lp139
I2657
aI2561
aI1545
aI1652
aI2530
aI862
aI2899
aI1996
aa(lp140
I2146
aI2823
aI626
aI1369
aI3264
aa(lp141
I2657
aI2561
aI2640
aa(lp142
I1715
aI2561
aI861
aI626
aI431
aI539
aa(lp143
I1715
aI626
aI1086
aa(lp144
I1417
aI557
aI2333
aa(lp145
I2657
aI2561
aI461
aI1871
aa(lp146
I2657
aI2561
aI1558
aI3076
aI2678
aI3231
aa(lp147
I319
aI1627
aI2668
aI620
aI572
aa(lp148
I2957
aa(lp149
I1207
aI1054
aI748
aI606
aa(lp150
I2856
aI414
aI1319
aI3138
aI626
aI63
aa(lp151
I2856
aI414
aI1319
aI2687
aI2312
aa(lp152
I3140
aI1580
aa(lp153
I2487
aI2116
aI748
aI2789
aI748
aI2789
aI1952
aa(lp154
I1856
aI1457
aI1802
aI271
aI1235
aI455
aI2502
aa(lp155
I2799
aI752
aI724
aI2819
aI2897
aI2295
aa(lp156
I1238
aI383
aa(lp157
I2582
aI954
aI2561
aI994
aI3419
aa(lp158
I1008
aI79
aI1008
aI302
aa(lp159
I1207
aI1136
aI2336
aa(lp160
I1008
aI1797
aI3019
aa(lp161
I1393
aI1652
aI2699
aI1207
aa(lp162
I2259
aI414
aI3226
aI2321
aa(lp163
I1008
aI655
aI1008
aI3032
aI1008
aI953
aI1008
aI74
aI1008
aI962
aI1008
aI3358
aa(lp164
I1797
aI2561
aI1741
aI572
aI1713
aI2875
aI557
aI2397
aa(lp165
I1797
aI2561
aI1741
aI572
aI1713
aI2875
aI557
aI2397
aa(lp166
I2875
aI557
aI2397
aa(lp167
I2062
aI3223
aI572
aI1310
aI1809
aI557
aI1336
aI453
aa(lp168
I1976
aI501
aI2528
aI1297
aI3293
aI1151
aI572
aI572
aI572
aa(lp169
I1008
aI501
aI752
aI414
aI1681
aI1008
aI2561
aI1976
aI80
aI1756
aI572
aa(lp170
I1797
aI2561
aI1741
aI572
aI192
aI368
aI2432
aI1652
aI414
aI2724
aI752
aI414
aI1230
aa(lp171
I1797
aI2561
aI1741
aI572
aI192
aI368
aI2432
aI1652
aI414
aI2724
aI752
aI414
aI1230
aa(lp172
I1916
aI1352
aI2781
aI414
aI2724
aI752
aI414
aI1230
aa(lp173
I1393
aI2561
aI1581
aI667
aI626
aI595
aI2875
aa(lp174
I1008
aI3184
aI1192
aI1008
aI2561
aI1393
aa(lp175
I1393
aI2561
aI3070
aI752
aI725
aa(lp176
I1393
aI2561
aI575
aI226
aI3076
aI557
aI1325
aI2781
aI297
aI3231
aa(lp177
I2552
aI415
aa(lp178
I1797
aI2561
aI2552
aI1008
aI415
aI1008
aa(lp179
I2923
aI415
aI2923
aI2595
aI626
aI1208
aI2923
aI622
aa(lp180
I1191
aI414
aI3327
aI1486
aI2213
aa(lp181
I1582
aI2985
aa(lp182
I3254
aI979
aa(lp183
I2747
aI1652
aI2640
aI748
aI1550
aI1697
aI2027
aI414
aI414
aI3373
aa(lp184
I2657
aI2561
aI1815
aI1015
aa(lp185
I1094
aI2561
aI1983
aI2917
aI3376
aa(lp186
I3376
aI748
aI2527
aI2432
aa(lp187
I1797
aI2561
aI818
aI3376
aa(lp188
I1393
aI2561
aI2923
aI2832
aI2923
aI557
aI1008
aI973
aI1008
aI2570
aa(lp189
I2342
aI111
aa(lp190
I1857
aI2561
aI1611
aI557
aI2106
aa(lp191
I1857
aI2561
aI1239
aI887
aI557
aI941
aa(lp192
I1742
aI414
aI554
aI1542
aI1652
aI1788
aa(lp193
I129
aI748
aI1595
aI2561
aI1207
aI557
aI1940
aI626
aI2961
aI75
aa(lp194
I507
aI129
aI748
aI1595
aa(lp195
I1797
aI2561
aI1741
aI572
aI231
aI2875
aI557
aI2397
aa(lp196
I1797
aI2561
aI1741
aI572
aI231
aI2875
aI557
aI2397
aa(lp197
a(lp198
I3140
aI2561
aI760
aI2875
aI3076
aI1678
aI2769
aI200
aI3231
aa(lp199
I1880
aI748
aI3183
aI1507
aa(lp200
I1349
aI3036
aI3265
aI1722
aI695
aa(lp201
I3140
aI573
aI414
aI308
aI626
aI2543
aI2875
aa(lp202
I940
aI1412
aa(lp203
I2889
aI3203
aI3388
aI1927
aI3388
aI3358
aa(lp204
I172
aI2923
aI150
aa(lp205
I767
aI2747
aa(lp206
I1670
aI846
aI2772
aI595
aI2875
aI560
aa(lp207
I625
aI2561
aI3020
aI2923
aI151
aI2991
aI1804
aa(lp208
I625
aI2561
aI1541
aI557
aI1207
aI2593
aa(lp209
I566
aI1580
aa(lp210
I620
aI1945
aI477
aI2884
aI2070
aa(lp211
I3140
aI2634
aI748
aI2543
aI1825
aI557
aI1702
aa(lp212
I1580
aI1652
aI3138
aa(lp213
I3140
aI1580
aa(lp214
a(lp215
a(lp216
I2921
aI2660
aa(lp217
I2272
aa(lp218
I1234
aI530
aa(lp219
I3388
aI2323
aI572
aI572
aI572
aI557
aa(lp220
I357
aI1274
aI2622
aa(lp221
I3333
aI748
aI1479
aI1100
aI557
aI2719
aI1902
aa(lp222
I1496
aI2321
aa(lp223
I80
aI447
aI1829
aI3076
aI2647
aI3231
aa(lp224
I714
aI1927
aI2739
aI102
aI2769
aI1386
aa(lp225
I1857
aI1652
aI15
aI1541
aI72
aa(lp226
I1797
aI2561
aI1741
aI572
aI913
aI1207
aI396
aI752
aI2182
aI752
aI3144
aa(lp227
I1352
aI243
aI2437
aI345
aI243
aI557
aI431
aI23
aI1652
aI2875
aa(lp228
I1207
aI1136
aI2336
aa(lp229
I1797
aI2561
aI1741
aI572
aI2510
aI2342
aI111
aa(lp230
I2342
aI1866
aa(lp231
I1797
aI2561
aI1741
aI572
aI956
aI1857
aI2561
aI575
aI157
aI226
aI3076
aI557
aI1325
aI2781
aI297
aI3231
aa(lp232
I627
aI1866
aa(lp233
I1393
aI2561
aI3042
aI2826
aa(lp234
I1797
aI2561
aI1741
aI572
aI216
aI2357
aI330
aa(lp235
I1797
aI2561
aI1741
aI572
aI913
aI1207
aI396
aI752
aI2182
aI752
aI3144
aa(lp236
I1797
aI2561
aI1741
aI572
aI2513
aI1857
aI2561
aI1008
aI2832
aI1008
aI557
aI973
aI2570
aa(lp237
I1857
aI2561
aI1592
aI557
aI2409
aI2432
aa(lp238
I2552
aI3091
aI748
aI1008
aI415
aI1008
aI243
aI1008
aI893
aI1008
aI243
aI3154
aI572
aa(lp239
I2552
aI415
aI626
aI2336
aa(lp240
I3264
aI415
aI3091
aa(lp241
I539
aI2769
aI431
aI115
aI3076
aI514
aI1144
aI151
aI3231
aa(lp242
I431
aI425
aa(lp243
I2921
aI2660
aa(lp244
I384
aI2875
aI566
aa(lp245
I3265
aI1580
aa(lp246
I3140
aI1580
aI243
aI595
aI2875
aI243
aI1670
aa(lp247
I3140
aI136
aa(lp248
I1190
aI365
aI2325
aI129
aI748
aI1595
aa(lp249
I2409
aI566
aI2991
aI129
aa(lp250
I625
aI2561
aI211
aI2787
aa(lp251
I1857
aI2561
aI2819
aI3236
aI2817
aa(lp252
I1797
aI2561
aI1741
aI572
aI2225
aI2875
aI3203
aI1008
aI1927
aI1008
aa(lp253
I1434
aI626
aI2543
aI2066
aI2561
aI729
aI243
aI3326
aI243
aI34
aI572
aa(lp254
I3140
aI700
aa(lp255
I3064
aI1405
aI626
aI714
aI1927
aI2312
aa(lp256
I1857
aI2561
aI2875
aI557
aI2397
aa(lp257
I1797
aI2561
aI1741
aI572
aI2745
aI1191
aI414
aI3327
aI1486
aI2213
aa(lp258
I2542
aI431
aI2294
aI2932
aa(lp259
I1382
aI1821
aI566
aI1447
aa(lp260
I2572
aI1797
aI2561
aI1540
aI2394
aI3249
aa(lp261
I3384
aa(lp262
I2657
aI2561
aI244
aI557
aI1830
aa(lp263
I2789
aI862
aI979
aI243
aI2236
aI3437
aI2902
aa(lp264
I2902
aI1652
aI674
aI243
aI3066
aI1804
aa(lp265
I2902
aI1652
aI989
aI2561
aI897
aI626
aI63
aa(lp266
I2657
aI2781
aI2280
aI1384
aI2528
aI2446
aI243
aI3154
aI572
aa(lp267
I659
aI2950
aI425
aa(lp268
I508
aI3341
aI755
aI3358
aa(lp269
I2943
aI1475
aa(lp270
I3273
aa(lp271
I1797
aI2561
aI1741
aI572
aI1989
aI3099
aI2561
aI973
aI2095
aI243
aI982
aI414
aI274
aI748
aI444
aI243
aI2320
aI2432
aI243
aa(lp272
I210
aI572
aI3143
aI572
aI2719
aI2178
aI572
aI198
aa(lp273
I129
aI748
aI1595
aa(lp274
I2706
aI414
aI2426
aI705
aI626
aI1341
aa(lp275
I3388
aI261
aI3388
aa(lp276
I1797
aI2561
aI1008
aI415
aI1008
aI1058
aI752
aI1248
aa(lp277
I129
aI748
aI3438
aI928
aa(lp278
I2581
aI1825
aI2561
aI1215
aa(lp279
a(lp280
a(lp281
I2542
aI431
aI2294
aI2932
aa(lp282
I3042
aI2826
aI626
aI1349
aI3154
aI572
aa(lp283
I1797
aI2561
aI1741
aI572
aI1988
aI1857
aI2561
aI2875
aI557
aI2397
aa(lp284
I1542
aI382
aa(lp285
I3356
aI626
aI1792
aI2449
aI3255
aI2769
aI2987
aI2819
aI1207
aI414
aI1297
aI1022
aI3358
aa(lp286
I1393
aI2561
aI3182
aI414
aI1999
aI711
aa(lp287
I1393
aI2561
aI960
aI313
aI2215
aI748
aI2266
aa(lp288
I1797
aI2561
aI1857
aI2561
aI2819
aI3236
aI2817
aa(lp289
I1598
aI2561
aI167
aI2982
aI626
aI34
aa(lp290
I1857
aI2561
aI2182
aI1802
aI983
aa(lp291
I1393
aI2561
aI626
aI3293
aI3091
aa(lp292
I1857
aI2561
aI533
aI2826
aa(lp293
I2875
aI1128
aI1829
aI626
aI235
aa(lp294
I1797
aI2561
aI1741
aI572
aI2729
aI2819
aI3236
aI2817
aa(lp295
I1857
aI2561
aI3376
aa(lp296
I1857
aI2561
aI3117
aI1302
aa(lp297
I289
aI752
aI150
aa(lp298
I1797
aI2561
aI1775
aI1098
aI752
aI1118
aI1207
aa(lp299
I1737
aI2062
aI1206
aI1804
aa(lp300
I2330
aI566
aI1652
aI431
aI3158
aa(lp301
I1484
aI2781
aI1207
aI969
aI557
aI1235
aI455
aI243
aI1936
aI2762
aa(lp302
I619
aI1760
aI2018
aI477
aI1021
aa(lp303
I2991
aI2880
aI46
aI3111
aI414
aI3231
aI2837
aa(lp304
I415
aI1425
aI1058
aI752
aI1248
aa(lp305
a(lp306
I1797
aI2561
aI1741
aI572
aI2969
aI2819
aI3236
aI2817
aa(lp307
I2106
aI1554
aI2561
aI1393
aa(lp308
I431
aI627
aI1866
aI557
aI188
aI78
aa(lp309
I3140
aI136
aa(lp310
I3140
aI661
aa(lp311
I3140
aI3265
aa(lp312
I129
aI748
aI1595
aI2561
aI1207
aI557
aI1940
aI626
aI2961
aI75
aa(lp313
I129
aI748
aI1595
aI414
aI2639
aI368
aI1484
aa(lp314
I3254
aI2875
aa(lp315
I1008
aI1857
aI2561
aI3019
aI752
aI149
aI752
aI1632
aI752
aI2000
aa(lp316
I3339
aI3325
aa(lp317
I1565
aI2702
aI867
aa(lp318
I106
aI1195
aI2572
aI2781
aI730
aa(lp319
I3173
aI3076
aI1797
aI2561
aI1741
aI572
aI1970
aI2552
aI1008
aI415
aI1008
aI3231
aa(lp320
I129
aI102
aa(lp321
I1857
aI2561
aI1091
aI860
aI626
aI414
aI1166
aa(lp322
I1393
aI1652
aI2923
aI1823
aI2923
aa(lp323
I1008
aI655
aI1008
aI3032
aI1008
aI953
aI962
aI1008
aI2561
aI1393
aa(lp324
I1797
aI2561
aI1741
aI572
aI3186
aI3091
aI748
aI415
aa(lp325
I1036
aI617
aI1976
aI1393
aI1652
aI1874
aI1802
aI169
aI2657
aI3367
aI1976
aI1008
aI3024
aI1008
aa(lp326
a(lp327
a(lp328
a(lp329
I2546
aI911
aI1549
aI748
aI2344
aI414
aI414
aI1580
aa(lp330
I3420
aI2923
aI275
aI1772
aI1652
aI3251
aa(lp331
I2341
aI1652
aI418
aI626
aI1642
aa(lp332
I3060
aI748
aI2625
aI1652
aI403
aI3264
aa(lp333
I1652
aI3203
aI1976
aI1819
aa(lp334
I627
aI1866
aI626
aI455
aa(lp335
I1797
aI2561
aI1741
aI572
aI246
aI1033
aI431
aI627
aI1866
aI2516
aI595
aI1802
aI455
aI3358
aa(lp336
I1797
aI2561
aI1741
aI572
aI246
aI1033
aI431
aI627
aI1866
aI2516
aI595
aI1802
aI455
aI3358
aa(lp337
a(lp338
I1094
aI2561
aI649
aI2781
aI431
aI1191
aa(lp339
I3042
aI979
aI3350
aI563
aa(lp340
I3224
aI979
aa(lp341
I627
aI1866
aa(lp342
I3035
aI1652
aI391
aI78
aa(lp343
I1797
aI2561
aI627
aI2875
aa(lp344
I2926
aI2561
aI2572
aI2781
aI2719
aI2381
aI572
aI572
aI572
aa(lp345
I3099
aI2561
aI119
aI1242
aa(lp346
I2557
aI748
aI1718
aI3170
aI3271
aI1113
aa(lp347
I1081
aI1922
aa(lp348
I1797
aI2561
aI3099
aI2561
aI677
aI530
aa(lp349
I1081
aI198
aI1273
aa(lp350
I566
aI1126
aI243
aI2902
aI1652
aI1759
aI243
aI1759
aI243
aI2468
aa(lp351
I2268
aa(lp352
I575
aI157
aI226
aa(lp353
I1107
aI2381
aI2561
aI1393
aa(lp354
I1797
aI2561
aI1741
aI572
aI2723
aI627
aI1866
aI626
aI2875
aa(lp355
I1797
aI2561
aI1741
aI572
aI2723
aI627
aI1866
aI626
aI2875
aa(lp356
I627
aI1866
aI3076
aI2261
aI1504
aI107
aI3231
aa(lp357
I1407
aI2608
aI748
aI431
aI1897
aI2505
aI243
aI611
aI869
aa(lp358
I1916
aI2781
aI1008
aI742
aI358
aI1008
aa(lp359
I657
aa(lp360
I2657
aI2561
aI1008
aI1839
aI404
aI1008
aI3358
aa(lp361
I2930
aa(lp362
I2657
aI2781
aI2701
aI795
aI1560
aa(lp363
I3413
aI557
aI3303
aI2781
aI3079
aa(lp364
I183
aI1821
aI2376
aI2781
aI2738
aI2336
aa(lp365
I501
aI752
aI2908
aI3051
aI748
aI1071
aa(lp366
I3432
aI2512
aa(lp367
I2657
aI2561
aI877
aI414
aI502
aa(lp368
I1797
aI2561
aI1741
aI572
aI2489
aI2819
aI3236
aI2817
aa(lp369
I2657
aI2561
aI3019
aI752
aI1652
aI3231
aI1976
aa(lp370
I2657
aI2561
aI1532
aa(lp371
a(lp372
I63
aI414
aI686
aa(lp373
I360
aI914
aI414
aI686
aa(lp374
I1486
aI316
aa(lp375
a(lp376
a(lp377
I1797
aI2561
aI1741
aI572
aI2948
aI627
aI1866
aa(lp378
I1857
aI2561
aI2500
aI557
aI1147
aI626
aI2875
aa(lp379
I129
aI1484
aI1845
aa(lp380
I129
aI748
aI1595
aI2561
aI804
aa(lp381
I2706
aI2561
aI1743
aI1790
aa(lp382
I3295
aI414
aI3072
aI864
aI414
aI198
aa(lp383
I2041
aI1804
aa(lp384
I3140
aI1580
aa(lp385
I3140
aI3138
aI748
aI3264
aI752
aI408
aI752
aI595
aa(lp386
I595
aI2875
aI3265
aa(lp387
I627
aI455
aa(lp388
I1797
aI2561
aI1741
aI572
aI2947
aI2819
aI3236
aI2817
aa(lp389
I1797
aI2561
aI1741
aI572
aI2489
aI2819
aI3236
aI2817
aa(lp390
I1797
aI2561
aI1741
aI572
aI2947
aI2819
aI3236
aI2817
aa(lp391
I627
aI455
aI2561
aI1912
aI2668
aI243
aI1230
aI273
aI3358
aa(lp392
I1797
aI2561
aI1741
aI572
aI1747
aI627
aI1866
aa(lp393
I627
aI1866
aa(lp394
I297
aI1652
aI391
aI969
aa(lp395
I1857
aI2561
aI1552
aI2956
aI626
aI17
aa(lp396
I78
aI1652
aI1164
aa(lp397
a(lp398
I627
aI1866
aa(lp399
I1237
aI427
aI1802
aI3388
aI1207
aI3388
aa(lp400
I2781
aI1482
aa(lp401
I1797
aI2561
aI1741
aI572
aI1982
aI1237
aI427
aI1802
aI1645
aI1207
aI1645
aa(lp402
I2681
aI1484
aI2781
aI2336
aI626
aI1341
aa(lp403
I561
aI2706
aI2561
aI1163
aI198
aI2561
aI3073
aI1987
aI243
aI2767
aI557
aI1736
aI748
aa(lp404
I2071
aI951
aI2232
aI2464
aa(lp405
I1844
aI1652
aI3315
aI748
aI1008
aI575
aI1008
aI1751
aa(lp406
I1797
aI2561
aI1741
aI572
aI2248
aI627
aI1866
aa(lp407
I627
aI1866
aI557
aI2284
aI1533
aa(lp408
I1797
aI2561
aI1741
aI572
aI2248
aI627
aI1866
aa(lp409
I1797
aI2561
aI1741
aI572
aI2248
aI627
aI1866
aa(lp410
I1797
aI2561
aI1741
aI572
aI2248
aI627
aI1866
aa(lp411
I627
aI455
aa(lp412
I1857
aI2561
aI2475
aI2776
aI626
aI1234
aa(lp413
I2991
aI129
aI748
aI3441
aI1899
aa(lp414
I627
aI1866
aa(lp415
I1008
aI455
aI557
aI431
aI627
aI1866
aa(lp416
I1797
aI2561
aI1741
aI572
aI2243
aI627
aI1866
aa(lp417
I1797
aI2561
aI1741
aI572
aI1173
aI627
aI455
aa(lp418
a(lp419
I2099
aI1077
aI2131
aI1804
aI2312
aa(lp420
I1237
aI427
aI1802
aI3388
aI1207
aI3388
aa(lp421
I274
aa(lp422
I1829
aI1652
aI1207
aI2995
aI1862
aI1058
aI572
aI1976
aa(lp423
I686
aa(lp424
a(lp425
a(lp426
a(lp427
a(lp428
a(lp429
a(lp430
a(lp431
I1382
aI1447
aI243
aI1722
aI2325
aI1952
aa(lp432
I2499
aI1952
aI1008
aI1064
aI3074
aI3284
aI443
aI1008
aI3062
aa(lp433
I1704
aI1175
aI2820
aI1248
aI243
aI1029
aI1447
aa(lp434
I1023
aI2923
aI150
aI129
aI748
aI1595
aI414
aI414
aI65
aI1580
aa(lp435
I2951
aI1652
aa(lp436
I1797
aI2561
aI1741
aI572
aI1517
aI2819
aI3236
aI1222
aa(lp437
I2951
aI1652
aa(lp438
I1797
aI2561
aI1741
aI572
aI2246
aI3099
aI2561
aI2267
aa(lp439
I2091
aI557
aI23
aI626
aI431
aI2602
aa(lp440
I1393
aI2561
aI1653
aI1974
aa(lp441
I2875
aI2032
aI1652
aI2735
aI1720
aa(lp442
I2287
aI2195
aI733
aI2891
aI3358
aI414
aI414
aI1393
aa(lp443
I3305
aI2561
aI907
aI1242
aI1206
aI2764
aa(lp444
I1393
aI2561
aI63
aI391
aI2875
aa(lp445
I1207
aI557
aI796
aI566
aa(lp446
I1584
aI572
aI1706
aI1904
aI2794
aI1281
aI178
aI626
aI1928
aa(lp447
I2062
aI1493
aI626
aI1242
aa(lp448
I1857
aI2561
aI157
aI1956
aI748
aI1825
aa(lp449
I3140
aI1722
aI1073
aI992
aI974
aI748
aI940
aa(lp450
I1857
aI2561
aI2156
aa(lp451
I1857
aI2561
aI1976
aI3076
aI784
aI3231
aI1053
aI1377
aI2807
aI3358
aa(lp452
I80
aI730
aI414
aI1608
aI626
aI426
aa(lp453
I20
aI129
aI748
aI1484
aI928
aa(lp454
I684
aI2923
aI150
aI1804
aa(lp455
I2654
aa(lp456
a(lp457
I2082
aI3264
aI626
aI426
aI3358
aa(lp458
I206
aI1306
aa(lp459
I786
aI1600
aI626
aI3247
aI2668
aa(lp460
I1318
aI1059
aI3275
aI626
aI1230
aI1161
aa(lp461
I1905
aa(lp462
I1393
aI2561
aI2530
aI862
aI1008
aI1508
aI3353
aI1008
aa(lp463
I1857
aI2561
aI2780
aa(lp464
I1857
aI2561
aI1143
aI572
aI572
aI572
aI830
aa(lp465
I2657
aI2561
aI1143
aI1143
aa(lp466
I2657
aI2561
aI205
aI1746
aI243
aI2301
aI572
aa(lp467
I2657
aI2561
aI3358
aI3110
aI377
aI572
aa(lp468
I2882
aI2781
aI3192
aa(lp469
I41
aI626
aI2879
aI1697
aI15
aI3203
aI1976
aI65
aI1207
aa(lp470
I965
aI748
aI369
aI2289
aI1813
aa(lp471
I2130
aI1071
aI748
aI1382
aI2005
aa(lp472
I566
aI1580
aa(lp473
I2221
aI41
aI1804
aa(lp474
I3250
aI2842
aI2561
aI1393
aI243
aI2132
aI3258
aa(lp475
I3250
aI2842
aI243
aI1393
aI2132
aI620
aI2561
aI1669
aI243
aI1587
aI243
aI600
aI68
aI243
aI2516
aa(lp476
I1857
aI2561
aI1612
aa(lp477
I1857
aI2561
aI3264
aI201
aI1046
aI3275
aa(lp478
I3350
aI1716
aI1393
aa(lp479
I1094
aI2561
aI1990
aI1697
aI960
aI2136
aa(lp480
I1094
aI2561
aI2518
aI1652
aI63
aI3060
aI752
aI2429
aI2722
aI157
aI915
aa(lp481
I1094
aI2561
aI419
aI414
aI2474
aI1652
aI3169
aI3358
aI3076
aI3264
aI3231
aa(lp482
I3157
aI2661
aa(lp483
I174
aI2561
aI566
aI2420
aa(lp484
I2657
aI2561
aI175
aI3288
aI1198
aa(lp485
I1854
aI854
aI1433
aI3367
aI1541
aa(lp486
I1990
aI2561
aI23
aI1087
aI626
aI1721
aI1242
aa(lp487
I1472
aI2390
aI557
aI1935
aI2062
aa(lp488
I1354
aI952
aI566
aI2781
aI15
aI2875
aa(lp489
I63
aI2286
aI572
aI2627
aI572
aI1657
aI572
aI1484
aa(lp490
I3140
aI1580
aI748
aI1976
aI1234
aI70
aI1722
aI3107
aI1364
aI117
aI572
aa(lp491
I1797
aI2561
aI1913
aI572
aI2209
aI243
aI1857
aI2561
aI2629
aI414
aI1128
aI1716
aa(lp492
I1094
aI2561
aI2589
aI1652
aI558
aI2781
aI244
aa(lp493
I3099
aI2561
aI2557
aI748
aI3264
aI2875
aa(lp494
I1591
aI752
aI1418
aI752
aI656
aa(lp495
I3126
aI557
aI2965
aa(lp496
I2706
aI2561
aI371
aI561
aI129
aa(lp497
I1857
aI2561
aI1489
aI414
aI1527
aI3209
aa(lp498
I50
aI572
aI2282
aI752
aI2627
aa(lp499
I3406
aI752
aI3105
aa(lp500
I3140
aI1580
aa(lp501
I2706
aI2561
aI1484
aI2781
aI1226
aI1207
aI2049
aI557
aI3425
aa(lp502
I3265
aI2312
aI2561
aI1981
aI2019
aI3076
aI1541
aI3340
aI3231
aa(lp503
I378
aI2568
aI3361
aI572
aa(lp504
I1797
aI2561
aI1913
aI572
aI2455
aI243
aI50
aI2561
aI2282
aI752
aI2627
aI243
aI1797
aI2561
aI1701
aa(lp505
I2238
aI862
aI2585
aI1844
aI3141
aa(lp506
I836
aI2221
aI390
aI626
aI1770
aI572
aI1455
aI572
aI1976
aI572
aa(lp507
I268
aa(lp508
I1797
aI2561
aI1913
aI572
aI2206
aI243
aI1857
aI2561
aI1612
aa(lp509
I419
aI414
aI1082
aI3076
aI1883
aI3231
aa(lp510
I1797
aI2561
aI1913
aI572
aI2456
aI243
aI50
aI2561
aI3406
aI752
aI3105
aa(lp511
I63
aI84
aI2116
aa(lp512
I2648
aa(lp513
I1797
aI2561
aI1913
aI572
aI2451
aI243
aI1797
aI2561
aI1955
aI243
aI3264
aI1367
aI3076
aI916
aI3231
aa(lp514
I2282
aI1525
aI557
aI2335
aa(lp515
I50
aI2561
aI2282
aI752
aI2627
aI243
aI1797
aI2561
aI2452
aa(lp516
I3091
aI1259
aI2287
aI2987
aI3377
aI2375
aI3076
aI2132
aI1248
aI3231
aa(lp517
I50
aI572
aI2282
aI557
aI1207
aa(lp518
I1797
aI2561
aI1913
aI572
aI2695
aI243
aI50
aI2561
aI2282
aI752
aI2627
aI243
aI1797
aI2561
aI2452
aI243
aI2697
aa(lp519
I1797
aI2561
aI1913
aI572
aI2694
aI243
aI50
aI2561
aI2648
aI243
aI1797
aI2561
aI2697
aa(lp520
I1797
aI2561
aI1913
aI572
aI2700
aI243
aI50
aI2561
aI2282
aI752
aI2627
aI243
aI1797
aI2561
aI2452
aa(lp521
I1898
aI1652
aI244
aa(lp522
I431
aI3293
aI282
aI1652
aI3388
aI1778
aI3388
aa(lp523
I1797
aI2561
aI273
aI752
aI455
aI2038
aI1722
aI431
aI1408
aI788
aI752
aI1152
aI925
aa(lp524
I3264
aI3203
aI1718
aI3185
aI2627
aI572
aa(lp525
I1797
aI2561
aI1913
aI572
aI2466
aI243
aI3099
aI2561
aI1898
aI1652
aI244
aa(lp526
I50
aI572
aI2282
aI752
aI2627
aa(lp527
I1857
aI2561
aI2923
aI3329
aI2923
aI255
aI862
aI3237
aI752
aI3203
aI2923
aI3076
aI1913
aI572
aI2204
aI3231
aa(lp528
I3140
aI809
aa(lp529
I1857
aI2561
aI1317
aI1563
aI1746
aI2459
aa(lp530
I1797
aI2561
aI1741
aI572
aI2988
aI627
aI1866
aI243
aI3027
aI2772
aI1030
aa(lp531
I3180
aI111
aa(lp532
I1797
aI2561
aI1913
aI572
aI513
aI469
aI3076
aI1731
aI572
aI572
aI572
aI942
aI3231
aa(lp533
I1908
aI1902
aI2781
aI3164
aa(lp534
I3300
aa(lp535
I704
aI752
aI304
aI1207
aa(lp536
I3099
aa(lp537
I47
aI477
aI562
aa(lp538
I2273
aI2781
aI2568
aI572
aI2230
aI2277
aI748
aI1077
aI3358
aa(lp539
I456
aI557
aI1207
aa(lp540
I1797
aI2561
aI1913
aI572
aI1870
aI243
aI50
aI2561
aI2648
aI243
aI1797
aI2561
aI2694
aI2722
aI2282
aI752
aI2627
aa(lp541
I3140
aI661
aI1722
aI2104
aI243
aI431
aI272
aa(lp542
I1857
aI2561
aI1999
aI1423
aI626
aI2578
aa(lp543
I1797
aI2561
aI1913
aI572
aI1514
aI243
aI3099
aI2561
aI1908
aI1902
aI2781
aI3164
aI243
aI3409
aI572
aI1027
aI243
aI704
aI752
aI304
aI755
aa(lp544
I2025
aI1406
aI506
aa(lp545
I2305
aI2019
aI626
aI2767
aa(lp546
I2056
aa(lp547
I3140
aI1580
aI414
aI671
aI768
aa(lp548
I23
aI3264
aI626
aI2314
aa(lp549
I3140
aI136
aI414
aI481
aI2062
aI3256
aa(lp550
I1094
aI3358
aI960
aI2278
aa(lp551
I2259
aI414
aI3226
aa(lp552
I1949
aI3131
aa(lp553
I1709
aI2393
aa(lp554
I37
aI2781
aI1110
aI748
aI665
aI150
aa(lp555
I1393
aI2561
aI478
aI557
aI1504
aI1602
aa(lp556
I431
aI2436
aI2821
aI387
aI368
aa(lp557
I948
aI3076
aI2769
aI3409
aI572
aI2629
aI572
aI2851
aI3231
aa(lp558
I979
aI2781
aI609
aI1652
aI1374
aI3358
aa(lp559
I1797
aI2561
aI1990
aI1697
aI1234
aI2136
aa(lp560
I1187
aI748
aI64
aI862
aI2823
aI3438
aa(lp561
I129
aI748
aI1595
aa(lp562
I15
aI2748
aI2561
aI2170
aI2165
aa(lp563
I2180
aI3265
aI626
aI1918
aa(lp564
I3140
aI2561
aI3264
aI626
aI1978
aI117
aI3076
aI561
aI136
aI3231
aa(lp565
I1275
aI153
aa(lp566
I3134
aI965
aI748
aI2097
aI572
aI2074
aa(lp567
I2657
aI2561
aI427
aI915
aI748
aI3060
aI3131
aa(lp568
I2555
aI2781
aI3266
aI1585
aa(lp569
I1094
aI2561
aI1344
aI1486
aI530
aa(lp570
I2657
aI2561
aI1164
aI557
aI3234
aa(lp571
I1393
aI2561
aI66
aI1664
aI14
aI1652
aI2923
aI3404
aI2923
aa(lp572
I1393
aI2561
aI1221
aI2422
aI1652
aI2923
aI1909
aI2923
aa(lp573
I1797
aI2561
aI1913
aI572
aI1744
aI243
aI50
aI2561
aI677
aI530
aI243
aI1797
aI2561
aI1740
aa(lp574
I1797
aI2561
aI677
aI530
aa(lp575
I1797
aI2561
aI1913
aI572
aI1739
aI243
aI50
aI2561
aI677
aI530
aI243
aI1797
aI2561
aI1870
aI243
aI1518
aa(lp576
I129
aI2561
aI3288
aI102
aI752
aI694
aI3194
aI572
aI1722
aI1109
aI2923
aI153
aa(lp577
I1219
aI1415
aI411
aI2781
aI2543
aI2875
aa(lp578
I1393
aI2561
aI3264
aI3203
aI3185
aI755
aa(lp579
I3045
aI1580
aI1652
aI1035
aI566
aI626
aI836
aa(lp580
I2020
aI996
aI1595
aa(lp581
I1393
aI2561
aI1344
aI530
aI748
aI1189
aI243
aI2098
aI243
aI3154
aI572
aa(lp582
I1393
aI2561
aI2136
aI1652
aI350
aI1902
aI243
aI2556
aI110
aa(lp583
I1486
aI2233
aI1652
aI431
aI1191
aa(lp584
I838
aI389
aa(lp585
I3264
aI2588
aI752
aI1114
aa(lp586
I1393
aI1652
aI1081
aI1113
aI3456
aa(lp587
I2552
aI415
aI557
aI2349
aI655
aa(lp588
I1797
aI2561
aI1741
aI572
aI1982
aI1237
aI427
aI1802
aI1645
aI1207
aI1645
aa(lp589
I1797
aI2561
aI1913
aI572
aI95
aI1857
aI2561
aI982
aI1939
aI2772
aI937
aI243
aa(lp590
I129
aI748
aI1595
aI414
aI414
aI414
aI1734
aa(lp591
I1857
aI2561
aI959
aI414
aI795
aI2668
aa(lp592
I179
aI2760
aI414
aI1393
aa(lp593
I2555
aI2561
aI328
aa(lp594
I2572
aI3051
aa(lp595
I960
aI752
aI3264
aI3268
aa(lp596
I2555
aI2561
aI673
aI1071
aa(lp597
I3051
aI3438
aI1071
aa(lp598
I3031
aI3376
aI748
aI981
aa(lp599
I1393
aI2561
aI786
aI1652
aI2846
aI3168
aI626
aI3247
aI2668
aa(lp600
I1797
aI2561
aI2259
aI414
aI3226
aI557
aI1854
aI1802
aI133
aI1753
aI1506
aI331
aa(lp601
I129
aI748
aI1856
aa(lp602
I1857
aI2561
aI1344
aI752
aI3264
aI2136
aI3376
aa(lp603
I1797
aI2561
aI1913
aI572
aI451
aI243
aI50
aI2561
aI677
aI530
aa(lp604
I3208
aI2923
aI150
aa(lp605
I385
aI3129
aI748
aI1329
aa(lp606
I1855
aI950
aa(lp607
I3099
aI2561
aI1207
aI1995
aI979
aI3076
aI1344
aI3231
aa(lp608
I1484
aI2781
aI888
aI414
aI991
aI129
aI748
aI1595
aa(lp609
I1797
aI2561
aI2498
aa(lp610
I30
aa(lp611
I976
aI2458
aI557
aI720
aI626
aI3347
aa(lp612
I129
aI2561
aI3069
aI414
aI275
aI1056
aI1829
aa(lp613
I2521
aI625
aI2781
aI1207
aI2415
aI2923
aI150
aI414
aI1580
aa(lp614
a(lp615
a(lp616
I1393
aI1652
aI2760
aI1652
aI331
aa(lp617
I1857
aI2561
aI220
aI2907
aa(lp618
I1575
aI1647
aa(lp619
I3140
aI2561
aI595
aI501
aa(lp620
I1207
aI557
aI1950
aa(lp621
a(lp622
a(lp623
I765
aa(lp624
I603
aI414
aI2279
aI3223
aI572
aI1531
aa(lp625
I1797
aI2561
aI1913
aI572
aI92
aI1857
aI2561
aI3091
aI1259
aI2287
aI2987
aI3377
aI2375
aI3076
aI2132
aI1248
aI3231
aa(lp626
I1455
aI572
aI1478
aI865
aa(lp627
I1008
aI3065
aI1008
aI557
aI1008
aI944
aI1652
aI431
aI260
aI1008
aa(lp628
I1177
aI2221
aI411
aI2781
aI354
aI1902
aI626
aI431
aI2602
aa(lp629
I634
aI626
aI1686
aI1137
aI2668
aa(lp630
I2055
aI2561
aI3388
aI1596
aI3388
aI3258
aI414
aI2629
aI3076
aI3032
aI3231
aI341
aI2936
aa(lp631
I566
aI1580
aI557
aI129
aI748
aI1595
aa(lp632
I564
aI566
aI2781
aI1663
aa(lp633
I566
aI1580
aI752
aI129
aI748
aI1595
aI2561
aI3254
aI2875
aa(lp634
I307
aI1076
aI748
aI1109
aI1486
aI974
aa(lp635
I999
aI455
aI3265
aa(lp636
I438
aI572
aI1976
aI572
aI626
aI2150
aI2875
aa(lp637
I2543
aI2875
aI3409
aa(lp638
I3140
aI1580
aI2561
aI2444
aI2902
aa(lp639
I521
aI3438
aI43
aI1195
aa(lp640
I2497
aI2631
aI2561
aI3383
aI3076
aI556
aI752
aI162
aI572
aI1437
aI3231
aa(lp641
I629
aI566
aa(lp642
I607
aI566
aI1580
aa(lp643
I65
aI2706
aI2877
aI2923
aI150
aa(lp644
I63
aI2409
aI2432
aa(lp645
I2878
aI1652
aI431
aI960
aI1008
aI1719
aI1008
aI3076
aI1883
aI3231
aa(lp646
I1916
aI2781
aI1341
aa(lp647
I129
aI1595
aI414
aI1787
aI1484
aa(lp648
I2168
aI2923
aI150
aI2561
aI129
aI748
aI1595
aa(lp649
I129
aI748
aI3012
aI2561
aI1496
aI626
aI188
aI1193
aa(lp650
I2898
aI388
aa(lp651
I1190
aI3162
aI1484
aI3045
aI1804
aa(lp652
I625
aI2561
aI1842
aI2416
aI557
aI1729
aa(lp653
I2531
aI982
aa(lp654
I1797
aI2561
aI1913
aI572
aI2869
aI982
aa(lp655
I1797
aI2561
aI1913
aI572
aI2869
aI982
aa(lp656
I1797
aI2561
aI1913
aI572
aI92
aI1857
aI2561
aI3091
aI1259
aI2287
aI2987
aI3377
aI2375
aI3076
aI2132
aI1248
aI3231
aa(lp657
I1797
aI2561
aI1913
aI572
aI2872
aI3091
aI1259
aI2287
aI2987
aI3377
aI2375
aa(lp658
I1797
aI2561
aI1913
aI572
aI2872
aI3091
aI1259
aI2287
aI2987
aI3377
aI2375
aa(lp659
I1976
aI2073
aI3109
aI1652
aI2756
aI557
aI444
aI3358
aI748
aI1675
aI3008
aI572
aI572
aI572
aa(lp660
I2822
aI1195
aI3076
aI566
aI1804
aI3231
aa(lp661
I2669
aI1886
aa(lp662
I1671
aI626
aI760
aI455
aa(lp663
I1358
aI1234
aI2983
aa(lp664
I1857
aI2561
aI1979
aI626
aI431
aI2471
aI1708
aa(lp665
I1857
aI2561
aI2324
aI3370
aI3076
aI188
aI3231
aa(lp666
a(lp667
I553
aI2221
aI3224
aI1207
aI974
aa(lp668
I438
aI572
aI1976
aI572
aI626
aI2150
aI2875
aa(lp669
I1345
aI1580
aI2561
aI2301
aI769
aI752
aI546
aI1802
aI2995
aa(lp670
I323
aa(lp671
I3228
aI1652
aI2211
aI744
aI414
aI1571
aa(lp672
I1797
aI2561
aI1913
aI572
aI2866
aI765
aa(lp673
I1913
aI572
aI2870
aI1207
aI557
aI1950
aa(lp674
I755
aI2772
aI1950
aa(lp675
I3140
aI136
aa(lp676
I2180
aI2687
aa(lp677
I1671
aI2781
aI2798
aI1207
aa(lp678
I3356
aI1014
aa(lp679
I2285
aa(lp680
I2221
aI1801
aa(lp681
I982
aI243
aI1794
aa(lp682
I1797
aI2561
aI1913
aI572
aI2122
aI982
aa(lp683
I431
aI1008
aI428
aI1008
aa(lp684
I982
aa(lp685
I1797
aI2561
aI1913
aI572
aI2122
aI982
aa(lp686
I1513
aa(lp687
I1061
aI520
aI2668
aI3076
aI984
aI3231
aa(lp688
I589
aI2561
aI260
aI1008
aI1040
aI1008
aI3358
aa(lp689
I1797
aI2561
aI1913
aI572
aI1065
aI1857
aI2561
aI776
aI557
aI944
aI1652
aI431
aI260
aa(lp690
I1008
aI776
aI1008
aI243
aI1916
aI572
aa(lp691
I694
aI2668
aa(lp692
I694
aI1207
aI2572
aI324
aa(lp693
I952
aI944
aI2875
aI2032
aa(lp694
I491
aa(lp695
I208
aI601
aI560
aI94
aa(lp696
I730
aI2547
aa(lp697
I1147
aI626
aI2409
aI2432
aI3076
aI106
aI1195
aI3231
aa(lp698
I1797
aI2561
aI1913
aI572
aI593
aI3091
aI1259
aI2287
aI2987
aI3377
aI2375
aa(lp699
I3091
aI1259
aI2287
aI2987
aI3377
aI2375
aI2561
aI1857
aI243
aI611
aI869
aI572
aa(lp700
I1797
aI2561
aI1913
aI572
aI1840
aI3091
aI1259
aI2287
aI2987
aI3377
aI2375
aa(lp701
I1582
aI2985
aI557
aI1969
aI86
aa(lp702
I2669
aI1886
aI1393
aa(lp703
I1857
aI2561
aI3130
aI1998
aI626
aI1541
aa(lp704
I1797
aI2561
aI1913
aI572
aI352
aI1857
aI414
aI2324
aI3370
aa(lp705
I1797
aI2561
aI1913
aI572
aI594
aI3099
aI2561
aI253
aI243
aI80
aI2299
aI1207
aI243
aI223
aI243
aI1363
aI1896
aa(lp706
I3372
aI273
aa(lp707
I1393
aI1652
aI3425
aI3217
aa(lp708
I3388
aI3388
aI3388
aI1290
aI1802
aI300
aI220
aI1580
aa(lp709
I965
aI969
aI752
aI2015
aI2480
aI2923
aI2372
aa(lp710
I1717
aI1952
aI243
aI3361
aI748
aI431
aI1939
aI1652
aI1207
aa(lp711
I1857
aI2561
aI2266
aI1697
aI3047
aI880
aI506
aa(lp712
I129
aI748
aI1595
aI2561
aI2875
aI2226
aI1652
aI431
aI438
aI752
aI2377
aa(lp713
I129
aI748
aI3012
aa(lp714
I129
aI748
aI1595
aI3076
aI2775
aI3231
aa(lp715
I1290
aI1802
aI129
aI748
aI3012
aa(lp716
I625
aI2561
aI632
aI150
aI414
aI65
aI557
aI2991
aI129
aI748
aI1595
aa(lp717
I625
aa(lp718
I952
aI944
aI2875
aI2032
aa(lp719
I77
aa(lp720
I3225
aI1207
aI626
aI850
aa(lp721
I2995
aI2781
aI627
aI2416
aa(lp722
I1087
aI2321
aa(lp723
I1857
aI2561
aI424
aI592
aa(lp724
I1393
aI1652
aI1094
aI2561
aI3303
aa(lp725
I1857
aI2561
aI30
aa(lp726
I1797
aI2561
aI1913
aI572
aI2122
aI982
aa(lp727
I982
aI3223
aI785
aI2865
aa(lp728
I1797
aI2561
aI1913
aI572
aI1836
aI982
aa(lp729
I1797
aI2561
aI1913
aI572
aI1567
aI1857
aI2561
aI3425
aI1671
aa(lp730
I1207
aI23
aI2995
aa(lp731
I3051
aI748
aI1071
aI2781
aI2628
aI572
aI572
aI572
aa(lp732
I2156
aa(lp733
I2537
aI1207
aI1127
aa(lp734
I414
aI998
aI3076
aI3342
aI3231
aa(lp735
I1797
aI2561
aI1913
aI572
aI1841
aI2904
aI862
aI1207
aI1127
aa(lp736
I1363
aI1896
aI862
aI2816
aI557
aI1290
aa(lp737
I1797
aI2561
aI1913
aI572
aI2124
aI765
aI752
aI1207
aI2772
aI1950
aa(lp738
I1797
aI2561
aI1913
aI572
aI821
aI1857
aI2561
aI2266
aI1697
aI3047
aI880
aI506
aa(lp739
I2262
aI170
aI1947
aI626
aI538
aa(lp740
I1393
aI2561
aI2324
aI414
aI2703
aa(lp741
I1797
aI2561
aI1913
aI572
aI325
aI1363
aI1896
aI862
aI2816
aI557
aI1290
aa(lp742
I1797
aI2561
aI1913
aI572
aI325
aI1363
aI1896
aI862
aI2816
aI557
aI1290
aa(lp743
I1363
aI1896
aI862
aI2816
aa(lp744
I1797
aI2561
aI1913
aI572
aI325
aI1363
aI1896
aI862
aI2816
aI557
aI1290
aa(lp745
I1797
aI2561
aI1913
aI572
aI325
aI1363
aI1896
aI862
aI2816
aI557
aI1290
aa(lp746
I1341
aI1434
aI1393
aa(lp747
I1857
aI2561
aI522
aa(lp748
I3372
aI273
aI2561
aI338
aI243
aI2046
aI243
aI971
aa(lp749
I730
aI3325
aI2561
aI2961
aI1100
aI1520
aa(lp750
I1023
aI1788
aI3369
aI1952
aa(lp751
I679
aI2518
aI566
aI414
aI3360
aa(lp752
I566
aI129
aI572
aa(lp753
I1857
aI2561
aI1614
aI752
aI2347
aI191
aI813
aa(lp754
I566
aI1580
aa(lp755
I129
aI748
aI1595
aI2561
aI2787
aI3113
aI2875
aI566
aI3076
aI614
aI3231
aa(lp756
I1344
aI3060
aI2381
aI752
aI1088
aI1993
aa(lp757
I1609
aI630
aI3076
aI693
aI28
aI1026
aI572
aI2568
aI572
aI1135
aI572
aI2655
aI3231
aI2722
aI1445
aI243
aa(lp758
I2657
aI2561
aI274
aa(lp759
I3254
aI2668
aI1472
aI566
aa(lp760
I1857
aI752
aI3099
aI2561
aI1219
aI2760
aa(lp761
I3367
aI2629
aI572
aI3101
aI572
aI1265
aI3076
aI2698
aI3231
aa(lp762
I3373
aI1802
aI2680
aI862
aI424
aI592
aa(lp763
I2085
aI2935
aI2781
aI3079
aa(lp764
I2657
aI2781
aI845
aI3202
aI1652
aI3091
aa(lp765
I1682
aI1298
aI324
aa(lp766
I112
aI1516
aa(lp767
I3276
aI1393
aI2561
aI2158
aI1486
aI3137
aa(lp768
I1393
aI2561
aI1008
aI1839
aI404
aI1008
aa(lp769
I3376
aI748
aI1718
aI2339
aI165
aI2984
aa(lp770
I1207
aI1127
aa(lp771
I3091
aI1259
aI2287
aI2987
aI3377
aI1666
aa(lp772
a(lp773
a(lp774
I1671
aI2781
aI2479
aI203
aI1652
aI2409
aa(lp775
I2230
aI748
aI2662
aa(lp776
I3381
aI2572
aI3358
aa(lp777
I1857
aI2561
aI3394
aI3091
aa(lp778
I1857
aI2561
aI2627
aI572
aI730
aI1422
aa(lp779
I1857
aI2561
aI1916
aI1056
aI1652
aI687
aI557
aI2798
aI1207
aa(lp780
I2120
aI592
aI2561
aI1393
aa(lp781
I2409
aI490
aa(lp782
I65
aI129
aI748
aI1595
aI1845
aI1484
aI243
aI3262
aa(lp783
I3140
aI3138
aI1722
aI1670
aa(lp784
I1639
aI1442
aI566
aa(lp785
I106
aI1195
aI2561
aI1147
aI626
aI2409
aI2432
aa(lp786
I1803
aI1952
aI732
aI3264
aI3376
aa(lp787
I1496
aI1484
aa(lp788
I2262
aI170
aI1947
aI626
aI2649
aa(lp789
I1580
aI2906
aI477
aI372
aa(lp790
I1436
aI2568
aI2221
aI41
aa(lp791
I1943
aI41
aI1652
aI431
aI3158
aa(lp792
I1797
aI2561
aI1913
aI572
aI3296
aI1857
aI2561
aI3367
aI2629
aI572
aI3101
aI572
aI1265
aa(lp793
I2629
aI572
aI3101
aI572
aI1265
aa(lp794
I1797
aI2561
aI1913
aI572
aI3298
aI1857
aI2561
aI2085
aI2935
aI2781
aI3079
aa(lp795
I1484
aI1580
aI3157
aI3054
aa(lp796
I1469
aI414
aI412
aI2312
aa(lp797
I3319
aI1652
aI921
aI2551
aa(lp798
I591
aI1207
aa(lp799
I2812
aI1344
aI626
aI1074
aI426
aa(lp800
I2961
aI760
aI1830
aa(lp801
I3051
aI2561
aI3130
aI368
aI1652
aI2307
aI1732
aa(lp802
I2346
aI1131
aI1802
aI869
aI3358
aa(lp803
I411
aI2561
aI431
aI800
aI1652
aI694
aI2668
aa(lp804
I1797
aI2561
aI1913
aI572
aI333
aI3091
aI1259
aI2287
aI2987
aI3377
aI2375
aa(lp805
a(lp806
I1108
aI3264
aa(lp807
I2479
aI1271
aI557
aI944
aI3076
aI1167
aI3231
aI2668
aa(lp808
I1094
aI2561
aI3385
aI1962
aI243
aI2950
aI1541
aI3286
aa(lp809
I1393
aI2561
aI960
aI1113
aa(lp810
I3363
aI2928
aI2590
aa(lp811
I499
aI1652
aI2477
aI3339
aI3325
aa(lp812
I1797
aI2561
aI2875
aI626
aI1927
aI359
aa(lp813
I3140
aI2561
aI2062
aI1376
aI626
aI3144
aa(lp814
I3140
aI1745
aa(lp815
I2221
aI1638
aI626
aI3425
aI2019
aa(lp816
I3076
aI1883
aI3231
aI1797
aI2561
aI182
aI752
aI3264
aI2891
aI2062
aI317
aa(lp817
I3140
aI3138
aa(lp818
I3140
aI1722
aI3034
aa(lp819
I930
aI748
aI501
aa(lp820
I2921
aI3361
aI2069
aI2781
aI3117
aI414
aI2927
aI2409
aI2432
aa(lp821
I129
aI748
aI1595
aa(lp822
I198
aI2781
aI1234
aI2875
aI414
aI2875
aI626
aI3196
aa(lp823
I858
aI3151
aa(lp824
a(lp825
I3140
aa(lp826
I3140
aI661
aI414
aI1486
aI736
aI3265
aa(lp827
I3265
aI1580
aa(lp828
I3409
aI572
aI1281
aI572
aI820
aI862
aI2923
aI2336
aI1652
aI1515
aI2923
aa(lp829
I1975
aI1802
aI431
aI501
aI1829
aI2657
aI572
aI572
aI572
aa(lp830
I3308
aI3091
aI626
aI515
aI1652
aI2668
aa(lp831
I728
aI2193
aI1440
aI748
aI2900
aa(lp832
I3246
aI857
aa(lp833
I1267
aI2627
aI41
aa(lp834
I1797
aI2561
aI1913
aI572
aI1836
aI982
aa(lp835
I1797
aI2561
aI3091
aI1259
aI2287
aI2987
aI3377
aI2375
aa(lp836
I2418
aa(lp837
I3091
aI1259
aI2287
aI2987
aI3377
aI2375
aa(lp838
I1797
aI2561
aI1913
aI572
aI92
aI1857
aI2561
aI3091
aI1259
aI2287
aI2987
aI3377
aI2375
aI3076
aI2132
aI1248
aI3231
aa(lp839
I1797
aI2561
aI1913
aI572
aI333
aI3091
aI1259
aI2287
aI2987
aI3377
aI2375
aa(lp840
I687
aI557
aI1133
aI414
aI687
aI2668
aa(lp841
I1857
aI2561
aI1255
aI626
aI2159
aa(lp842
I172
aa(lp843
I1857
aI572
aI2561
aI1939
aI1652
aI59
aI626
aI3264
aa(lp844
I80
aI730
aI1608
aI1722
aI431
aI2902
aI1652
aI1066
aa(lp845
I209
aI2295
aI3076
aI2543
aI1271
aI3231
aI414
aI2520
aI243
aI730
aI3339
aI3325
aa(lp846
I539
aI2769
aI431
aI115
aI3076
aI516
aI1068
aI150
aI3231
aa(lp847
I1913
aI572
aI3263
aI1207
aI1127
aa(lp848
I1393
aI2561
aI1344
aI752
aI1800
aI752
aI3076
aI2481
aI3231
aa(lp849
I732
aI3418
aI2298
aI2632
aI748
aI933
aI2657
aa(lp850
I1937
aI1588
aa(lp851
I973
aI3264
aa(lp852
I646
aI2875
aa(lp853
I1237
aI752
aI3132
aI157
aI390
aI243
aI3154
aI572
aa(lp854
I2657
aI2561
aI2388
aI1802
aI3376
aI748
aI1486
aI2432
aa(lp855
I2247
aI2240
aI572
aI234
aI3076
aI1072
aI3231
aI2561
aI2044
aI3076
aI2744
aI752
aI158
aa(lp856
I1329
aI2781
aI2360
aI862
aa(lp857
I3225
aI1207
aI626
aI3287
aa(lp858
I1857
aI2561
aI1035
aI506
aa(lp859
I1671
aI2781
aI1361
aa(lp860
I628
aI3076
aI1172
aI3231
aI2848
aI1819
aI2172
aa(lp861
I2657
aI2561
aI952
aI3343
aI1652
aI1825
aa(lp862
I1857
aI2561
aI2931
aI572
aI2781
aI2479
aI864
aI1652
aI2409
aa(lp863
I2111
aI2941
aI2441
aa(lp864
I1393
aI2561
aI2875
aI626
aI1927
aI359
aa(lp865
I1393
aI2561
aI986
aI2823
aI626
aI403
aI3148
aa(lp866
I2822
aI1195
aI3076
aI1232
aI136
aI3231
aa(lp867
I431
aI2328
aI2001
aa(lp868
I1423
aI1802
aI1934
aI1343
aa(lp869
I3106
aa(lp870
I431
aI982
aI993
aa(lp871
I1797
aI2561
aI1913
aI572
aI3021
aI1857
aI2561
aI1939
aI1652
aI59
aI626
aI3264
aa(lp872
I1797
aI2561
aI1913
aI572
aI3021
aI1857
aI2561
aI1939
aI1652
aI59
aI626
aI3264
aa(lp873
I1946
aI414
aI414
aI1230
aI3048
aI1664
aI1912
aa(lp874
I1213
aI2053
aa(lp875
I2657
aI2561
aI15
aI1582
aI3348
aa(lp876
I135
aI1797
aI2561
aI1762
aI557
aI1156
aI802
aa(lp877
I1857
aI2561
aI446
aa(lp878
a(lp879
I501
aI1400
aa(lp880
I1976
aI80
aI242
aI1233
aI2561
aI129
aI748
aI1530
aa(lp881
I2781
aI414
aI2569
aI3334
aI2315
aa(lp882
I1797
aI2561
aI1913
aI572
aI534
aI3091
aI1259
aI2287
aI2987
aI3377
aI2375
aa(lp883
I1831
aa(lp884
I1797
aI2561
aI1913
aI572
aI534
aI3091
aI1259
aI2287
aI2987
aI3377
aI2375
aa(lp885
I3091
aI1259
aI2287
aI2987
aI3377
aI2375
aa(lp886
I1797
aI2561
aI3091
aI1259
aI2287
aI2987
aI3377
aI2375
aa(lp887
I3408
aI3265
aI626
aI455
aa(lp888
I2905
aI1193
aI3140
aI1710
aa(lp889
I3140
aI2561
aI63
aa(lp890
a(lp891
a(lp892
I1393
aI2561
aI2346
aI1131
aI1802
aI869
aI3358
aa(lp893
I2245
aI414
aI2478
aI658
aa(lp894
I1573
aI1886
aa(lp895
I1797
aI2561
aI1491
aa(lp896
I76
aI1347
aa(lp897
I1297
aI597
aI2922
aI1680
aI3358
aa(lp898
I74
aI2076
aa(lp899
I179
aI2760
aa(lp900
I3099
aI2561
aI480
aI414
aI3236
aa(lp901
I1094
aI2561
aI1529
aI626
aI1234
aI3358
aa(lp902
I1393
aI2561
aI1491
aI626
aI1164
aa(lp903
a(lp904
I3228
aI2561
aI190
aI2431
aa(lp905
I1857
aI2561
aI1547
aI3264
aa(lp906
I2602
aI835
aI3265
aI1722
aI1177
aa(lp907
I3265
aI2312
aa(lp908
I23
aI3140
aI1652
aI960
aI557
aI1344
aI626
aI2314
aa(lp909
I1857
aI2561
aI506
aa(lp910
I414
aI998
aI3076
aI3342
aI3231
aa(lp911
I2221
aI41
aI2038
aI626
aI63
aa(lp912
I967
aI603
aI74
aI959
aI1328
aI1614
aI2068
aa(lp913
I2657
aI2561
aI63
aI302
aa(lp914
I18
aI577
aI1042
aa(lp915
I129
aI748
aI1595
aa(lp916
I625
aI2561
aI2534
aI2902
aI2993
aI566
aa(lp917
I2479
aI273
aa(lp918
I1187
aI748
aI660
aI414
aI1370
aI2205
aa(lp919
I1797
aI2561
aI2470
aI3223
aI572
aI298
aI243
aI1175
aI3189
aa(lp920
I3051
aI748
aI2409
aI1829
aa(lp921
I2409
aI550
aI243
aI2991
aI1804
aa(lp922
I2626
aI2543
aI448
aa(lp923
I1271
aI557
aI2568
aI572
aI1193
aI1741
aI414
aI1804
aa(lp924
I2167
aI869
aI775
aI2923
aa(lp925
I876
aI2172
aI557
aI1793
aa(lp926
I1797
aI2561
aI1913
aI572
aI2373
aI3019
aI3231
aI1652
aa(lp927
I2324
aI414
aI2703
aa(lp928
I1009
aI414
aI414
aI2321
aa(lp929
I1316
aa(lp930
I1242
aI1902
aa(lp931
I1609
aa(lp932
I3075
aI752
aI201
aI2995
aa(lp933
I1428
aI2561
aI29
aI1804
aa(lp934
I1797
aI2561
aI1913
aI572
aI3434
aI3077
aI2561
aI2792
aI557
aI3042
aI243
aI1176
aI557
aI765
aa(lp935
I1797
aI2561
aI1684
aI501
aI118
aI3076
aI501
aI1829
aI2561
aI2523
aI414
aI2246
aI3231
aa(lp936
I3085
aa(lp937
I107
aI626
aI431
aI3361
aI1207
aa(lp938
I2095
aI201
aI2916
aa(lp939
I566
aI2526
aI243
aI1058
aI414
aI1584
aI999
aI243
aI1261
aa(lp940
a(lp941
I1176
aI557
aI765
aa(lp942
I1857
aI2561
aI3091
aI1259
aI2287
aI2987
aI3377
aI2375
aI243
aI2354
aI572
aI1058
aa(lp943
I3099
aI2561
aI1307
aI506
aI163
aa(lp944
I3051
aI748
aI1071
aa(lp945
I193
aI703
aI2935
aa(lp946
I213
aI2381
aa(lp947
I2129
aI1417
aI1393
aa(lp948
I1857
aI2561
aI2274
aI414
aI2841
aI557
aI1641
aI2457
aa(lp949
I1393
aI2561
aI727
aI2460
aa(lp950
I946
aI273
aI730
aI3339
aI3325
aa(lp951
I730
aI965
aI1652
aI2875
aI1722
aI549
aa(lp952
I165
aI2638
aI959
aa(lp953
I627
aI1866
aI2561
aI603
aI414
aI2279
aI1647
aI1731
aa(lp954
I95
aa(lp955
I2544
aI3343
aI1652
aI417
aa(lp956
I1207
aI2660
aI748
aI910
aI2719
aI1024
aa(lp957
I3099
aI2561
aI2852
aI557
aI123
aa(lp958
I1094
aI2561
aI2923
aI2795
aI2923
aI557
aI2923
aI1259
aI2923
aa(lp959
I2432
aI1652
aI409
aI1352
aa(lp960
I621
aI2561
aI157
aI226
aI2378
aa(lp961
I1834
aI414
aI3072
aI163
aI1652
aI3264
aa(lp962
I1485
aI1722
aI318
aa(lp963
I1797
aI2561
aI868
aI856
aa(lp964
I2923
aI477
aI171
aI2923
aI539
aa(lp965
I80
aI1829
aI2561
aI1911
aa(lp966
I80
aI1056
aI1829
aa(lp967
I106
aI1195
aI3360
aI3076
aI29
aI1058
aI752
aI1280
aI752
aI150
aI3231
aa(lp968
I3264
aI2588
aa(lp969
I1368
aI3234
aa(lp970
I375
aI996
aI1996
aI2008
aa(lp971
I172
aI2923
aI153
aa(lp972
I3050
aI748
aI2368
aI2800
aI2781
aI730
aa(lp973
I1913
aI572
aI947
aI1344
aI1946
aa(lp974
I1018
aI2561
aI128
aa(lp975
I63
aI566
aa(lp976
I1644
aI974
aI1195
aI626
aI1828
aa(lp977
I3446
aI1195
aI2759
aI566
aa(lp978
I196
aa(lp979
I1797
aI2561
aI1913
aI572
aI2186
aI243
aI868
aI856
aa(lp980
I978
aa(lp981
I1857
aI2561
aI3018
aI414
aI2949
aI414
aa(lp982
I1013
aI557
aI3130
aI1207
aa(lp983
I15
aI1509
aI414
aI414
aI1990
aI2116
aa(lp984
I129
aI748
aI1352
aI2561
aI2301
aI769
aa(lp985
I1857
aI2561
aI2923
aI2795
aI2923
aI557
aI2923
aI1259
aI2923
aa(lp986
I1077
aI213
aI612
aI2312
aa(lp987
I315
aI557
aI431
aI2317
aa(lp988
I3305
aI2561
aI300
aI220
aI2875
aI2673
aa(lp989
I1865
aI721
aa(lp990
I2326
aI2025
aa(lp991
I2705
aI3014
aI1652
aI696
aa(lp992
I3305
aI2561
aI3050
aI748
aI1497
aI3311
aa(lp993
I1829
aI1652
aI1207
aI2995
aI1862
aI362
aa(lp994
I3339
aI3325
aI748
aI431
aI3361
aI1207
aa(lp995
I1121
aI1829
aa(lp996
I1977
aI243
aI2571
aa(lp997
I1094
aI2561
aI1008
aI3264
aI1367
aI1008
aa(lp998
I3244
aI1652
aI1207
aI730
aI3339
aI3325
aa(lp999
I561
aI2069
aI2971
aI2781
aI730
aa(lp1000
I1797
aI2561
aI1976
aI3388
aI1893
aI3388
aI2196
aI2420
aI3076
aI1883
aI3231
aa(lp1001
I2766
aI1207
aa(lp1002
I1329
aI557
aI981
aa(lp1003
I1804
aI2781
aI1137
aI2668
aI1652
aI510
aa(lp1004
I1757
aI1797
aI2561
aI1913
aI572
aI1474
aI1857
aI2561
aI2095
aI201
aI2916
aa(lp1005
I403
aI220
aI396
aa(lp1006
I927
aI3016
aI243
aI934
aI243
aI1435
aI1195
aa(lp1007
I1797
aI2561
aI2095
aI414
aI3264
aI626
aI2468
aa(lp1008
I407
aI748
aI1349
aa(lp1009
I368
aI3376
aa(lp1010
I1393
aI2561
aI1142
aI1976
aI2896
aa(lp1011
I1857
aI2561
aI1599
aI1422
aa(lp1012
I1393
aI2561
aI1414
aa(lp1013
I3140
aI414
aI414
aI2324
aI752
aI1827
aI243
aI2210
aI243
aI848
aI2561
aI2959
aI243
aI1796
aa(lp1014
I2129
aI1417
aa(lp1015
I1797
aI2561
aI1913
aI572
aI1180
aI243
aI3099
aI2561
aI1555
aI243
aI1349
aI243
aI310
aI1652
aI1344
aI3258
aI572
aI87
aI2923
aI2463
aa(lp1016
I2997
aa(lp1017
I1797
aI2561
aI1913
aI572
aI1179
aI243
aI627
aI1866
aI2561
aI603
aI414
aI2279
aI1647
aa(lp1018
I1797
aI2561
aI1913
aI572
aI1179
aI243
aI627
aI1866
aI2561
aI603
aI414
aI2279
aI1647
aa(lp1019
I1797
aI2561
aI1913
aI572
aI1179
aI243
aI627
aI1866
aI2561
aI603
aI414
aI2279
aI1647
aa(lp1020
I1094
aI2561
aI80
aI3134
aI965
aI748
aI3314
aI623
aI2710
aa(lp1021
I23
aI2893
aI748
aI1115
aI3160
aa(lp1022
I2166
aI2606
aI2923
aI275
aI2627
aI572
aa(lp1023
I842
aI3358
aa(lp1024
I1797
aI2561
aI842
aa(lp1025
I842
aI3194
aa(lp1026
I824
aI3367
aI2552
aI415
aa(lp1027
I1797
aI2561
aI1913
aI572
aI1159
aI243
aI3099
aI2561
aI1344
aI243
aI3058
aI243
aI2748
aI243
aI15
aI72
aI243
aa(lp1028
I1393
aI2561
aI3258
aI572
aI87
aI2923
aI2463
aa(lp1029
I1857
aI2561
aI2253
aI1344
aI243
aI1008
aI3264
aI1367
aI1008
aa(lp1030
I1466
aa(lp1031
I3059
aI862
aI2834
aI2668
aI2561
aI743
aI3358
aa(lp1032
I1797
aI2561
aI1913
aI572
aI1450
aI243
aI1344
aI1946
aa(lp1033
I3244
aI1652
aI1207
aI730
aI3339
aI3325
aa(lp1034
I1939
aI1652
aI455
aa(lp1035
I1486
aI1352
aI1304
aI3076
aI2436
aI3231
aa(lp1036
I2875
aI626
aI1927
aI359
aa(lp1037
I3140
aI626
aI176
aa(lp1038
I3140
aI2561
aI2576
aI1372
aI752
aI2543
aI2875
aa(lp1039
I1241
aI2902
aI243
aI1618
aI243
aI1455
aI572
aI2314
aa(lp1040
I3140
aI136
aa(lp1041
I153
aI2494
aI1830
aI3140
aa(lp1042
I2062
aI2050
aI626
aI2875
aI557
aI1535
aI1528
aa(lp1043
I3438
aI1433
aI1829
aa(lp1044
a(lp1045
a(lp1046
a(lp1047
I714
aI1927
aI2739
aI102
aa(lp1048
a(lp1049
a(lp1050
I1433
aI1802
aI1141
aa(lp1051
I949
aI1566
aI1603
aI476
aI2317
aI3219
aa(lp1052
I471
aI2561
aI1077
aI2933
aI1827
aI3242
aI1608
aI1058
aI572
aI1248
aI1323
aI3076
aI2014
aI572
aI1248
aI3231
aa(lp1053
I982
aI274
aI748
aI1362
aI3076
aI381
aI3231
aa(lp1054
a(lp1055
a(lp1056
a(lp1057
a(lp1058
I3361
aI1652
aI63
aI2875
aI2561
aI2503
aI572
aI1277
aa(lp1059
I1797
aI2561
aI367
aa(lp1060
I1006
aI596
aI8
aI397
aa(lp1061
I354
aI2256
aI2116
aI1952
aa(lp1062
I2657
aI2561
aI63
aI1424
aI752
aI2889
aa(lp1063
I843
aI557
aI2082
aI752
aI1472
aI1976
aI2905
aI572
aa(lp1064
I1393
aI557
aI493
aI2561
aI967
aI603
aI74
aI959
aI1328
aI1614
aI1417
aa(lp1065
I1857
aI2561
aI1614
aI984
aa(lp1066
I1857
aI2561
aI455
aI1902
aa(lp1067
I749
aI1195
aI243
aI1967
aI2561
aI1182
aI557
aI2991
aI1580
aI243
aI557
aI1804
aa(lp1068
I816
aI3406
aa(lp1069
I42
aa(lp1070
I2120
aI2475
aI2776
aa(lp1071
I1080
aI2386
aa(lp1072
I1393
aI2561
aI484
aI2441
aI557
aI83
aa(lp1073
I3438
aI886
aI324
aI572
aa(lp1074
I56
aI3304
aI557
aI2310
aI1774
aa(lp1075
I2265
aI626
aI777
aI557
aI61
aI837
aa(lp1076
I3350
aI965
aa(lp1077
I1863
aI859
aI862
aI626
aI3264
aa(lp1078
I1096
aa(lp1079
I2383
aI1652
aI1825
aa(lp1080
I749
aI1195
aI2561
aI1804
aa(lp1081
I867
aI243
aI2071
aI951
aI3284
aI443
aa(lp1082
I1393
aI1652
aI2316
aI1802
aI2657
aI2781
aI360
aI3037
aI3076
aI1966
aI1652
aI80
aI2299
aI3231
aa(lp1083
I103
aI1484
aI1722
aI524
aa(lp1084
a(lp1085
I384
aI2875
aI3361
aI2561
aI2671
aI1071
aa(lp1086
I156
aI1964
aI3076
aI1435
aI2501
aI414
aI414
aI1992
aI1195
aI3231
aI2369
aa(lp1087
I1754
aa(lp1088
I1234
aI1326
aa(lp1089
I2062
aI305
aI1722
aI2322
aI243
aI3400
aI3076
aI1883
aI3231
aa(lp1090
I1857
aI2561
aI1269
aI3450
aa(lp1091
I1393
aI2561
aI1092
aI1652
aI2724
aI2132
aI530
aa(lp1092
I1578
aa(lp1093
I2657
aI2561
aI1495
aI1829
aa(lp1094
I15
aI368
aa(lp1095
I45
aI626
aI591
aI1207
aI396
aI557
aI1303
aI1104
aI243
aI3154
aI572
aa(lp1096
I2657
aI2561
aI3221
aI2514
aI557
aI959
aI414
aI2570
aa(lp1097
I3427
aI506
aa(lp1098
I3140
aI626
aI235
aa(lp1099
I3140
aI2561
aI1344
aI1207
aI3154
aI572
aI626
aI235
aa(lp1100
I1271
aI2062
aI3265
aI626
aI1918
aa(lp1101
I1234
aI2381
aa(lp1102
I2657
aI2561
aI3047
aI3192
aI615
aa(lp1103
I1094
aI2561
aI2530
aI862
aI2288
aI511
aI2722
aI194
aI1452
aI1652
aI279
aI2141
aI1652
aI501
aI2287
aI1680
aa(lp1104
I1393
aI2561
aI2530
aI2781
aI2447
aI431
aI1193
aI2885
aa(lp1105
I1420
aI1652
aI31
aI748
aI2208
aa(lp1106
I3427
aI1691
aI1716
aa(lp1107
I3213
aa(lp1108
I3338
aI2760
aa(lp1109
I591
aI1207
aI2535
aa(lp1110
I924
aI952
aI3343
aI1652
aI1825
aa(lp1111
I2641
aI15
aI201
aI645
aI566
aI3076
aI2325
aI129
aI3231
aa(lp1112
I1434
aa(lp1113
I1133
aI414
aI2035
aI1051
aI2019
aa(lp1114
I1857
aI2561
aI1863
aI859
aI862
aI626
aI3264
aa(lp1115
I1797
aI2561
aI1913
aI572
aI1401
aI243
aI1857
aI2561
aI2530
aI2781
aI2447
aI431
aI1193
aI2885
aa(lp1116
I1797
aI2561
aI1913
aI572
aI1651
aI243
aI2568
aI626
aI1927
aI359
aa(lp1117
I1797
aI2561
aI1913
aI572
aI3191
aI243
aI2105
aI2561
aI3264
aI1367
aI243
aI1976
aI2164
aI2781
aI310
aI1652
aI1344
aa(lp1118
I2750
aI2587
aI557
aI3055
aI414
aI1311
aa(lp1119
I1797
aI2561
aI1913
aI572
aI2850
aI243
aI50
aI2561
aI1133
aI414
aI2035
aI1051
aI2019
aa(lp1120
I3264
aI1367
aI3358
aa(lp1121
I1797
aI2561
aI1913
aI572
aI3191
aI243
aI2105
aI2561
aI3264
aI1367
aI243
aI1976
aI2164
aI2781
aI310
aI1652
aI1344
aa(lp1122
I1797
aI2561
aI1913
aI572
aI3191
aI243
aI2105
aI2561
aI3264
aI1367
aa(lp1123
I2366
aI572
aI2480
aI667
aa(lp1124
I1547
aI2657
aa(lp1125
I2557
aI3051
aI748
aI2040
aI557
aI1207
aI1113
aa(lp1126
I2144
aI626
aI3264
aI302
aa(lp1127
I130
aI1624
aa(lp1128
I50
aI3406
aI752
aI3105
aa(lp1129
I1393
aI2561
aI11
aa(lp1130
I684
aI2561
aI129
aI748
aI931
aa(lp1131
I50
aI2561
aI431
aI1063
aI1652
aI2278
aa(lp1132
I360
aI3037
aI414
aI1718
aI3176
aI1802
aI1393
aa(lp1133
a(lp1134
I1393
aI2561
aI1576
aI1830
aa(lp1135
I2888
aI1663
aI1707
aI340
aI564
aI566
aa(lp1136
I1797
aI2561
aI1913
aI572
aI2598
aI243
aI50
aI2561
aI3406
aI752
aI3105
aa(lp1137
I1393
aa(lp1138
I1434
aI626
aI63
aI557
aI15
aa(lp1139
I3140
aI1580
aa(lp1140
I1797
aI2561
aI1913
aI572
aI2850
aI243
aI50
aI2561
aI1133
aI414
aI2035
aI1051
aI2019
aa(lp1141
I1797
aI2561
aI1586
aI2922
aI2528
aI2119
aa(lp1142
I1797
aI2561
aI310
aI1652
aI1344
aa(lp1143
I2781
aI1207
aI557
aI616
aa(lp1144
I1857
aI2561
aI559
aI245
aa(lp1145
I3134
aI965
aI3358
aI3358
aI3358
aa(lp1146
I2657
aI2561
aI2530
aI862
aI1008
aI1508
aI3353
aI1008
aa(lp1147
I168
aI312
aa(lp1148
I2657
aI2761
aa(lp1149
I2305
aI979
aI2116
aa(lp1150
I1857
aI2561
aI1201
aI1697
aI1329
aa(lp1151
I1857
aI2561
aI1295
aI2128
aI1160
aI932
aI3076
aI1234
aI2673
aI3231
aa(lp1152
I63
aI752
aI3031
aI2875
aa(lp1153
I916
aa(lp1154
I3264
aI1367
aa(lp1155
I1056
aI2561
aI3264
aI1367
aa(lp1156
I3264
aI1367
aa(lp1157
I1008
aI3264
aI779
aI1008
aI1774
aI626
aI3343
aa(lp1158
I501
aI1829
aI338
aa(lp1159
I2184
aI3134
aI2754
aI2561
aI1968
aa(lp1160
I566
aI1580
aa(lp1161
I625
aI2561
aI69
aI2864
aI2367
aI752
aI101
aI572
aI1410
aI3258
aI572
aI327
aa(lp1162
I858
aI752
aI2293
aI3080
aI3151
aa(lp1163
I2966
aa(lp1164
I1804
aI414
aI1830
aI557
aI895
aI566
aI243
aI833
aa(lp1165
I2879
aI3001
aI2148
aI2731
aI1776
aa(lp1166
I1434
aI2561
aI1644
aI486
aa(lp1167
I1976
aI2875
aI782
aI2419
aI3076
aI1290
aI3231
aa(lp1168
I1676
aI1791
aI1530
aa(lp1169
I2999
aI1182
aI646
aI411
aI414
aI1580
aa(lp1170
I3248
aI1830
aI1484
aI1722
aI2568
aI572
aI2958
aI572
aa(lp1171
I561
aI129
aI748
aI1595
aI2561
aI156
aI2367
aI161
aa(lp1172
I1797
aI2561
aI2245
aI572
aI3328
aI243
aI50
aI2561
aI1136
aI1366
aI1707
aI2129
aa(lp1173
I774
aI1668
aa(lp1174
I1393
aI1652
aI2316
aI1802
aI940
aI2657
aa(lp1175
I475
aI1278
aI2561
aI3045
aI1580
aa(lp1176
I340
aI1890
aa(lp1177
I50
aI2561
aI273
aI626
aI2581
aI266
aa(lp1178
I129
aI748
aI886
aI752
aI80
aI3050
aI748
aI129
aI3219
aa(lp1179
I646
aI1207
aI2673
aI2032
aa(lp1180
I465
aI1913
aI414
aI2325
aI129
aI748
aI1595
aI1952
aa(lp1181
I271
aI2875
aI2772
aI2036
aa(lp1182
I1393
aI2561
aI71
aI631
aa(lp1183
I1822
aI2902
aI1652
aI1850
aI414
aI1409
aI2875
aI198
aI2561
aa(lp1184
I2740
aI572
aI3452
aI909
aI466
aa(lp1185
I1797
aI2561
aI2245
aI572
aI2207
aI243
aI50
aI2561
aI273
aI626
aI266
aa(lp1186
I625
aI414
aI1785
aI2923
aI152
aI414
aI2855
aI3076
aI1001
aI3231
aI414
aI781
aI152
aa(lp1187
I2718
aI2330
aI625
aI1652
aI431
aI714
aI1927
aI2916
aa(lp1188
I608
aI2317
aI3325
aa(lp1189
I3264
aI617
aI1718
aI8
aI1207
aI566
aa(lp1190
I3459
aI952
aI566
aI2781
aI3382
aI273
aa(lp1191
I193
aI2136
aI2638
aI3216
aa(lp1192
I3018
aI667
aa(lp1193
I1671
aI2116
aI2561
aI3117
aI414
aI2927
aI2409
aa(lp1194
I1797
aI2561
aI2245
aI572
aI1957
aI243
aI50
aI2561
aI1136
aI1366
aI1707
aI2129
aa(lp1195
I1393
aI2561
aI3424
aI3025
aa(lp1196
I1393
aI2781
aI3264
aI1887
aa(lp1197
I2596
aa(lp1198
I986
aI33
aI557
aI1748
aI264
aa(lp1199
I80
aI1670
aI2560
aI626
aI2875
aa(lp1200
I1354
aI952
aI198
aa(lp1201
I2227
aI1652
aI3264
aI1887
aa(lp1202
I1857
aI2561
aI2592
aa(lp1203
I1393
aI2561
aI2045
aI2011
aI1671
aa(lp1204
I1393
aI2561
aI1552
aI2411
aI1427
aI1912
aI3316
aI1481
aa(lp1205
I394
aI557
aI431
aI2899
aI1804
aa(lp1206
I1797
aI2561
aI2245
aI572
aI2696
aI243
aI1857
aI2561
aI3264
aI1887
aa(lp1207
I1797
aI2561
aI2245
aI572
aI2472
aI243
aI3099
aI2561
aI960
aI243
aI15
aI896
aI243
aI3104
aa(lp1208
I1797
aI2561
aI2245
aI572
aI1511
aI243
aI3099
aI2561
aI2627
aI572
aI3239
aI243
aI1008
aI225
aI243
aI1008
aI157
aI969
aa(lp1209
I129
aI2561
aI1234
aI626
aI2578
aI752
aI418
aa(lp1210
I3140
aa(lp1211
I2062
aI1493
aI626
aI1402
aI3144
aa(lp1212
I1619
aI1652
aI1623
aI2923
aI2760
aa(lp1213
I3117
aI414
aI2927
aI2955
aa(lp1214
I1190
aI161
aI129
aI748
aI1595
aa(lp1215
I1678
aI2561
aI1670
aI1434
aI752
aI2417
aI3076
aI652
aI3231
aa(lp1216
I2555
aI2781
aI1976
aI157
aI414
aI2337
aa(lp1217
I2113
aI752
aI1106
aI1425
aa(lp1218
I621
aI157
aI2995
aa(lp1219
I1108
aI3264
aI3076
aI1883
aI3231
aa(lp1220
I1570
aI28
aI2553
aI572
aI3161
aI572
aI2790
aI572
aI2655
aa(lp1221
I2781
aI2569
aI825
aI1652
aI772
aa(lp1222
I3389
aI2038
aI364
aI2528
aI2708
aI3076
aI1821
aI924
aI3231
aa(lp1223
I686
aI1802
aI2918
aI1141
aa(lp1224
I3099
aI2561
aI1976
aI2555
aI2769
aI2081
aI414
aI2359
aa(lp1225
I2543
aI2875
aI2561
aI431
aI482
aI1008
aI1048
aI1008
aI2127
aa(lp1226
I1887
aI243
aI2490
aI243
aI3215
aa(lp1227
I1857
aI2561
aI472
aI3376
aa(lp1228
I3140
aI2561
aI2467
aI752
aI8
aI979
aa(lp1229
I1797
aI2561
aI2644
aI414
aI1313
aa(lp1230
I2781
aI2569
aI566
aa(lp1231
I1670
aI604
aI572
aI1652
aI2875
aI1196
aI3140
aI2772
aI307
aI2217
aI2296
aI2006
aI3076
aI1883
aI3231
aa(lp1232
I1835
aI566
aI2561
aI1542
aa(lp1233
I770
aI626
aI2185
aa(lp1234
I22
aI1925
aI557
aI2645
aa(lp1235
I129
aI748
aI3012
aI748
aI431
aI58
aa(lp1236
I2734
aI143
aI2561
aI1219
aI1580
aI557
aI129
aI748
aI1595
aa(lp1237
I367
aI748
aI501
aI1829
aa(lp1238
I3160
aI41
aI2561
aI1348
aI579
aI626
aI2543
aI2875
aa(lp1239
I1603
aI3264
aI1872
aa(lp1240
I3265
aI1580
aI752
aI486
aa(lp1241
I1004
aI3113
aI1214
aI2760
aI2295
aI414
aI2062
aI3195
aa(lp1242
I3140
aI2561
aI2875
aI1722
aI3346
aa(lp1243
I3265
aI2561
aI2543
aI501
aa(lp1244
I1211
aI3223
aI572
aI2095
aI2888
aI1976
aI1707
aI3076
aI1455
aa(lp1245
I1938
aI414
aI414
aI2991
aI129
aI748
aI1595
aa(lp1246
I1939
aI1652
aI1486
aI557
aI1582
aI2962
aa(lp1247
I445
aI2961
aI8
aI2668
aI2432
aI1039
aa(lp1248
I80
aI807
aI748
aI501
aa(lp1249
I1580
aI2482
aa(lp1250
I80
aI2062
aI974
aa(lp1251
I1251
aI752
aI2929
aa(lp1252
I2290
aI2561
aI2092
aa(lp1253
I2773
aI591
aI1207
aI2062
aI100
aI3076
aI1883
aI3231
aa(lp1254
I1211
aI2888
aI1976
aI1707
aa(lp1255
I3050
aI1290
aI748
aI1251
aI557
aI2929
aI1422
aa(lp1256
I1340
aI1393
aa(lp1257
I3140
aI1580
aI748
aI15
aI2875
aa(lp1258
I566
aI2561
aI156
aI752
aI3160
aI152
aa(lp1259
I2317
aI3325
aI748
aI2430
aa(lp1260
I2082
aI3264
aI626
aI93
aa(lp1261
I2062
aI2687
aI626
aI144
aa(lp1262
I1434
aI2561
aI3031
aI557
aI752
aI1664
aI1486
aI1193
aI414
aI1821
aI924
aI1093
aI572
aI2425
aa(lp1263
I2025
aI1234
aI801
aI752
aI425
aa(lp1264
I1797
aI2561
aI1094
aI2561
aI1606
aI3200
aI2169
aa(lp1265
I80
aI3413
aI2561
aI3144
aa(lp1266
I3264
aI1207
aI23
aI1722
aI98
aI2902
aa(lp1267
I3265
aI2561
aI548
aI243
aI235
aa(lp1268
I3140
aI136
aI2561
aI3031
aI1754
aI3076
aI2635
aI3231
aa(lp1269
I1797
aI2561
aI2245
aI572
aI2869
aI243
aI50
aI2561
aI1685
aI478
aI626
aI3423
aa(lp1270
I1393
aI2561
aI2146
aI414
aI34
aI557
aI1102
aI752
aI3424
aI1164
aa(lp1271
I80
aI3413
aI2561
aI455
aa(lp1272
I8
aI414
aI1207
aI2487
aI752
aI903
aI2116
aa(lp1273
I762
aI161
aa(lp1274
I566
aI1580
aa(lp1275
I129
aI2561
aI1235
aI2875
aa(lp1276
I3376
aI2003
aI748
aI1341
aI2295
aI3076
aI2635
aI3231
aa(lp1277
I1797
aI2561
aI2245
aI572
aI1713
aI243
aI50
aI2561
aI1211
aI2888
aI1976
aI1707
aa(lp1278
I1797
aI2561
aI2245
aI572
aI3172
aI243
aI1857
aI2561
aI2146
aI414
aI34
aI557
aI1102
aI752
aI3424
aI1164
aa(lp1279
I1857
aI363
aI862
aI1853
aa(lp1280
I1344
aI626
aI797
aI1919
aa(lp1281
I2250
aI1472
aI667
aa(lp1282
I2673
aI2781
aI1643
aa(lp1283
I605
aI2095
aI3201
aI1471
aa(lp1284
I2543
aI1830
aa(lp1285
I1797
aI2561
aI2245
aI572
aI1224
aI243
aI1797
aI2561
aI2146
aI414
aI34
aI557
aI1102
aI752
aI3424
aI1164
aa(lp1286
I129
aI748
aI1595
aI2561
aI769
aI414
aI3081
aI1207
aI969
aa(lp1287
I496
aI626
aI1918
aa(lp1288
I1094
aI2561
aI817
aI626
aI1381
aI3358
aa(lp1289
I921
aI626
aI3445
aI273
aa(lp1290
I1242
aI3376
aa(lp1291
I3140
aI2561
aI1421
aI1271
aI752
aI2066
aI3076
aI1344
aI3231
aa(lp1292
I129
aI748
aI1595
aI2561
aI3366
aI2781
aI1522
aI1767
aa(lp1293
I80
aI3413
aa(lp1294
I952
aI1807
aI1804
aI891
aI243
aI117
aI572
aI878
aa(lp1295
I80
aI3438
aI2561
aI1081
aa(lp1296
I3265
aI626
aI1541
aI2772
aI348
aI237
aa(lp1297
I80
aI3413
aI2561
aI391
aI2875
aa(lp1298
I1912
aI2976
aa(lp1299
I445
aI2330
aI714
aI1927
aI566
aa(lp1300
I80
aI2353
aI2781
aI1207
aI396
aI3076
aI1168
aI3231
aa(lp1301
I1976
aI273
aI1652
aI640
aI643
aa(lp1302
I80
aI3438
aI2561
aI271
aI2875
aa(lp1303
I1797
aI2561
aI1393
aI2561
aI2923
aI849
aI2923
aI557
aI2923
aI1085
aI2923
aa(lp1304
I50
aI2561
aI273
aI626
aI2581
aI266
aa(lp1305
I1797
aI2561
aI2245
aI572
aI1181
aI243
aI50
aI2561
aI273
aI626
aI2581
aI266
aI414
aI414
aI1976
aI1975
aa(lp1306
I1797
aI2561
aI2245
aI572
aI1181
aI243
aI50
aI2561
aI273
aI626
aI2581
aI266
aI414
aI414
aI1976
aI1975
aa(lp1307
I50
aI2561
aI879
aI2245
aI572
aI1186
aa(lp1308
I34
aI396
aI72
aI414
aI1393
aa(lp1309
I1857
aI2561
aI2046
aI1802
aI2129
aI1541
aa(lp1310
I50
aI2561
aI1136
aI1366
aI1707
aI2129
aa(lp1311
I1242
aI1902
aa(lp1312
I2786
aI3270
aa(lp1313
I3264
aI1824
aI1976
aI2923
aI255
aI1824
aI2495
aI2923
aa(lp1314
I452
aI626
aI1234
aa(lp1315
I1797
aI2561
aI2245
aI572
aI908
aI243
aI1857
aI2561
aI960
aI3299
aI3091
aI243
aI1207
aI1136
aa(lp1316
I2312
aI748
aI1420
aa(lp1317
I3205
aI28
aI230
aI572
aI1202
aa(lp1318
I1797
aI2561
aI2245
aI572
aI2187
aI243
aI50
aI2561
aI638
aa(lp1319
I398
aI1484
aI2781
aI3005
aI1111
aa(lp1320
I155
aI1804
aa(lp1321
I2221
aI41
aI2781
aI1008
aI1939
aI1652
aI2875
aI1008
aa(lp1322
I523
aI414
aI2065
aI129
aI748
aI931
aa(lp1323
I3413
aI2561
aI3144
aa(lp1324
I1857
aI2561
aI1790
aI3316
aI2923
aI2952
aI256
aI3056
aI688
aI3358
aI2923
aa(lp1325
I1393
aI2561
aI1286
aI3375
aI313
aa(lp1326
I1293
aI2150
aI566
aI1652
aI1825
aa(lp1327
I3438
aI1580
aI2561
aI2540
aI2783
aa(lp1328
I1797
aI2561
aI2245
aI572
aI1158
aI243
aI50
aI2561
aI1136
aI1366
aI1707
aI2129
aa(lp1329
I1797
aI2561
aI2245
aI572
aI1416
aI243
aI50
aI2561
aI638
aa(lp1330
I539
aI2769
aI501
aa(lp1331
I798
aI748
aI1420
aa(lp1332
I1412
aI3265
aI1148
aI243
aI431
aI272
aa(lp1333
I3361
aI1580
aa(lp1334
I1342
aa(lp1335
I3181
aI1178
aI862
aI290
aa(lp1336
I80
aI1071
aI3367
aI431
aI3420
aI572
aI3343
aI2781
aI2490
aI414
aI3332
aI545
aa(lp1337
I129
aI748
aI1595
aI2561
aI156
aI2367
aI161
aa(lp1338
I1243
aI414
aI152
aI129
aI748
aI3012
aa(lp1339
I1797
aI2561
aI2245
aI572
aI2439
aI243
aI50
aI2561
aI1569
aI2530
aI2561
aI1976
aI582
aI1652
aI1895
aa(lp1340
I80
aI3438
aI2561
aI2365
aI1242
aa(lp1341
I2657
aI1393
aI2561
aI3192
aa(lp1342
I80
aI3171
aI1853
aI626
aI2875
aa(lp1343
I1615
aI113
aI1207
aI2518
aa(lp1344
I2367
aI1652
aI2565
aI3174
aI1486
aI2032
aa(lp1345
I1557
aI414
aI1404
aa(lp1346
I1088
aI862
aI227
aI2781
aI2002
aI2808
aI1038
aI626
aI3264
aa(lp1347
I273
aI626
aI266
aa(lp1348
I1857
aI2561
aI1605
aI1867
aa(lp1349
I2245
aI572
aI2620
aI243
aI50
aI2561
aI638
aa(lp1350
I3036
aI3265
aI3076
aI2417
aI3231
aa(lp1351
I723
aI1207
aI1312
aa(lp1352
I1227
aI626
aI1933
aI1728
aa(lp1353
I561
aI1655
aI952
aI566
aI2781
aI858
aI2304
aa(lp1354
I1008
aI2462
aI1008
aI626
aI1100
aI2668
aa(lp1355
I1857
aI2561
aI1671
aI2781
aI2923
aI3203
aI631
aI752
aI423
aI572
aI572
aI572
aI2923
aa(lp1356
I80
aI3413
aI2561
aI1830
aa(lp1357
I80
aI3438
aI2561
aI872
aI1059
aI2935
aa(lp1358
I80
aI3438
aI2561
aI1207
aI3063
aa(lp1359
I80
aI3438
aI2561
aI895
aa(lp1360
I80
aI3438
aI2561
aI1207
aI969
aI752
aI3382
aI2875
aa(lp1361
I80
aI3438
aI2561
aI1271
aa(lp1362
I80
aI3438
aI2561
aI1242
aI752
aI1541
aI349
aa(lp1363
I80
aI3438
aI2561
aI455
aa(lp1364
I80
aI3438
aI2561
aI3264
aI2875
aa(lp1365
I1484
aI2781
aI1207
aI557
aI1183
aa(lp1366
I1621
aI1117
aI1864
aI2879
aI301
aI1175
aI2879
aI3096
aI1709
aa(lp1367
I2050
aI626
aI1234
aI557
aI3326
aa(lp1368
I80
aI356
aI748
aI501
aI1141
aa(lp1369
I80
aI3413
aI2561
aI1081
aa(lp1370
I829
aI2317
aI3219
aI1290
aa(lp1371
I2221
aI41
aI626
aI1771
aI557
aI714
aI2263
aa(lp1372
I735
aI74
aI2687
aI626
aI235
aI2561
aI775
aI414
aI395
aI1789
aI2296
aI1273
aI1145
aI2312
aa(lp1373
I1133
aI414
aI1184
aI1486
aI2317
aI3219
aa(lp1374
I1421
aI1235
aI273
aa(lp1375
I1857
aI2561
aI2917
aa(lp1376
I1857
aI2561
aI2245
aI572
aI1179
aI1207
aI3131
aa(lp1377
I1797
aI2561
aI2245
aI572
aI1416
aI243
aI3152
aI3358
aa(lp1378
I1797
aI2561
aI2245
aI572
aI2620
aI243
aI50
aI2561
aI638
aa(lp1379
I638
aa(lp1380
I50
aI2561
aI273
aI626
aI2581
aI266
aa(lp1381
I1797
aI2561
aI1741
aI572
aI1125
aI1531
aI1647
aa(lp1382
I1596
aI3383
aI1788
aI414
aI1589
aa(lp1383
I2778
aI2561
aI3222
aI414
aI2009
aI243
aI3055
aI414
aI2145
aI557
aI3055
aI414
aI646
aa(lp1384
I1081
aI198
aI1276
aI867
aa(lp1385
I1393
aI2781
aI1619
aI1652
aI2760
aa(lp1386
I625
aI2781
aI3088
aI2490
aa(lp1387
I2118
aI2544
aI572
aI625
aI572
aI525
aI1254
aa(lp1388
I414
aI2605
aI748
aI1825
aa(lp1389
I193
aI2136
aa(lp1390
I2991
aI129
aI2561
aI1656
aI2923
aI152
aI752
aI278
aI2923
aI152
aI1484
aI2781
aI791
aI1774
aa(lp1391
I1484
aI626
aI1350
aI2493
aI626
aI673
aI2875
aa(lp1392
I694
aI2668
aI1484
aa(lp1393
I646
aI1207
aI2673
aI2032
aa(lp1394
I1825
aI2116
aa(lp1395
I161
aI185
aI1737
aI3248
aI189
aI2403
aa(lp1396
I1234
aI1010
aI2781
aI431
aI2317
aa(lp1397
I2934
aI2183
aI990
aI566
aa(lp1398
I1797
aI2561
aI918
aI2923
aI152
aI414
aI129
aI748
aI931
aa(lp1399
I2778
aI2561
aI1559
aI550
aI1652
aI2875
aI466
aa(lp1400
I1136
aI1366
aI1707
aI2129
aa(lp1401
I1857
aI2561
aI2923
aI3258
aI869
aI2443
aI1802
aI572
aI2923
aI2772
aI2923
aI578
aI2923
aa(lp1402
I80
aI3413
aI626
aI1271
aI243
aI3144
aI243
aI2772
aI2839
aI1652
aI2668
aa(lp1403
I80
aI3413
aI626
aI455
aI557
aI895
aa(lp1404
I80
aI1360
aI626
aI3128
aa(lp1405
I80
aI3438
aI2781
aI431
aI1364
aI1652
aI403
aI2095
aI2875
aa(lp1406
I80
aI3438
aI2561
aI2442
aI2091
aI626
aI2875
aa(lp1407
I1484
aI2781
aI221
aI626
aI1207
aI418
aI243
aI396
aI557
aI969
aa(lp1408
I3413
aI2781
aI1271
aa(lp1409
I3413
aI2781
aI1486
aI1193
aa(lp1410
I804
aI1943
aI2367
aa(lp1411
I2264
aI1830
aI1584
aI3076
aI2060
aI1584
aI3231
aa(lp1412
I69
aI2787
aa(lp1413
I3052
aI557
aI731
aI2040
aa(lp1414
I1963
aI1484
aI2561
aI2991
aI129
aI748
aI1996
aa(lp1415
I2318
aI2923
aI142
aa(lp1416
I1234
aI626
aI431
aI2821
aI2153
aI566
aa(lp1417
I3010
aI1484
aa(lp1418
I1182
aI2544
aI625
aI2781
aI2363
aI557
aI3315
aI1652
aI3387
aI2351
aa(lp1419
I72
aI626
aI1207
aI1472
aI572
aa(lp1420
I80
aI3438
aI2561
aI1242
aI243
aI1830
aa(lp1421
I3413
aI2781
aI3144
aa(lp1422
I1089
aI1652
aI3264
aa(lp1423
I2188
aI2476
aI1852
aI2348
aa(lp1424
I940
aa(lp1425
I2136
aI979
aa(lp1426
I2921
aI3399
aI2781
aI588
aI1193
aa(lp1427
I3227
aI2875
aa(lp1428
I391
aI2875
aa(lp1429
I506
aa(lp1430
I1804
aI2561
aI1234
aI626
aI418
aa(lp1431
I80
aI3413
aI2561
aI2713
aI1207
aI2038
aa(lp1432
I2543
aI1271
aa(lp1433
I754
aI2625
aI557
aI3053
aI3092
aa(lp1434
I351
aa(lp1435
I646
aI566
aI520
aI2989
aI143
aa(lp1436
I2100
aI1089
aI1652
aI3264
aa(lp1437
I1081
aa(lp1438
I2312
aI748
aI1420
aI2561
aI1271
aI243
aI1421
aI2429
aI243
aI2305
aI273
aa(lp1439
I323
aI1484
aI2561
aI1421
aI1271
aI626
aI2336
aa(lp1440
I3361
aI1652
aI1207
aI557
aI2875
aI2503
aI1279
aI572
aI1248
aI3076
aI1154
aI414
aI3446
aI161
aI3231
aa(lp1441
I1486
aI1193
aa(lp1442
I449
aI557
aI1203
aa(lp1443
I80
aI2800
aI2561
aI1004
aI2668
aa(lp1444
I566
aI2781
aI3326
aI752
aI1344
aI1629
aI1207
aa(lp1445
I65
aI129
aI748
aI931
aI748
aI16
aI2923
aI143
aa(lp1446
I323
aI2923
aI143
aI3248
aI2226
aI414
aI561
aI2706
aa(lp1447
I217
aI3262
aI2281
aI1830
aI1484
aa(lp1448
I221
aI626
aI1207
aI418
aI243
aI396
aI557
aI969
aa(lp1449
I2876
aI2923
aI143
aI414
aI129
aI748
aI931
aa(lp1450
I2336
aI142
aI414
aI1219
aI129
aI748
aI1595
aa(lp1451
I2325
aI2706
aI2561
aI1655
aI1289
aI2923
aI142
aI414
aI1319
aI2781
aI3282
aa(lp1452
I3413
aI2781
aI3382
aI2875
aa(lp1453
I465
aI414
aI2065
aa(lp1454
I946
aI2875
aI557
aI2136
aa(lp1455
I271
aI455
aI1484
aI1722
aI1593
aa(lp1456
I416
aI3076
aI987
aI1590
aI1652
aI2543
aI2568
aI143
aI3231
aa(lp1457
I1484
aI2781
aI2913
aa(lp1458
I1130
aI2875
aI2916
aI160
aa(lp1459
I2825
aI142
aI566
aa(lp1460
I199
aI557
aI751
aI414
aI2413
aI2561
aI2095
aI3264
aa(lp1461
I80
aI126
aI3438
aI2561
aI455
aI414
aI1271
aa(lp1462
I80
aI126
aI3438
aI2561
aI1291
aI2625
aI557
aI2278
aa(lp1463
I80
aI3413
aI2769
aI126
aI2561
aI455
aa(lp1464
I80
aI3438
aI2769
aI126
aI2561
aI1271
aa(lp1465
I2971
aI924
aa(lp1466
I80
aI3413
aI2769
aI126
aI2561
aI396
aI557
aI2518
aa(lp1467
I80
aI3438
aI2769
aI126
aI2561
aI1830
aI414
aI455
aI3165
aa(lp1468
I2823
aI2561
aI455
aI243
aI1271
aI557
aI3144
aa(lp1469
I3244
aI1652
aI1207
aI1741
aI572
aI1058
aa(lp1470
I1421
aI1780
aI40
aa(lp1471
I2921
aI2069
aI1652
aI3160
aI3361
aI414
aI3240
aI1364
aI2493
aI626
aI1341
aa(lp1472
I3145
aI924
aI566
aI3120
aa(lp1473
I52
aa(lp1474
I2157
aI142
aI129
aI748
aI1595
aa(lp1475
I544
aI566
aI129
aI748
aI1595
aa(lp1476
I852
aI875
aa(lp1477
I3438
aI2561
aI2829
aI477
aI1032
aI414
aI1008
aI2586
aI477
aI2239
aI104
aI1008
aa(lp1478
I3291
aI924
aI2597
aI1652
aI431
aI1486
aI2032
aI1652
aI2079
aa(lp1479
I2921
aI810
aI2561
aI1174
aI1484
aa(lp1480
I2720
aI1278
aI2561
aI2121
aI1484
aI2781
aI1207
aI1528
aa(lp1481
I1081
aI2772
aI2804
aI2875
aa(lp1482
I430
aI952
aI1425
aI414
aI1584
aa(lp1483
I889
aI959
aI572
aI1248
aI243
aI603
aI572
aI1058
aa(lp1484
I613
aI752
aI935
aI1652
aI302
aI243
aI1429
aI243
aI781
aI329
aa(lp1485
I3274
aI2923
aI143
aI243
aI2325
aI129
aI748
aI931
aa(lp1486
I1556
aI752
aI1656
aI1484
aI2781
aI2192
aI1071
aI322
aI2561
aI485
aa(lp1487
I2778
aI2561
aI1842
aI557
aI431
aI3117
aI2007
aa(lp1488
I3361
aI1652
aI2136
aI557
aI204
aa(lp1489
I1008
aI477
aI2890
aI572
aI852
aI1652
aI431
aI1484
aI2781
aI834
aI1008
aa(lp1490
I1797
aI2561
aI80
aI2981
aI748
aI2317
aa(lp1491
I1797
aI2561
aI928
aI748
aI576
aI2772
aI1346
aa(lp1492
I1484
aI1017
aI2973
aI2772
aI3146
aa(lp1493
I3438
aI2561
aI1341
aI2561
aI2442
aI2389
aa(lp1494
I561
aI2544
aI198
aI2781
aI916
aa(lp1495
I1484
aI2781
aI3100
aI165
aI2019
aI3076
aI129
aI748
aI1595
aI3231
aa(lp1496
I1008
aI1484
aI2781
aI2514
aI626
aI1383
aI1008
aa(lp1497
I2839
aI1652
aI2627
aa(lp1498
I455
aa(lp1499
I3421
aI273
aa(lp1500
I1271
aI752
aI455
aI414
aI1271
aI3165
aI752
aI1207
aI396
aa(lp1501
I1830
aI752
aI1242
aa(lp1502
I455
aI752
aI455
aI414
aI1271
aI3165
aa(lp1503
I455
aI752
aI2839
aI1652
aI2627
aa(lp1504
I455
aa(lp1505
I1271
aI752
aI455
aI414
aI1271
aI3165
aa(lp1506
I1271
aa(lp1507
I455
aa(lp1508
I80
aI3438
aI2561
aI2839
aI1652
aI1207
aa(lp1509
I1207
aI3203
aI1783
aI2772
aI1665
aI748
aI1207
aI414
aI414
aI2226
aI1722
aI2143
aI143
aa(lp1510
I385
aI414
aI3323
aI163
aI1484
aa(lp1511
I340
aI1484
aI2781
aI641
aI3076
aI607
aI143
aI3231
aa(lp1512
I108
aI561
aI129
aI748
aI1595
aa(lp1513
I129
aI748
aI3180
aI1209
aI3438
aI928
aa(lp1514
I1830
aI752
aI1242
aI1484
aa(lp1515
I1235
aI2940
aI1802
aI609
aI619
aa(lp1516
I2863
aI479
aI74
aI2942
aI2037
aI557
aI1654
aa(lp1517
I367
aI2561
aI2536
aI2245
aI572
aI1058
aI3076
aI161
aI3231
aa(lp1518
I367
aI2561
aI2714
aI1425
aI572
aI1058
aa(lp1519
I2136
aa(lp1520
I1299
aI414
aI553
aI2493
aI626
aI673
aI2568
aa(lp1521
I2536
aI2065
aI572
aI1248
aI3076
aI924
aI3231
aa(lp1522
I3361
aI1652
aI714
aI2019
aI2062
aa(lp1523
I2730
aI1635
aI2847
aI161
aI414
aI1182
aI129
aa(lp1524
I566
aI2781
aI431
aI2047
aI892
aa(lp1525
I2416
aI243
aI2036
aI243
aI557
aI2091
aa(lp1526
I165
aI2638
aI2923
aI142
aI2706
aa(lp1527
I2258
aI2296
aI1273
aI2561
aI2991
aI129
aI748
aI931
aa(lp1528
I3052
aI557
aI731
aI2040
aa(lp1529
I633
aI1112
aI3361
aI1652
aI595
aI2875
aa(lp1530
I2252
aI414
aI2991
aI129
aI748
aI931
aa(lp1531
I3403
aI752
aI1197
aI1652
aI302
aI625
aI414
aI2991
aa(lp1532
I1767
aI2561
aI1484
aI2781
aI2095
aI1137
aI2668
aI3076
aI957
aI3231
aa(lp1533
I1382
aI2014
aI1804
aa(lp1534
I1484
aI2781
aI863
aI97
aI658
aa(lp1535
I3426
aI414
aI959
aI129
aI748
aI931
aa(lp1536
I3121
aI1948
aI2561
aI1902
aI557
aI1501
aa(lp1537
I271
aI2875
aI2330
aI450
aI243
aI160
aa(lp1538
I129
aI2561
aI3257
aI1229
aI2518
aa(lp1539
I3428
aI566
aa(lp1540
I1441
aI2568
aa(lp1541
I1207
aI396
aI3076
aI2168
aI2923
aI152
aI3231
aa(lp1542
I561
aI413
aI2435
aI198
aa(lp1543
I80
aI3413
aI2781
aI3144
aa(lp1544
I80
aI3413
aI2781
aI687
aI714
aI2518
aa(lp1545
I2118
aI2544
aI625
aI2781
aI8
aI752
aI1100
aI2351
aa(lp1546
I433
aI2923
aI142
aa(lp1547
I1590
aI1652
aI916
aI626
aI431
aI2979
aI1603
aa(lp1548
I80
aI506
aI1360
aa(lp1549
I3413
aI2781
aI2136
aa(lp1550
I80
aI557
aI2426
aI2611
aI626
aI3187
aI2875
aa(lp1551
I80
aI557
aI2426
aI2611
aI626
aI455
aI2772
aI895
aa(lp1552
I2579
aI2772
aI3227
aI2875
aa(lp1553
I1081
aI2772
aI2804
aI2875
aa(lp1554
I940
aI2772
aI2574
aa(lp1555
I431
aI3264
aI1207
aa(lp1556
I2312
aI748
aI1420
aI2561
aI1830
aa(lp1557
I561
aI129
aI243
aI3145
aI160
aa(lp1558
I1293
aI778
aa(lp1559
I1621
aI1652
aI2410
aI430
aI952
aI1425
aI414
aI1741
aa(lp1560
I80
aI3438
aI2561
aI945
aI557
aI2395
aa(lp1561
I2312
aI748
aI1420
aI2561
aI1271
aI243
aI3144
aI243
aI455
aa(lp1562
I2312
aI748
aI1420
aI2561
aI455
aI557
aI895
aa(lp1563
I3343
aI2781
aI1736
aI2772
aI894
aI626
aI2875
aI161
aa(lp1564
I3421
aI273
aI243
aI2568
aI91
aa(lp1565
I3413
aI2561
aI449
aI2772
aI1203
aI243
aI3041
aI2568
aa(lp1566
I3438
aI2561
aI1242
aI3076
aI1379
aI3231
aa(lp1567
I1797
aI2561
aI3003
aa(lp1568
I32
aI566
aI2561
aI129
aI748
aI1595
aa(lp1569
I2857
aI2923
aI142
aa(lp1570
I2921
aI2069
aI3160
aI3361
aI752
aI3240
aI1364
aI2493
aI572
aI572
aI572
aa(lp1571
I1696
aI1804
aa(lp1572
I1649
aI235
aI1207
aI3229
aI536
aa(lp1573
I880
aI2915
aI1830
aa(lp1574
I124
aI414
aI1459
aI566
aa(lp1575
I2768
aI477
aI1538
aI142
aa(lp1576
I80
aI3438
aI2561
aI1288
aI2561
aI431
aI1830
aI1652
aI2401
aI2406
aa(lp1577
I80
aI3438
aI2561
aI3385
aI477
aI1069
aI2561
aI431
aI1690
aI2069
aI572
aa(lp1578
I367
aI2561
aI2804
aI2875
aI243
aI2503
aI572
aI3436
aI243
aI849
aI572
aI1248
aa(lp1579
I1767
aI2561
aI1150
aI550
aa(lp1580
I129
aI2561
aI433
aI1830
aI1484
aa(lp1581
I80
aI3438
aI2561
aI1207
aI396
aa(lp1582
I2818
aI979
aI3258
aa(lp1583
I80
aI3438
aI2561
aI714
aI2875
aa(lp1584
I80
aI3438
aI2561
aI1207
aI1505
aa(lp1585
I1645
aI543
aI1867
aI1645
aI1420
aI414
aI414
aI3258
aa(lp1586
I1645
aI543
aI1867
aI1645
aI1420
aI414
aI414
aI620
aa(lp1587
I2886
aI2923
aI143
aa(lp1588
I2264
aI1830
aI1584
aa(lp1589
I637
aa(lp1590
I431
aI1293
aI2330
aI952
aI566
aI2781
aI3144
aI557
aI1207
aI1472
aa(lp1591
I1129
aI595
aI2568
aa(lp1592
I566
aI2549
aI1248
aI414
aI1584
aI752
aI2065
aI752
aI161
aa(lp1593
I588
aI1193
aI1484
aa(lp1594
I367
aI2561
aI2875
aI2743
aI2561
aI1248
aI3076
aI161
aI3231
aI243
aI2743
aI2561
aI1425
aI3076
aI161
aI3231
aa(lp1595
I367
aI2561
aI714
aI2875
aI2412
aI2561
aI1058
aI3076
aI161
aI3231
aa(lp1596
I367
aI2561
aI736
aI572
aI3361
aI1652
aI431
aI745
aI1652
aI1207
aI3076
aI436
aI3231
aI531
aI243
aI3093
aI243
aI2868
aI3076
aI161
aI3231
aa(lp1597
I367
aI2561
aI431
aI1486
aI1420
aI1277
aI414
aI1058
aI3076
aI161
aI3231
aa(lp1598
I80
aI3413
aI2561
aI627
aI557
aI3187
aI273
aa(lp1599
I80
aI3413
aI2561
aI979
aI626
aI552
aI243
aI1207
aI557
aI1071
aa(lp1600
I960
aI3108
aI3248
aI566
aa(lp1601
I80
aI3413
aI2561
aI1271
aa(lp1602
I80
aI3413
aI2561
aI2543
aI2875
aa(lp1603
I80
aI3438
aI2561
aI63
aI2875
aa(lp1604
I80
aI3438
aI2561
aI895
aa(lp1605
I80
aI3438
aI2561
aI840
aI1207
aa(lp1606
I80
aI3438
aI2561
aI1004
aI1207
aa(lp1607
I80
aI3438
aI2561
aI2409
aI2432
aa(lp1608
I2793
aI2650
aI2923
aI143
aa(lp1609
I561
aI129
aI748
aI1595
aI2561
aI2944
aa(lp1610
I1758
aI129
aI748
aI468
aI928
aa(lp1611
I367
aI430
aI952
aI1425
aI414
aI1913
aI3076
aI379
aI581
aI2781
aI431
aI1939
aI1652
aI501
aI1952
aI3231
aa(lp1612
I1420
aI1652
aI540
aa(lp1613
I15
aI823
aa(lp1614
I2152
aI2923
aI143
aI2561
aI2991
aI129
aI748
aI931
aa(lp1615
I3413
aI2561
aI341
aa(lp1616
I80
aI3438
aI2561
aI3055
aI414
aI646
aI979
aa(lp1617
I80
aI3438
aI2561
aI1081
aa(lp1618
I80
aI3438
aI2561
aI2804
aI2875
aa(lp1619
I3438
aI2781
aI3009
aI557
aI3044
aI626
aI1207
aI2062
aa(lp1620
I367
aI2561
aI736
aI572
aI3361
aI1652
aI431
aI745
aI1652
aI1207
aI3076
aI436
aI3231
aI2867
aI3076
aI161
aI3231
aa(lp1621
I455
aI2561
aI3409
aI572
aI2242
aI243
aI1625
aI1722
aI431
aI3165
aa(lp1622
I1337
aI2412
aI129
aI748
aI1595
aa(lp1623
I3135
aI129
aI748
aI1595
aa(lp1624
I627
aI557
aI3187
aI273
aI243
aI455
aI557
aI1271
aa(lp1625
I1773
aI2561
aI129
aI748
aI1595
aa(lp1626
I2291
aa(lp1627
I566
aI2781
aI431
aI960
aI1819
aa(lp1628
I791
aI1774
aI414
aI414
aI2921
aI2069
aI1652
aI193
aI2136
aI3361
aa(lp1629
I627
aI3234
aI2875
aI414
aI2377
aI1056
aI1119
aa(lp1630
I2617
aI566
aI1580
aa(lp1631
I743
aI2875
aa(lp1632
I3128
aI752
aI3234
aI2568
aa(lp1633
I1081
aa(lp1634
I65
aI1207
aI23
aI2561
aI1429
aI243
aI244
aI2772
aI2409
aa(lp1635
I492
aI2568
aI625
aI143
aa(lp1636
I52
aa(lp1637
I60
aI2561
aI1207
aI1528
aI626
aI2713
aI1071
aI1987
aa(lp1638
I1464
aI557
aI598
aI979
aI1652
aI455
aI1652
aI596
aI8
aI2668
aa(lp1639
I2949
aI572
aI3409
aI572
aI923
aI243
aI1951
aa(lp1640
I455
aI243
aI1271
aI243
aI2772
aI714
aI2875
aa(lp1641
I101
aI572
aI1519
aI243
aI1552
aI826
aa(lp1642
I1253
aI2991
aI1580
aa(lp1643
I129
aI2561
aI1130
aI2875
aI2916
aI160
aa(lp1644
I927
aI2330
aI590
aI566
aI2781
aI687
aI679
aI2518
aa(lp1645
I987
aI1590
aI1652
aI2543
aI2875
aI3076
aI1785
aI2923
aI143
aI3231
aa(lp1646
I3258
aI572
aI2828
aI243
aI3411
aI275
aI2923
aI2990
aI3071
aI1891
aI624
aI441
aI336
aI3358
aa(lp1647
I2949
aI572
aI1613
aI243
aI3094
aI1162
aI2859
aI1601
aa(lp1648
I981
aI1076
aI2781
aI3330
aI2036
aa(lp1649
I1945
aa(lp1650
I2823
aI2561
aI455
aI243
aI1271
aI557
aI3144
aa(lp1651
I3117
aI2712
aI1207
aI1472
aa(lp1652
I2727
aI2923
aI143
aI2561
aI1546
aI1788
aI748
aI3012
aa(lp1653
I566
aI2781
aI1207
aI968
aI3229
aa(lp1654
I952
aI1421
aI3382
aI273
aI625
aa(lp1655
I1656
aI2923
aI142
aI468
aI2991
aI2706
aa(lp1656
I2324
aI572
aI1609
aI572
aI3322
aI3159
aI243
aI455
aa(lp1657
I1738
aI129
aI748
aI1595
aa(lp1658
I129
aI748
aI1595
aa(lp1659
I1271
aa(lp1660
I457
aI2923
aI142
aa(lp1661
I692
aI2781
aI2980
aa(lp1662
I1835
aI485
aI243
aI129
aI748
aI928
aa(lp1663
I2706
aI2561
aI314
aI748
aI694
aI964
aa(lp1664
I3224
aI2875
aI2782
aI1804
aa(lp1665
I1484
aI2781
aI1207
aI969
aI626
aI235
aI557
aI596
aI75
aa(lp1666
I1207
aI3063
aI557
aI1207
aI2659
aa(lp1667
I367
aI2561
aI3361
aI1652
aI1100
aI2668
aI557
aI2875
aI3076
aI2860
aI3231
aI1280
aI2561
aI1058
aI3076
aI161
aI3231
aa(lp1668
I431
aI1486
aI1420
aI1277
aI752
aI1248
aI414
aI1425
aI3076
aI161
aI3231
aI2921
aI2069
aI2561
aI220
aI455
aa(lp1669
I430
aI952
aI1425
aI414
aI2065
aa(lp1670
I3144
aI2561
aI438
aI572
aI1225
aI2561
aI1008
aI186
aI2515
aI1473
aI3358
aI1008
aa(lp1671
I1811
aI1263
aI243
aI431
aI1199
aI1652
aI2334
aa(lp1672
I2579
aI557
aI595
aI2875
aa(lp1673
I3234
aI2668
aa(lp1674
I1484
aI2781
aI431
aI1939
aI1652
aI2875
aa(lp1675
I2825
aI142
aI2561
aI1976
aI566
aI1430
aI2416
aI243
aI2875
aI243
aI557
aI244
aa(lp1676
I552
aI557
aI113
aI1207
aI1271
aa(lp1677
I3234
aI2668
aa(lp1678
I798
aI748
aI1420
aI2561
aI455
aI243
aI2530
aa(lp1679
I798
aI748
aI1420
aI2561
aI455
aI243
aI2037
aI243
aI1271
aa(lp1680
I3117
aI2712
aI1472
aI1652
aI960
aI3076
aI2921
aI3116
aI1652
aI1008
aI129
aI1008
aI3231
aa(lp1681
I1207
aI2673
aI2772
aI2297
aI1484
aa(lp1682
I798
aI748
aI1420
aI2561
aI1207
aI396
aa(lp1683
I3438
aI2561
aI368
aI2875
aI2561
aI1718
aI2117
aI1802
aa(lp1684
I3248
aI1122
aI1652
aI2875
aI626
aI1750
aa(lp1685
I1541
aI1958
aI752
aI2370
aI1726
aa(lp1686
I1090
aI3420
aI572
aI1484
aI2781
aI786
aI1695
aI2561
aI3045
aI1580
aa(lp1687
I391
aI2568
aI243
aI1939
aI1652
aI2568
aa(lp1688
I3040
aI2875
aa(lp1689
I987
aI1590
aI1652
aI2543
aI2875
aI3076
aI1785
aI2923
aI143
aI3231
aa(lp1690
I798
aI748
aI1420
aI2561
aI2550
aI243
aI2395
aI243
aI1544
aI243
aI2334
aa(lp1691
I627
aI2875
aI1722
aI2902
aI1664
aI3437
aa(lp1692
I1791
aI243
aI3022
aI243
aI557
aI2873
aI2072
aI626
aI2713
aI2336
aa(lp1693
I2543
aI2875
aa(lp1694
I591
aI1207
aI2062
aI100
aI129
aI748
aI1595
aa(lp1695
I602
aI3225
aI2627
aI572
aI625
aI572
aa(lp1696
I952
aI566
aI2781
aI2162
aa(lp1697
I2961
aI8
aI2668
aI2432
aI1039
aa(lp1698
I80
aI3438
aI2561
aI2627
aI396
aa(lp1699
I3361
aI1776
aI3076
aI129
aI3231
aI414
aI1260
aI1776
aI3076
aI1018
aI3231
aa(lp1700
I1484
aI2781
aI2370
aI557
aI2037
aa(lp1701
I2234
aI579
aI626
aI1028
aI414
aI3072
aI164
aI1652
aI271
aI455
aI3076
aI1248
aI572
aI2706
aI3231
aa(lp1702
I1484
aI2781
aI2182
aa(lp1703
I760
aI2875
aa(lp1704
I3187
aI557
aI2579
aI2875
aa(lp1705
I1188
aI1790
aa(lp1706
I1207
aI557
aI2283
aa(lp1707
I2490
aI557
aI3073
aI2593
aa(lp1708
I113
aI1207
aI2518
aa(lp1709
I714
aI979
aI626
aI832
aa(lp1710
I2825
aI142
aI2561
aI1976
aI566
aI1430
aI2416
aI243
aI2875
aI243
aI2772
aI244
aa(lp1711
I1420
aI1652
aI1392
aI414
aI1810
aI979
aI2006
aa(lp1712
I1930
aI2561
aI1718
aI952
aI3361
aI1652
aI188
aI2062
aa(lp1713
I367
aI2561
aI1939
aI1652
aI1207
aI1584
aI572
aI1248
aa(lp1714
I1219
aI2069
aI1652
aI1207
aI557
aI2875
aa(lp1715
I2047
aI892
aa(lp1716
I430
aI952
aI1425
aI2561
aI1058
aa(lp1717
I3438
aI2781
aI2785
aI1454
aa(lp1718
I3187
aI2875
aI557
aI2819
aI2095
aI1207
aa(lp1719
I193
aI2136
aa(lp1720
I1234
aI2032
aI1652
aI595
aI2875
aa(lp1721
I2073
aI2788
aI1652
aI1200
aa(lp1722
I708
aI3429
aa(lp1723
I1089
aI1652
aI3264
aa(lp1724
I2192
aI472
aI3076
aI2212
aI696
aI3340
aI3231
aa(lp1725
I278
aI2923
aI142
aI3248
aI2706
aa(lp1726
I525
aI1254
aa(lp1727
I1008
aI1998
aI243
aI802
aI243
aI2916
aI1008
aI3076
aI2562
aI243
aI160
aI752
aI2343
aI752
aI2845
aI3231
aa(lp1728
I2977
aI2923
aI143
aa(lp1729
I627
aI760
aI2504
aa(lp1730
I2991
aI129
aI2561
aI2020
aI2568
aI572
aI550
aa(lp1731
I552
aI243
aI1207
aI243
aI557
aI1071
aI752
aI1753
aa(lp1732
I1235
aI2940
aI1802
aI1207
aI396
aa(lp1733
I561
aI2330
aI2543
aI2875
aI2062
aI550
aa(lp1734
I1486
aI1193
aI626
aI584
aI646
aI2668
aI3076
aI1468
aI3231
aa(lp1735
I1421
aI1271
aI1484
aI414
aI414
aI323
aI2923
aI142
aa(lp1736
I1607
aI1045
aI3072
aI2019
aa(lp1737
I1536
aI1207
aI557
aI1486
aI2916
aa(lp1738
I1415
aI2579
aI2875
aI2197
aI2311
aI2330
aI2367
aI2561
aI991
aI2706
aa(lp1739
I892
aa(lp1740
I566
aI2781
aI483
aI2668
aa(lp1741
I1207
aI1528
aI626
aI2713
aI1071
aI1987
aa(lp1742
I2823
aI626
aI760
aI2668
aa(lp1743
I2377
aI143
aI129
aI748
aI1595
aI3076
aI911
aI1652
aI595
aI2875
aI3231
aa(lp1744
I2409
aI979
aI414
aI129
aI748
aI1595
aa(lp1745
I430
aI952
aI2503
aI1425
aI243
aI2069
aI2245
aa(lp1746
I1976
aI572
aI2651
aI243
aI34
aI2393
aa(lp1747
I2229
aI752
aI1830
aI2561
aI1281
aI572
aI3345
aI243
aI3289
aI335
aa(lp1748
I80
aI3361
aI1008
aI1207
aI557
aI1541
aI1008
aa(lp1749
I566
aI2781
aI3224
aI1341
aa(lp1750
I1354
aI2330
aI1737
aI1220
aI2032
aI1722
aI431
aI1770
aI572
aI1652
aI2020
aI572
aa(lp1751
I2668
aI626
aI418
aa(lp1752
I552
aI2875
aI557
aI1071
aa(lp1753
I15
aI557
aI1769
aI1207
aI752
aI193
aI2136
aa(lp1754
I3149
aI566
aI2781
aI2875
aa(lp1755
I1271
aI752
aI455
aI2561
aI641
aI626
aI3245
aa(lp1756
I65
aI1207
aI396
aa(lp1757
I1100
aI1207
aI2032
aI1652
aI1074
aI1900
aa(lp1758
I1504
aI3261
aI1652
aI1937
aI1541
aa(lp1759
I607
aI698
aa(lp1760
I1207
aI557
aI1541
aI243
aI2503
aI3281
aI849
aI1248
aa(lp1761
I1271
aI2722
aI1976
aI299
aI1193
aI1652
aI506
aI243
aI401
aI2679
aa(lp1762
I2774
aI2935
aI243
aI901
aI2137
aI2752
aa(lp1763
I1219
aI2069
aI1652
aI1207
aI557
aI2875
aa(lp1764
I710
aI3438
aI1420
aa(lp1765
I1242
aI557
aI1830
aa(lp1766
I3144
aI752
aI1546
aI1788
aa(lp1767
I520
aI2989
aa(lp1768
I1207
aI243
aI145
aI243
aI557
aI2283
aa(lp1769
I2579
aI243
aI3227
aI243
aI557
aI595
aI2875
aa(lp1770
I15
aI823
aa(lp1771
I1420
aI2561
aI1500
aI2561
aI1334
aI1101
aa(lp1772
I2409
aI979
aa(lp1773
I431
aI2297
aI1652
aI786
aI2019
aa(lp1774
I3387
aI2668
aI626
aI2396
aI572
aI1725
aI2772
aI683
aa(lp1775
I3235
aI2923
aI143
aI1963
aI1484
aI2561
aI1219
aI129
aI748
aI1996
aa(lp1776
I2804
aI2875
aI243
aI2503
aI572
aI3436
aI243
aI849
aI572
aI1425
aa(lp1777
I1255
aI1997
aI431
aI2541
aI243
aI1693
aI1976
aI572
aI1755
aa(lp1778
I1976
aI2899
aI527
aI1802
aI635
aI2644
aI1313
aI243
aI3290
aI270
aa(lp1779
I1892
aI1927
aI557
aI2955
aI2432
aI243
aI1419
aI1705
aa(lp1780
I3144
aI1652
aI1616
aI847
aI243
aI3371
aI1976
aI572
aI259
aa(lp1781
I1949
aI1254
aI626
aI1617
aI2561
aI3447
aI557
aI969
aI626
aI732
aI1091
aa(lp1782
I65
aI1207
aI1472
aI164
aI243
aI1281
aI572
aI2387
aI557
aI2794
aI572
aI912
aa(lp1783
I3171
aI996
aI1595
aI626
aI2875
aI243
aI2503
aI1584
aI243
aI161
aa(lp1784
I3382
aI1830
aI243
aI3280
aI3285
aa(lp1785
I2765
aI3336
aI3019
aI3405
aI243
aI1634
aI1380
aa(lp1786
I3438
aI1420
aa(lp1787
I2032
aI748
aI2543
aI2875
aa(lp1788
I1484
aI2781
aI716
aI414
aI1421
aI2115
aa(lp1789
I714
aI2875
aI2412
aI2561
aI1248
aI3076
aI161
aI3231
aI243
aI2412
aI2561
aI1425
aI3076
aI161
aI3231
aa(lp1790
I567
aI439
aI3076
aI2802
aI2668
aI752
aI1479
aI1900
aI3231
aa(lp1791
I431
aI2364
aI3324
aI1652
aI3043
aI1462
aa(lp1792
I2101
aI1274
aI2561
aI1248
aI3076
aI161
aI3231
aa(lp1793
I159
aI3399
aI1741
aI572
aI1058
aI3076
aI852
aI1652
aI766
aI1449
aI3231
aa(lp1794
I1797
aI2561
aI1851
aI1882
aI862
aI1420
aa(lp1795
I2543
aI2875
aI752
aI3246
aI1753
aa(lp1796
I1459
aI455
aI566
aI2772
aI895
aI1484
aa(lp1797
I2543
aI2875
aI752
aI576
aa(lp1798
I2543
aI2875
aI752
aI3187
aI557
aI1764
aI1011
aa(lp1799
I714
aI2875
aa(lp1800
I1459
aI455
aI557
aI895
aa(lp1801
I2625
aI557
aI1516
aI626
aI2668
aI1652
aI431
aI2094
aa(lp1802
I1389
aI1677
aI557
aI2899
aI163
aa(lp1803
I3438
aI2561
aI3264
aI2306
aa(lp1804
I430
aI952
aa(lp1805
I1207
aI396
aI557
aI1207
aI1889
aa(lp1806
I3248
aI566
aa(lp1807
I1875
aI996
aI1595
aI626
aI2875
aI557
aI1242
aa(lp1808
I455
aI752
aI1271
aI1652
aI2978
aI1887
aa(lp1809
I1486
aI1193
aI557
aI2543
aI2875
aa(lp1810
I714
aI1927
aI566
aa(lp1811
I1071
aI557
aI1668
aI1528
aa(lp1812
I1783
aa(lp1813
I595
aI2875
aI243
aI23
aI3225
aI1207
aa(lp1814
I566
aI1804
aI3076
aI2568
aI572
aI1640
aI572
aI2772
aI51
aI572
aI2568
aI572
aI3231
aa(lp1815
I806
aI414
aI2086
aI1949
aI2625
aI273
aa(lp1816
I1783
aI752
aI520
aI2989
aI557
aI3344
aa(lp1817
I1271
aI2561
aI438
aI572
aI2532
aI243
aI6
aI2770
aI2781
aI532
aI780
aa(lp1818
I2538
aI2561
aI438
aI572
aI1906
aI3133
aI243
aI342
aI1427
aI2134
aI2561
aI2095
aI1664
aI1211
aa(lp1819
I678
aI566
aI1580
aa(lp1820
I2618
aI752
aI2467
aI2875
aI198
aa(lp1821
I161
aI3145
aI2561
aI1257
aI431
aI1357
aI1427
aI1242
aI557
aI1830
aa(lp1822
I760
aI2668
aa(lp1823
I258
aI2940
aI1802
aI1164
aI1327
aa(lp1824
I561
aI129
aI2561
aI271
aI2875
aI2330
aI625
aa(lp1825
I67
aI646
aI1351
aI1484
aa(lp1826
I1391
aI752
aI760
aI2668
aa(lp1827
I15
aI2875
aI2722
aI1691
aI3091
aI1652
aI2255
aI668
aa(lp1828
I455
aI414
aI1271
aI1484
aa(lp1829
I2234
aI2062
aI626
aI1207
aa(lp1830
I2543
aI2875
aa(lp1831
I220
aI2875
aa(lp1832
I2815
aI2875
aa(lp1833
I3089
aI2875
aI414
aI3187
aI2772
aI1764
aI1011
aa(lp1834
I2875
aI2032
aI1652
aI2735
aI1720
aa(lp1835
I2543
aI2875
aa(lp1836
I2902
aI1652
aI3396
aI1371
aI243
aI2494
aI550
aa(lp1837
I3438
aI2781
aI2785
aI1454
aa(lp1838
I3438
aI1420
aI3076
aI474
aI3231
aI2561
aI2781
aI431
aI297
aI1652
aI533
aI414
aI2441
aa(lp1839
I3363
aI2928
aI2916
aI566
aa(lp1840
I2312
aI748
aI1420
aI2561
aI2774
aI2935
aI243
aI1830
aa(lp1841
I2312
aI748
aI1420
aI2561
aI1271
aa(lp1842
I2312
aI748
aI1420
aI2561
aI455
aI243
aI3144
aI243
aI900
aa(lp1843
I1305
aI1783
aI198
aa(lp1844
I1207
aI1127
aI1722
aI431
aI2269
aa(lp1845
I2108
aI1486
aI2367
aI160
aa(lp1846
I3374
aI752
aI73
aI1722
aI1194
aI160
aI2561
aI129
aI748
aI1595
aa(lp1847
I370
aI129
aI748
aI931
aa(lp1848
I2812
aI2624
aI2875
aI2916
aI752
aI1753
aa(lp1849
I2753
aI1207
aI557
aI2875
aI2916
aa(lp1850
I729
aa(lp1851
I591
aI1207
aI411
aI160
aa(lp1852
I431
aI3130
aI3173
aI2561
aI2073
aI1171
aI2769
aI732
aI1802
aI403
aI3264
aa(lp1853
I431
aI422
aI1652
aI1887
aI2561
aI1976
aI1787
aI3382
aI527
aI1802
aI432
aa(lp1854
I1393
aI2237
aI2561
aI2728
aI965
aI2757
aa(lp1855
I1472
aI1997
aI1207
aI626
aI1596
aI1217
aa(lp1856
I1090
aI2544
aI572
aI198
aI2781
aI1892
aI1668
aI3076
aI3085
aI3231
aa(lp1857
I332
aI2636
aI35
aI2923
aI793
aI1020
aI866
aa(lp1858
I575
aI1113
aI626
aI2574
aa(lp1859
I1656
aI2923
aI142
aI2032
aI748
aI2543
aI2875
aI752
aI1484
aI928
aa(lp1860
I2875
aI2743
aI2561
aI1584
aI3076
aI161
aI3231
aa(lp1861
I431
aI1486
aI1420
aI1277
aI2561
aI1584
aI3076
aI161
aI3231
aa(lp1862
I80
aI557
aI2426
aI2611
aI626
aI455
aI557
aI895
aI2769
aI2029
aI2577
aa(lp1863
I1271
aI243
aI3144
aI243
aI2772
aI2839
aI1652
aI2668
aI2769
aI2029
aI2577
aa(lp1864
I3187
aI2875
aI2769
aI2029
aI2902
aI3311
aa(lp1865
I1242
aI2772
aI1830
aI2769
aI2029
aI2902
aI3311
aa(lp1866
I408
aI2772
aI2804
aI2875
aI2769
aI2029
aI2577
aa(lp1867
I2312
aI748
aI1420
aa(lp1868
I585
aI142
aI2561
aI1219
aI129
aI748
aI1595
aa(lp1869
I413
aI2772
aI3218
aI414
aI1686
aI663
aI752
aI3234
aI2568
aI572
aa(lp1870
I2711
aI1486
aI2916
aa(lp1871
I2936
aI626
aI3277
aI366
aa(lp1872
I2731
aI2939
aI487
aI3067
aI1095
aI1175
aI1397
aI1806
aa(lp1873
I129
aI748
aI931
aI1538
aI160
aa(lp1874
I2278
aI243
aI2088
aI214
aI557
aI1188
aI1271
aI2722
aI2016
aI243
aI651
aa(lp1875
I2875
aI2743
aI2561
aI1741
aI3076
aI161
aI3231
aI243
aI2743
aI2561
aI1913
aI3076
aI161
aI3231
aa(lp1876
I736
aI572
aI3361
aI1652
aI431
aI745
aI1652
aI1207
aI3076
aI436
aI3231
aI2866
aI3076
aI161
aI3231
aa(lp1877
I2043
aI477
aI2576
aI414
aI224
aI232
aI2503
aI572
aI2006
aI243
aI882
aI3076
aI161
aI3231
aa(lp1878
I1207
aI557
aI2040
aa(lp1879
I1008
aI193
aI1472
aI748
aI1071
aI1463
aI1008
aI1484
aI1722
aI2683
aa(lp1880
I3248
aI566
aI626
aI2875
aa(lp1881
I1081
aI198
aI2637
aa(lp1882
I1420
aI2561
aI1263
aI243
aI431
aI1199
aI1652
aI2334
aI572
aa(lp1883
I2768
aI477
aI2576
aa(lp1884
I113
aI1207
aI2518
aa(lp1885
I2312
aI748
aI1420
aa(lp1886
I565
aI2884
aI243
aI2503
aI722
aI3076
aI161
aI3231
aa(lp1887
I1486
aI1300
aI557
aI1892
aI642
aI243
aI874
aI2503
aI572
aI479
aa(lp1888
I1420
aI2561
aI919
aI2561
aI2305
aI273
aI595
aa(lp1889
I736
aI572
aI3361
aI1652
aI431
aI745
aI1652
aI1207
aI3076
aI436
aI3231
aI3098
aI3076
aI161
aI3231
aa(lp1890
I2095
aI3361
aI1652
aI271
aI2875
aI243
aI1274
aI572
aI1058
aa(lp1891
I1081
aa(lp1892
I851
aI1292
aI747
aI2561
aI1976
aI1833
aI626
aI1908
aI3144
aI243
aI3409
aI572
aI275
aI572
aI96
aa(lp1893
I80
aI2800
aI2769
aI431
aI2566
aI2875
aa(lp1894
I367
aI2561
aI2714
aa(lp1895
I129
aI2561
aI2109
aI414
aI1584
aa(lp1896
I714
aI895
aa(lp1897
I889
aI959
aI572
aI1058
aI243
aI603
aI572
aI1248
aI617
aI2312
aI3076
aI1883
aI3231
aa(lp1898
I561
aI3402
aI1994
aI1484
aa(lp1899
I2991
aI129
aI2561
aI1398
aI414
aI1484
aI368
aI2986
aa(lp1900
I1207
aI3364
aa(lp1901
I15
aI2668
aI2772
aI2875
aI414
aI1788
aI969
aa(lp1902
I1070
aI2923
aI143
aI414
aI414
aI2543
aI2875
aa(lp1903
I1884
aI273
aa(lp1904
I431
aI2819
aI2844
aa(lp1905
I561
aI1580
aI2998
aa(lp1906
I561
aI2706
aI2561
aI355
aI2921
aI2069
aa(lp1907
I1656
aI1484
aI2781
aI380
aI1071
aI322
aa(lp1908
I1090
aI952
aI198
aI2781
aI1892
aI1668
aI414
aI414
aI3085
aa(lp1909
I1976
aI1484
aI2781
aI3060
aI243
aI1541
aI557
aI1070
aI3076
aI2881
aI2923
aI143
aI3231
aa(lp1910
I242
aI550
aI2781
aI1594
aI557
aI3454
aI414
aI1036
aa(lp1911
I217
aI3262
aI2281
aI1830
aI1484
aa(lp1912
I561
aI129
aI748
aI1595
aI2561
aI291
aa(lp1913
I129
aI748
aI1595
aI2561
aI52
aa(lp1914
I2258
aI2296
aI1913
aI2561
aI129
aI748
aI2665
aI346
aI1595
aa(lp1915
I590
aI2923
aI143
aI566
aa(lp1916
I109
aI3073
aI243
aI2933
aI1355
aI557
aI1861
aI1071
aa(lp1917
I2746
aI1484
aI1008
aI127
aI557
aI1633
aI1486
aI1396
aI1008
aa(lp1918
I1484
aI2781
aI368
aI414
aI3072
aI2490
aa(lp1919
I1687
aI1193
aa(lp1920
I263
aI2689
aa(lp1921
I2559
aI161
aa(lp1922
I1484
aI2781
aI368
aI414
aI3072
aI2490
aa(lp1923
I566
aI2561
aI65
aI1580
aI2561
aI2818
aI979
aa(lp1924
I80
aI3438
aI414
aI1480
aI1207
aa(lp1925
I129
aI2561
aI2568
aI2940
aI1802
aI2178
aa(lp1926
I2706
aI2561
aI1484
aI1008
aI2830
aI1071
aI2507
aI1008
aI2871
aI1330
aI2923
aI143
aa(lp1927
I3361
aI1652
aI701
aI2668
aa(lp1928
I1699
aI557
aI2987
aI2017
aa(lp1929
I1556
aI414
aI1656
aI2923
aI143
aI1346
aI473
aa(lp1930
I3010
aI1484
aI2561
aI2706
aa(lp1931
I80
aI3438
aI414
aI57
aI2854
aI1652
aI2839
aI1652
aI1207
aa(lp1932
I1843
aI2306
aI626
aI271
aI2772
aI3234
aI2668
aa(lp1933
I1133
aI414
aI1421
aI1271
aa(lp1934
I2486
aI1279
aI2561
aI1584
aI3076
aI924
aI3231
aa(lp1935
I2875
aI2398
aI2561
aI1913
aI3076
aI924
aI3231
aa(lp1936
I3359
aI3264
aI1207
aI2772
aI2875
aa(lp1937
I2706
aI2561
aI2139
aI2923
aI143
aI1484
aI243
aI1248
aI414
aI1425
aI1534
aI243
aI373
aa(lp1938
I916
aa(lp1939
I2875
aI550
aI414
aI414
aI2494
aI143
aa(lp1940
I2492
aI1652
aI1207
aI396
aa(lp1941
I3392
aI2561
aI65
aI129
aI748
aI928
aa(lp1942
I475
aI1278
aI2561
aI2991
aI2706
aa(lp1943
I431
aI455
aI1652
aI2350
aI1646
aI3076
aI1924
aI3050
aI3231
aa(lp1944
I433
aI2923
aI143
aI414
aI414
aI2923
aI429
aI1748
aI2923
aI557
aI2923
aI2519
aI2019
aI2923
aa(lp1945
I1207
aI2363
aI557
aI3315
aa(lp1946
I1235
aI273
aa(lp1947
I2192
aI3060
aI414
aI1802
aI414
aI1541
aI805
aa(lp1948
I1081
aI198
aa(lp1949
I2905
aI396
aI1652
aI884
aa(lp1950
I1359
aa(lp1951
I2876
aI2923
aI143
aI65
aI2706
aa(lp1952
I2706
aI2561
aI694
aI2668
aI414
aI1066
aI243
aI2222
aI781
aI143
aa(lp1953
I1333
aI2108
aI1486
aI2367
aI561
aI2910
aa(lp1954
I2047
aI892
aa(lp1955
I3031
aI2875
aa(lp1956
I80
aI3438
aI2781
aI1541
aI3340
aa(lp1957
I49
aI1058
aa(lp1958
I566
aI2561
aI291
aa(lp1959
I646
aI2668
aa(lp1960
I2746
aI1182
aI566
aI1580
aa(lp1961
I2746
aI414
aI414
aI80
aI2331
aI243
aI1788
aa(lp1962
I198
aI2781
aI2176
aI2448
aa(lp1963
I323
aI2923
aI143
aI414
aI414
aI2202
aI552
aI557
aI1266
aI894
aa(lp1964
I1421
aI1271
aI626
aI2336
aI2561
aI368
aI243
aI2190
aI557
aI2409
aa(lp1965
I566
aI2781
aI2875
aI2772
aI2416
aa(lp1966
I1976
aI198
aI2781
aI65
aI1207
aI244
aa(lp1967
I1542
aI1652
aI3274
aI2923
aI143
aI1484
aI1788
aI3076
aI3177
aI2923
aI143
aI3231
aa(lp1968
I2706
aI2561
aI2416
aI557
aI714
aI1927
aI3076
aI2840
aI3231
aa(lp1969
I1078
aI2544
aI550
aI2781
aI1582
aI2190
aI3076
aI3230
aI3231
aa(lp1970
I1524
aI3076
aI1090
aI2627
aI968
aI1167
aI3231
aa(lp1971
I2258
aI2296
aI2065
aI2561
aI2991
aI129
aI748
aI2665
aI346
aI1595
aa(lp1972
I2746
aI1484
aa(lp1973
I1070
aI2923
aI143
aa(lp1974
I80
aI2500
aI626
aI1628
aI2875
aI2561
aI2769
aI512
aI1802
aI273
aa(lp1975
I3451
aI3447
aa(lp1976
I2312
aI748
aI1420
aI2561
aI1541
aI3340
aa(lp1977
I3246
aI2560
aa(lp1978
I1346
aI557
aI1520
aI1722
aI160
aI974
aa(lp1979
I2409
aI243
aI791
aI557
aI506
aI1774
aI1248
aI414
aI129
aI748
aI2937
aa(lp1980
I1484
aI1580
aI748
aI3414
aa(lp1981
I129
aI748
aI1595
aI752
aI1018
aI1976
aI2964
aa(lp1982
I1044
aI566
aa(lp1983
I1914
aI3076
aI193
aI2136
aI3231
aa(lp1984
I1556
aI414
aI1656
aI2923
aI143
aI1484
aI1745
aa(lp1985
I1556
aI536
aI414
aI414
aI2543
aI2940
aI1802
aI1459
aI2668
aa(lp1986
I2543
aI2490
aI1484
aa(lp1987
I2490
aI2772
aI3073
aI2593
aa(lp1988
I264
aI1652
aI1377
aI2305
aI414
aI414
aI3262
aI117
aa(lp1989
I3441
aI1274
aI2561
aI2991
aI129
aI748
aI1595
aa(lp1990
I455
aI1652
aI596
aI8
aI2668
aI1484
aa(lp1991
I1136
aI1652
aI1207
aI566
aa(lp1992
I367
aI870
aI2503
aI1276
aI849
aI1058
aa(lp1993
I2601
aI1484
aa(lp1994
I550
aI1223
aI3294
aI2916
aa(lp1995
I80
aI2800
aI2769
aI2566
aI2875
aI243
aI3302
aI243
aI1294
aa(lp1996
I2377
aI2923
aI143
aI3076
aI595
aI2875
aI911
aI3231
aa(lp1997
I1378
aI752
aI3287
aa(lp1998
I80
aI2800
aI2769
aI2566
aI2875
aI243
aI3302
aI243
aI1294
aa(lp1999
I80
aI2800
aI2769
aI2566
aI2875
aI243
aI3302
aI243
aI1294
aa(lp2000
I596
aI8
aI455
aI1484
aI2561
aI1168
aa(lp2001
I627
aI760
aI2504
aa(lp2002
I2312
aI748
aI1420
aI2561
aI263
aI2689
aa(lp2003
I654
aI566
aI414
aI414
aI1130
aI1976
aI2772
aI438
aI2902
aa(lp2004
I1484
aI2781
aI863
aI97
aI658
aa(lp2005
I1207
aI2772
aI3344
aI2914
aa(lp2006
I2875
aI2032
aI1652
aI2735
aI1720
aa(lp2007
I2746
aI1484
aa(lp2008
I1090
aI1484
aI2781
aI1564
aI298
aI2381
aa(lp2009
I3403
aI752
aI1197
aI1652
aI302
aa(lp2010
I2614
aI996
aI1595
aI626
aI2875
aa(lp2011
I2521
aI625
aI572
aI2781
aI2627
aI572
aI1931
aI572
aa(lp2012
I2118
aI1228
aI2923
aI143
aI414
aI1182
aI129
aa(lp2013
I1556
aI414
aI1656
aI2923
aI143
aI3076
aI1788
aI3369
aI3231
aa(lp2014
I2091
aI557
aI431
aI2602
aa(lp2015
I2875
aI2032
aI1652
aI2735
aI1720
aa(lp2016
I2814
aI74
aI1484
aa(lp2017
I3310
aI1071
aI2518
aa(lp2018
I2438
aa(lp2019
I2109
aI561
aI129
aI748
aI3012
aa(lp2020
I754
aI566
aa(lp2021
I2218
aI566
aI2781
aI2875
aa(lp2022
I754
aI566
aa(lp2023
I2777
aI2923
aI143
aI2706
aa(lp2024
I137
aI561
aI129
aI748
aI2063
aI557
aI1595
aa(lp2025
I2925
aI1484
aa(lp2026
I608
aI2561
aI1249
aI340
aI557
aI3383
aI2572
aa(lp2027
I2610
aI852
aa(lp2028
I590
aI566
aI2773
aI822
aa(lp2029
I2312
aI748
aI1420
aa(lp2030
I2320
aI626
aI858
aI3023
aI243
aI2674
aI2740
aa(lp2031
I2713
aI1207
aI3229
aa(lp2032
I80
aI3413
aI2561
aI449
aI2772
aI1203
aa(lp2033
I1564
aI298
aI2381
aa(lp2034
I455
aI1652
aI1459
aI2668
aa(lp2035
I1421
aI1271
aI2019
aa(lp2036
I367
aI2561
aI714
aI2875
aI2245
aI2561
aI1584
aI3076
aI924
aI3231
aa(lp2037
I3310
aI1071
aI2518
aa(lp2038
I2827
aI1652
aI295
aI2019
aa(lp2039
I113
aI1207
aI2049
aI1484
aI243
aI3383
aI1237
aa(lp2040
I3417
aI936
aI2488
aI414
aI414
aI1138
aa(lp2041
I3010
aI1484
aI2561
aI3076
aI2258
aI3231
aa(lp2042
I2746
aI1484
aI1580
aa(lp2043
I80
aI3413
aI626
aI940
aI2772
aI2574
aa(lp2044
I80
aI3413
aI626
aI1271
aI243
aI3144
aI243
aI2772
aI2839
aI1652
aI2668
aI3076
aI1584
aI2611
aI3231
aa(lp2045
I80
aI3413
aI626
aI3187
aI2875
aa(lp2046
I80
aI3413
aI626
aI2543
aI2875
aa(lp2047
I80
aI3413
aI626
aI455
aI2772
aI895
aI3076
aI1425
aI2611
aI3231
aa(lp2048
I1004
aI2875
aI974
aa(lp2049
I2991
aI2706
aI752
aI2302
aI2923
aI143
aI1484
aa(lp2050
I80
aI3413
aI626
aI2579
aI2772
aI3227
aI2875
aa(lp2051
I2760
aI3076
aI2538
aI3361
aI3231
aa(lp2052
I3082
aI3061
aI509
aI748
aI1302
aa(lp2053
I455
aa(lp2054
I1830
aa(lp2055
I870
aI2503
aI1276
aI849
aI1058
aa(lp2056
I2804
aI2875
aI243
aI2503
aI572
aI2373
aI243
aI849
aI572
aI1584
aa(lp2057
I1484
aI2781
aI113
aI1207
aI2049
aI243
aI2991
aI2706
aa(lp2058
I2047
aI892
aa(lp2059
I3416
aa(lp2060
I80
aI1420
aI1652
aI1227
aI557
aI2713
aI3076
aI738
aI3231
aa(lp2061
I1008
aI1272
aI1175
aI463
aI2576
aI1008
aI750
aI257
aa(lp2062
I3060
aI414
aI80
aI903
aa(lp2063
I2623
aI414
aI1913
aI3076
aI2579
aI2660
aI626
aI944
aI2627
aI572
aI2062
aI3231
aa(lp2064
I1656
aI752
aI1556
aI1484
aI2781
aI380
aI1071
aI322
aa(lp2065
I1207
aI2414
aI566
aa(lp2066
I1207
aI2415
aa(lp2067
I1459
aI2668
aa(lp2068
I2371
aI1420
aI572
aa(lp2069
I1830
aa(lp2070
I80
aI3413
aI2561
aI895
aa(lp2071
I1943
aI41
aI161
aI1652
aI431
aI3158
aI967
aI1168
aI1862
aI1328
aa(lp2072
I2177
aI414
aI2991
aI129
aI748
aI1595
aa(lp2073
I2791
aI1484
aI414
aI414
aI561
aI129
aI748
aI1595
aa(lp2074
I561
aI2706
aI52
aa(lp2075
I161
aI952
aI1421
aI3382
aI273
aI566
aa(lp2076
I217
aI3262
aI2281
aI1830
aI1484
aa(lp2077
I80
aI3438
aI2561
aI714
aI2875
aa(lp2078
I1668
aI748
aI2921
aI2810
aa(lp2079
I627
aI271
aI455
aI1484
aa(lp2080
I2823
aI566
aI414
aI2991
aI129
aa(lp2081
I1464
aI1235
aI455
aI566
aa(lp2082
I455
aa(lp2083
I2091
aI557
aI431
aI2602
aI2561
aI2503
aI572
aI698
aI849
aI572
aI1248
aa(lp2084
I3232
aI414
aI1207
aI3415
aI1987
aa(lp2085
I431
aI3415
aI221
aI1652
aI1472
aa(lp2086
I1910
aI2923
aI143
aI129
aI748
aI1595
aa(lp2087
I627
aI760
aI2504
aa(lp2088
I1420
aI1652
aI2688
aI557
aI252
aa(lp2089
I566
aI2781
aI1486
aI1193
aI626
aI584
aI646
aI2668
aa(lp2090
I1008
aI1776
aI1175
aI2820
aI1008
aI852
aa(lp2091
I1484
aI2781
aI641
aI3076
aI65
aI129
aI748
aI1595
aI3231
aa(lp2092
I65
aI129
aI748
aI1595
aa(lp2093
I2043
aI477
aI275
aI2923
aI1562
aa(lp2094
I1736
aI557
aI894
aI626
aI2875
aa(lp2095
I127
aI557
aI1633
aI1486
aI2673
aa(lp2096
I2121
aI1484
aI2781
aI1207
aI1528
aa(lp2097
I113
aI1207
aI2518
aI626
aI3117
aI414
aI2712
aI1207
aI1472
aa(lp2098
I2909
aI3076
aI3262
aI3231
aa(lp2099
I129
aI748
aI1595
aI2862
aI752
aI2616
aa(lp2100
I1182
aI193
aI2136
aI566
aI1914
aa(lp2101
I536
aI414
aI414
aI2409
aI2985
aI414
aI414
aI1556
aI752
aI1656
aI243
aI1435
aI243
aI980
aa(lp2102
I132
aI1484
aI2781
aI1660
aI1535
aI3054
aa(lp2103
I1459
aI2351
aI414
aI414
aI3274
aI2923
aI143
aa(lp2104
I1207
aI2673
aI557
aI2297
aa(lp2105
I2785
aI1454
aa(lp2106
I2691
aI431
aI2663
aI748
aI1207
aI1389
aI396
aa(lp2107
I1541
aI1236
aI1652
aI1937
aI1541
aa(lp2108
I2302
aI2923
aI143
aI3045
aI1804
aI557
aI129
aI748
aI931
aa(lp2109
I2618
aI752
aI2467
aI198
aI2561
aI2991
aI129
aa(lp2110
I367
aI2561
aI1486
aI297
aI1058
aI2561
aI1425
aI3076
aI924
aI3231
aa(lp2111
I1650
aI2923
aI143
aa(lp2112
I2644
aI2733
aI752
aI2682
aI1697
aI3387
aI2351
aa(lp2113
I2644
aI414
aI1313
aI626
aI2955
aa(lp2114
I3144
aI2561
aI1630
aI167
aa(lp2115
I431
aI2297
aI1652
aI786
aI2019
aa(lp2116
I2492
aI1652
aI1207
aI396
aa(lp2117
I1877
aI2789
aI557
aI1207
aI566
aI1580
aa(lp2118
I2814
aI74
aI1484
aI3076
aI2991
aI129
aI748
aI1595
aI3231
aI557
aa(lp2119
I1542
aI2561
aI2047
aI892
aI566
aI1788
aa(lp2120
I2706
aI1341
aI74
aI1568
aI2923
aI143
aI752
aI1103
aI2923
aI143
aI2033
aI243
aI3442
aa(lp2121
I1081
aa(lp2122
I91
aa(lp2123
I1976
aI3361
aI1652
aI3149
aI8
aI2668
aI243
aI2503
aI1353
aa(lp2124
I750
aI1864
aI2731
aI1672
aI487
aI3083
aa(lp2125
I2559
aI1899
aa(lp2126
I1939
aI1652
aI2875
aI566
aI414
aI2549
aI3076
aI2142
aI3231
aI243
aI1248
aI414
aI1584
aI3000
aa(lp2127
I3361
aI1652
aI1100
aI2668
aI557
aI2875
aI3076
aI2860
aI3231
aa(lp2128
I2875
aI2743
aI2561
aI1058
aI3076
aI161
aI3231
aa(lp2129
I1486
aI297
aI1248
aI2561
aI1058
aI3076
aI161
aI3231
aa(lp2130
I2091
aI557
aI431
aI2602
aI959
aI572
aI2742
aI849
aI572
aI1913
aa(lp2131
I1008
aI3121
aI1948
aI2561
aI1902
aI557
aI1501
aI1008
aa(lp2132
I1959
aI3076
aI2629
aI3231
aI2006
aa(lp2133
I2409
aI243
aI791
aI557
aI506
aI1774
aI1248
aI414
aI2991
aI2706
aa(lp2134
I1767
aI2561
aI1090
aI934
aI1830
aI2367
aa(lp2135
I1859
aI2381
aa(lp2136
I3117
aI2712
aI1207
aI1472
aa(lp2137
I65
aI129
aI748
aI1595
aI2561
aI2559
aI161
aa(lp2138
I3207
aI414
aI414
aI65
aI129
aI748
aI1595
aa(lp2139
I1105
aI2923
aI143
aa(lp2140
I960
aI414
aI2095
aI550
aa(lp2141
I1470
aI3045
aI1804
aa(lp2142
I129
aI748
aI1595
aI2561
aI1302
aa(lp2143
I2961
aI8
aI2875
aI2781
aI752
aI3255
aI431
aI81
aa(lp2144
I198
aI2781
aI2897
aI557
aI244
aI2019
aI626
aI75
aI2561
aa(lp2145
I2258
aI2561
aI2991
aI2706
aI557
aI2554
aI340
aa(lp2146
I80
aI1788
aI748
aI3012
aI2561
aI400
aI143
aa(lp2147
I2258
aI2296
aI2245
aI2561
aI1604
aI1595
aI557
aI3383
aI3439
aa(lp2148
I2409
aI1430
aI2668
aI557
aI1688
aa(lp2149
I2402
aa(lp2150
I1494
aI2923
aI143
aa(lp2151
I1052
aI557
aI3253
aI2561
aI1596
aI331
aI1652
aI1081
aa(lp2152
I2711
aI1486
aI2916
aI862
aI541
aI2330
aI2367
aa(lp2153
I400
aI143
aI2561
aI2511
aI3369
aI557
aI1804
aa(lp2154
I2152
aI2923
aI143
aI2561
aI1219
aI129
aI748
aI1595
aa(lp2155
I2706
aI2561
aI1207
aI2673
aI748
aI646
aI3387
aI2668
aa(lp2156
I591
aI1207
aI411
aI143
aI1788
aa(lp2157
I2925
aI1484
aI414
aI414
aI414
aI561
aI129
aI748
aI1595
aa(lp2158
I2778
aI2561
aI2095
aI1137
aI2668
aI3076
aI957
aI3231
aa(lp2159
I431
aI455
aI1652
aI1459
aI2668
aI3076
aI2991
aI1804
aI557
aI965
aI1290
aI3231
aa(lp2160
I608
aI2561
aI3383
aI1542
aa(lp2161
I291
aI566
aI1804
aI557
aI3383
aa(lp2162
I2746
aI1484
aI1580
aa(lp2163
I80
aI3438
aI2561
aI3128
aI752
aI3264
aI273
aa(lp2164
I591
aI1207
aI411
aI161
aa(lp2165
I1207
aI557
aI714
aI1505
aI596
aI8
aI2351
aa(lp2166
I80
aI3438
aI2561
aI2804
aI2875
aa(lp2167
I2118
aI174
aI566
aa(lp2168
I2021
aa(lp2169
I3438
aI2561
aI1207
aI396
aa(lp2170
I1271
aI566
aI1722
aI3033
aa(lp2171
I607
aI566
aI340
aa(lp2172
I2491
aI752
aI353
aI198
aI626
aI2755
aI243
aI1001
aI3076
aI1435
aI143
aI3231
aa(lp2173
I129
aI2561
aI1526
aa(lp2174
I1461
aI3343
aa(lp2175
I1888
aI1929
aI1365
aI477
aI2576
aI3076
aI3297
aI3231
aa(lp2176
I80
aI3361
aI414
aI414
aI1071
aa(lp2177
I1699
aI557
aI2987
aI2017
aa(lp2178
I566
aI2781
aI2062
aI557
aI713
aI1528
aI748
aI858
aI2304
aa(lp2179
I916
aa(lp2180
I198
aI1654
aI243
aI1783
aI2772
aI2509
aa(lp2181
I465
aI2065
aI2561
aI2706
aa(lp2182
I2252
aI414
aI2991
aI129
aI748
aI1595
aa(lp2183
I368
aI414
aI3072
aI557
aI1115
aI1341
aa(lp2184
I2746
aI1484
aI243
aI1766
aI340
aa(lp2185
I3390
aI414
aI737
aI566
aa(lp2186
I977
aI3283
aI3076
aI3356
aI752
aI2180
aI243
aI3154
aI572
aI3231
aa(lp2187
I1182
aI3038
aI2706
aa(lp2188
I1090
aI934
aI1830
aI2367
aI414
aI340
aa(lp2189
I2734
aI143
aI2561
aI129
aI748
aI931
aI557
aI1804
aa(lp2190
I3387
aI2668
aI626
aI2336
aa(lp2191
I2075
aI996
aI1595
aI3399
aa(lp2192
I1341
aI74
aI1568
aI2923
aI143
aI1788
aI3369
aI1072
aI2118
aa(lp2193
I2814
aI74
aI161
aa(lp2194
I1830
aa(lp2195
I1275
aI3012
aI2358
aI1058
aI1072
aI143
aa(lp2196
I1008
aI1207
aI2673
aI748
aI646
aI3387
aI2668
aI1008
aa(lp2197
I552
aI1113
aI2781
aI431
aI1191
aa(lp2198
I2514
aI626
aI1383
aa(lp2199
I1133
aI414
aI1421
aI1271
aa(lp2200
I1207
aI557
aI714
aI1505
aa(lp2201
I1939
aI1652
aI1486
aI682
aa(lp2202
I23
aI2875
aI3076
aI273
aI3231
aa(lp2203
I750
aI2561
aI3241
aI1175
aI1806
aa(lp2204
I2925
aI1484
aI414
aI414
aI414
aI1546
aI1788
aa(lp2205
I2921
aI2069
aI193
aI2136
aI2561
aI2991
aI129
aI748
aI1595
aa(lp2206
I80
aI2609
aI2781
aI3128
aa(lp2207
I271
aI1235
aI455
aI2502
aa(lp2208
I1235
aI2940
aI1802
aI609
aI619
aa(lp2209
I2713
aI2894
aI557
aI1987
aa(lp2210
I3073
aI3367
aI1207
aI2321
aa(lp2211
I609
aI566
aI420
aI160
aa(lp2212
I1939
aI1652
aI431
aI2908
aI237
aI626
aI431
aI2821
aI2153
aa(lp2213
I2302
aI2923
aI143
aI3248
aI1469
aa(lp2214
I2736
aI2561
aI1884
aa(lp2215
I1420
aI1652
aI841
aI414
aI3233
aI2772
aI406
aI3076
aI1167
aI3231
aI1348
aI2353
aI572
aI572
aI572
aa(lp2216
I431
aI2297
aI1652
aI786
aI2019
aI414
aI1484
aI129
aI748
aI1595
aa(lp2217
I1207
aI2673
aI557
aI2297
aa(lp2218
I2791
aI414
aI414
aI1182
aI129
aI748
aI1595
aa(lp2219
I129
aI2561
aI1129
aI595
aI2875
aI1055
aI566
aa(lp2220
I3121
aI1948
aa(lp2221
I1341
aI74
aI1568
aI2923
aI143
aI2781
aI1779
aI1590
aI1652
aI1341
aa(lp2222
I566
aI2781
aI2473
aI979
aI3076
aI1486
aI448
aI3231
aa(lp2223
I2136
aa(lp2224
I3459
aI39
aI243
aI3321
aI2465
aI243
aI340
aa(lp2225
I1944
aa(lp2226
I1655
aI1289
aI2923
aI142
aI414
aI1319
aI2781
aI3282
aa(lp2227
I2332
aI2779
aI38
aI2836
aI479
aI414
aI2424
aI243
aI1144
aI572
aI143
aa(lp2228
I1182
aI2330
aI258
aI566
aa(lp2229
I1610
aI143
aI1804
aa(lp2230
I2325
aI2706
aI2561
aI2777
aI2923
aI143
aa(lp2231
I75
aI414
aI2566
aI1207
aI2921
aI2069
aa(lp2232
I27
aI566
aI1652
aI2434
aI557
aI3187
aI2568
aI572
aa(lp2233
I685
aI243
aI1486
aI2921
aI2069
aa(lp2234
I1081
aa(lp2235
I2091
aI557
aI2875
aa(lp2236
I2804
aI2875
aI243
aI2503
aI572
aI3436
aI243
aI849
aI572
aI1058
aa(lp2237
I2706
aI2561
aI1321
aI2923
aI143
aa(lp2238
I3225
aI1207
aI2283
aa(lp2239
I1528
aI2772
aI3225
aI1207
aI23
aa(lp2240
I80
aI3438
aI2561
aI302
aI557
aI3447
aa(lp2241
I80
aI3413
aI2561
aI1081
aa(lp2242
I80
aI3413
aI2561
aI391
aI2875
aa(lp2243
I80
aI3413
aI2561
aI1207
aI2147
aa(lp2244
I1368
aI3234
aI161
aa(lp2245
I1382
aI2014
aI414
aI414
aI129
aI748
aI1595
aa(lp2246
I561
aI1207
aI396
aa(lp2247
I1421
aI1271
aI2019
aI414
aI1080
aI107
aa(lp2248
I3274
aI2923
aI143
aI2096
aI1484
aa(lp2249
I127
aI557
aI1633
aI1486
aI2673
aa(lp2250
I1496
aI1193
aa(lp2251
I455
aI557
aI1271
aI1652
aI3192
aI557
aI1625
aI3057
aa(lp2252
I361
aI566
aI2781
aI3220
aI557
aI1661
aa(lp2253
I475
aI1278
aa(lp2254
I3372
aI414
aI3072
aI163
aI1722
aI1556
aI414
aI1656
aa(lp2255
I2054
aI1357
aI620
aa(lp2256
I952
aI2221
aI41
aI2781
aI1541
aI2518
aa(lp2257
I804
aI1943
aI2367
aa(lp2258
I1484
aI2781
aI863
aI97
aI696
aa(lp2259
I1060
aI3
aI1484
aI2781
aI1830
aI3076
aI207
aI1584
aI3231
aa(lp2260
I1543
aI1846
aa(lp2261
I2168
aI2923
aI152
aI852
aI3076
aI969
aI1652
aI965
aI3231
aa(lp2262
I2367
aI1433
aa(lp2263
I1004
aI2875
aI2916
aa(lp2264
I3441
aI1274
aa(lp2265
I566
aI1580
aI2561
aI1099
aI143
aa(lp2266
I599
aI2561
aI263
aI2689
aa(lp2267
I2427
aI1169
aI455
aI1484
aI2561
aI1542
aa(lp2268
I1305
aI2561
aI1258
aI3361
aI2561
aI1580
aI2772
aI129
aI748
aI931
aa(lp2269
I566
aI1580
aa(lp2270
I2747
aI1833
aa(lp2271
I1299
aI414
aI553
aI2493
aI626
aI673
aI2875
aa(lp2272
I1081
aa(lp2273
I2668
aI1652
aI431
aI1603
aI243
aI974
aI1652
aI2875
aI243
aI1261
aa(lp2274
I1830
aa(lp2275
I3144
aa(lp2276
I455
aa(lp2277
I608
aI3383
aI557
aI3360
aa(lp2278
I2921
aI1043
aI1722
aI714
aI2916
aa(lp2279
I1805
aI2561
aI1788
aI1546
aa(lp2280
I1924
aI566
aI1580
aa(lp2281
I1441
aI2875
aa(lp2282
I233
aI3420
aI572
aI3444
aI625
aI2561
aI3359
aI3264
aI1207
aI2772
aI2416
aa(lp2283
I2991
aI340
aI1484
aI2781
aI127
aI557
aI1633
aI1486
aI2673
aa(lp2284
I1037
aI1948
aI1652
aI1207
aI2836
aa(lp2285
I690
aa(lp2286
I165
aI2921
aI2069
aI2781
aI48
aI2561
aI1542
aa(lp2287
I3031
aI2875
aI414
aI414
aI1837
aI566
aa(lp2288
I566
aI2781
aI2363
aI557
aI3315
aI1652
aI3387
aI2668
aa(lp2289
I2109
aI414
aI1584
aa(lp2290
I1804
aI2772
aI2572
aI2561
aI1484
aI2781
aI627
aI760
aI2504
aa(lp2291
I2768
aI477
aI1538
aI142
aa(lp2292
I1621
aI1652
aI2410
aa(lp2293
I161
aI650
aI198
aa(lp2294
I607
aI143
aI1093
aI572
aI1876
aa(lp2295
I2152
aI2923
aI143
aI2561
aI2991
aI129
aI748
aI1595
aa(lp2296
I1484
aI885
aI557
aI129
aI748
aI1595
aI414
aI2892
aa(lp2297
I2967
aI2923
aI3387
aI2668
aI626
aI2336
aI2923
aa(lp2298
I2312
aI748
aI1420
aI2561
aI3243
aI143
aI414
aa(lp2299
I790
aI2836
aI626
aI591
aI1207
aI2415
aI2503
aI572
aI1913
aa(lp2300
I80
aI3413
aI626
aI455
aI2772
aI895
aa(lp2301
I80
aI3413
aI626
aI1242
aI2772
aI1830
aa(lp2302
I80
aI3413
aI626
aI1081
aI2772
aI2804
aI2875
aa(lp2303
I2778
aI2561
aI3441
aI1274
aI414
aI2875
aI626
aI714
aI1927
aa(lp2304
I2814
aI74
aI1484
aI3383
aI557
aI2224
aa(lp2305
I1138
aa(lp2306
I1699
aI557
aI2987
aI2017
aa(lp2307
I2858
aI2923
aI143
aa(lp2308
I185
aI414
aI414
aI550
aI2781
aI2136
aa(lp2309
I2260
aI2923
aI143
aa(lp2310
I1034
aI2544
aI3343
aI1652
aI1825
aa(lp2311
I129
aI748
aI1595
aI414
aI637
aa(lp2312
I271
aI557
aI3234
aI1714
aa(lp2313
I2918
aI3073
aI1652
aI687
aI1207
aI2561
aI2234
aI2353
aa(lp2314
I1976
aI1193
aI1652
aI1231
aa(lp2315
I261
aI680
aI2561
aI1058
aa(lp2316
I2670
aI996
aI1595
aI626
aI2875
aa(lp2317
I2711
aI1242
aI557
aI1830
aI3076
aI715
aI3231
aI143
aI129
aa(lp2318
I1484
aI1580
aa(lp2319
I961
aI1830
aI3076
aI867
aI3231
aa(lp2320
I961
aI3144
aI3076
aI867
aI3231
aa(lp2321
I961
aI455
aI3076
aI867
aI3231
aa(lp2322
I1484
aI2781
aI1377
aI2305
aa(lp2323
I1420
aI2561
aI2199
aI243
aI1830
aI1652
aI1379
aI572
aa(lp2324
I828
aI2923
aI143
aI414
aI3136
aI2914
aI243
aI576
aa(lp2325
I2096
aI2923
aI143
aI1484
aa(lp2326
I561
aI536
aI2781
aI2913
aa(lp2327
I2402
aI243
aI2991
aI129
aI748
aI928
aa(lp2328
I694
aI2668
aI414
aI1066
aI243
aI781
aI143
aI414
aI129
aI748
aI3383
aa(lp2329
I2445
aI414
aI1868
aI2668
aa(lp2330
I3459
aI952
aI566
aI2781
aI3382
aI273
aa(lp2331
I2921
aI2069
aI121
aa(lp2332
I1655
aI587
aI1484
aI2781
aI2713
aI2894
aI557
aI1987
aa(lp2333
I393
aI2352
aa(lp2334
I2312
aI748
aI1420
aI2561
aI2409
aI243
aI2662
aa(lp2335
I1556
aI752
aI1656
aI2923
aI143
aI3127
aI2781
aI2518
aI1652
aI3372
aI414
aI3072
aI163
aa(lp2336
I297
aI557
aI1193
aa(lp2337
I2312
aI748
aI1420
aI2561
aI455
aI243
aI1496
aI243
aI396
aa(lp2338
I1090
aI156
aI414
aI2221
aI41
aI2561
aI1824
aI1207
aI297
aI626
aI1954
aa(lp2339
I561
aI1484
aI2781
aI2913
aI2706
aa(lp2340
I1944
aI129
aI748
aI1595
aa(lp2341
I625
aI2561
aI2096
aI1484
aI1722
aI3274
aI2923
aI143
aa(lp2342
I80
aI2875
aI3361
aI414
aI1930
aa(lp2343
I80
aI3413
aI2561
aI916
aa(lp2344
I2445
aI414
aI1868
aI2668
aa(lp2345
I217
aI952
aI2161
aI2594
aa(lp2346
I160
aI3180
aI557
aI1483
aI894
aa(lp2347
I3026
aI414
aI2095
aI979
aa(lp2348
I1271
aa(lp2349
I80
aI3413
aI2561
aI2136
aa(lp2350
I1149
aI626
aI3234
aa(lp2351
I2746
aI1484
aI1580
aa(lp2352
I108
aI129
aI748
aI1595
aa(lp2353
I2442
aI557
aI1448
aI431
aI892
aa(lp2354
I2876
aI2923
aI143
aI414
aI129
aI748
aI931
aa(lp2355
I2830
aI343
aI2083
aI3076
aI2784
aI2923
aI142
aI3231
aa(lp2356
I973
aI2197
aI572
aI1652
aI1921
aI606
aI2330
aI566
aa(lp2357
I1804
aI3090
aI625
aI572
aI2479
aI273
aI243
aI3432
aI557
aI3153
aI273
aI161
aa(lp2358
I80
aI3413
aI2561
aI1235
aI979
aa(lp2359
I80
aI3413
aI2561
aI3144
aI2772
aI2409
aa(lp2360
I678
aa(lp2361
I1654
aI969
aI414
aI1654
aI3447
aa(lp2362
I1302
aI1652
aI1262
aI1541
aI1484
aa(lp2363
I566
aI2923
aI892
aI626
aI888
aI2923
aa(lp2364
I1290
aI1802
aI2069
aI2412
aI572
aI2407
aa(lp2365
I1420
aI3243
aI161
aa(lp2366
I3349
aI627
aI271
aI455
aI1484
aa(lp2367
I1382
aI2014
aI414
aI414
aI2991
aI129
aI748
aI1595
aa(lp2368
I1459
aI2668
aI1484
aa(lp2369
I2091
aI557
aI431
aI2602
aI2561
aI2503
aI698
aI243
aI849
aI1425
aa(lp2370
I2458
aI1484
aa(lp2371
I1242
aI243
aI1830
aI2561
aI1451
aI1830
aa(lp2372
I1081
aa(lp2373
I895
aI557
aI455
aa(lp2374
I1271
aa(lp2375
I714
aI2875
aa(lp2376
I391
aI2875
aa(lp2377
I588
aI1193
aI1484
aI2561
aI610
aI3360
aa(lp2378
I202
aI2528
aI1912
aI3136
aI1298
aa(lp2379
I1924
aI1580
aI1652
aI431
aI754
aI566
aa(lp2380
I1421
aI3382
aI273
aI625
aI2561
aI2991
aI129
aI748
aI1595
aa(lp2381
I1275
aI2923
aI143
aa(lp2382
I798
aI748
aI1420
aI2561
aI1830
aI243
aI1271
aI243
aI799
aI243
aI1820
aa(lp2383
I1081
aa(lp2384
I1207
aI3229
aa(lp2385
I297
aa(lp2386
I80
aI3171
aI2560
aI626
aI2875
aa(lp2387
I2854
aa(lp2388
I80
aI2836
aI2561
aI979
aI626
aI368
aI2875
aa(lp2389
I2426
aI2800
aI2781
aI3144
aa(lp2390
I3274
aI2923
aI143
aI3383
aI1788
aa(lp2391
I1341
aI74
aI1568
aI143
aI752
aI2813
aI74
aI2685
aI143
aI3383
aI2572
aa(lp2392
I3192
aI557
aI1625
aI3057
aa(lp2393
I1207
aI557
aI2040
aa(lp2394
I2858
aI1484
aI2781
aI3100
aI165
aI2019
aI414
aI2706
aa(lp2395
I1271
aI2561
aI624
aI2385
aI970
aa(lp2396
I3413
aI2781
aI2490
aa(lp2397
I3413
aI2781
aI391
aI2875
aa(lp2398
I3413
aI2781
aI3130
aI1207
aI2772
aI2897
aa(lp2399
I3413
aI2781
aI1820
aa(lp2400
I3413
aI2781
aI1164
aI2875
aa(lp2401
I3413
aI2781
aI3382
aI2875
aa(lp2402
I3413
aI2781
aI431
aI1939
aI1652
aI2875
aa(lp2403
I2292
aI566
aI2781
aI1743
aI3344
aa(lp2404
I376
aI1899
aa(lp2405
I1302
aI1484
aI2843
aa(lp2406
I1556
aI752
aI1656
aI1484
aI2781
aI3197
aI414
aI2093
aI1071
aI1987
aa(lp2407
I1583
aI1697
aI1007
aI161
aa(lp2408
I798
aI748
aI1420
aI243
aI1830
aI243
aI1271
aI243
aI1392
aI1810
aa(lp2409
I3274
aI143
aI1484
aI1008
aI2409
aI2985
aI557
aI2409
aI3348
aI1008
aa(lp2410
I1484
aI1696
aI3045
aI1804
aa(lp2411
I1686
aI952
aI566
aI2781
aI714
aI1927
aI3076
aI2787
aI503
aI3231
aa(lp2412
I1299
aI414
aI553
aI2493
aI626
aI673
aI2875
aa(lp2413
I3413
aI2561
aI1976
aI2747
aI1652
aI2095
aI2875
aa(lp2414
I2777
aI2923
aI143
aI414
aI414
aI2218
aI566
aI2781
aI2875
aa(lp2415
I828
aI2923
aI143
aI414
aI1168
aI340
aasS'spam'
p2416
(lp2417
(lp2418
I2735
aI2603
aI1664
aI2221
aI3140
aI1952
aa(lp2419
I3238
aI2340
aI2123
aI2125
aI2812
aI3358
aa(lp2420
I2806
aI181
aI431
aI3029
aI557
aI3354
aI99
aI1482
aI1652
aI1675
aI582
aI3358
aa(lp2421
I3134
aI719
aI85
aI733
aI748
aI2450
aI142
aa(lp2422
I2806
aI1510
aI2112
aI1506
aI1952
aa(lp2423
I3006
aI195
aI1603
aI3412
aI2282
aI1952
aa(lp2424
I529
aI1033
aI1990
aI1746
aI1375
aI1976
aI3299
aI1952
aI1952
aI1952
aa(lp2425
I3086
aI431
aI517
aI2772
aI2454
aI414
aI1916
aa(lp2426
I3134
aI719
aI85
aI733
aI748
aI2450
aI142
aa(lp2427
a(lp2428
I431
aI3029
aI243
aI2090
aI311
aI245
aa(lp2429
I572
aI572
aI572
aI572
aI572
aI2767
aI843
aI1802
aI458
aI2244
aI1952
aa(lp2430
I431
aI2796
aa(lp2431
I3388
aI2921
aI3438
aI810
aI3388
aI2769
aI239
aI1784
aa(lp2432
I1191
aI414
aI1134
aI752
aI357
aI414
aI1961
aI752
aI357
aI414
aI676
aa(lp2433
I431
aI789
aI2764
aI414
aI1572
aI2673
aI1952
aa(lp2434
I735
aI1553
aI1664
aI245
aI1247
aI572
aa(lp2435
I1008
aI582
aI1563
aI3175
aI1008
aa(lp2436
I2090
aI435
aI1952
aI1274
aI85
aI1952
aI1952
aI1952
aa(lp2437
I3393
aI636
aI1939
aI3358
aI2732
aI2578
aI1990
aI3078
aI2577
aI1675
aI3047
aI1952
aa(lp2438
I1375
aI2400
aI1652
aI1675
aI3175
aI1145
aI1952
aI1952
aI1952
aI1854
aI631
aI3358
aI3358
aa(lp2439
a(lp2440
I2970
aa(lp2441
I2806
aI1746
aI3316
aI839
aI3435
aI3358
aa(lp2442
I2888
aI2794
aI3388
aI1281
aI3388
aI2629
aI3388
aI2629
aI1707
aI431
aI2142
aI3388
aI2629
aI3388
aI1455
aI3388
aI1609
aI1652
aI1917
aI1499
aI1952
aI2888
aI2794
aI3388
aI1281
aI3388
aI2629
aI3388
aI2629
aI1707
aa(lp2443
I3006
aI631
aI2795
aI2591
aI2923
aI1609
aI574
aI1746
aI572
aI572
aI572
aI572
aa(lp2444
I2742
aI243
aI2421
aI243
aI2421
aI3134
aI2754
aI572
aI572
aI572
aa(lp2445
I2057
aI922
aI3398
aI1564
aI1123
aI1711
aI1952
aa(lp2446
I2972
aI626
aI639
aI1205
aI1952
aa(lp2447
a(lp2448
I2077
aI3358
aI2002
aI1629
aI1952
aI1952
aI529
aI810
aI1157
aI1952
aI1952
aI1952
aI1952
aa(lp2449
I320
aI975
aI2953
aa(lp2450
I993
aI1802
aI2887
aI243
aI2690
aI748
aI320
aa(lp2451
I2995
aI557
aI3376
aI1926
aa(lp2452
I636
aI1804
aI1008
aI1838
aI636
aI1008
aa(lp2453
I386
aI787
aI1191
aI661
aI1952
aa(lp2454
I1797
aI2561
aI320
aI1952
aa(lp2455
a(lp2456
I265
aI1033
aI71
aI2179
aI1675
aI3252
aI1952
aa(lp2457
I324
aI1952
aI3339
aI1067
aI1972
aI1952
aa(lp2458
I399
aI1652
aI431
aI1031
aI470
aa(lp2459
I194
aI3351
aI1047
aI1504
aI3358
aa(lp2460
I1824
aa(lp2461
I184
aI2789
aI1145
aI1952
aI1952
aI3076
aI1799
aI3231
aa(lp2462
I1367
aI631
aI1746
aI2287
aI881
aI572
aI572
aI572
aI3204
aI3258
aI1990
aI1746
aI2675
aI626
aI1248
aI1802
aI1425
aI3095
aI1952
aa(lp2463
I320
aI2811
aI810
aa(lp2464
I1008
aI1691
aI3339
aI2709
aI2692
aI1952
aI1952
aI1008
aa(lp2465
I3068
aa(lp2466
I458
aI3122
aI2607
aI1952
aa(lp2467
I414
aI414
aI2912
aI1707
aI375
aI771
aI74
aI2575
aI2835
aa(lp2468
I1797
aI2561
aI2643
aa(lp2469
I2313
aI572
aI1832
aI2709
aI2974
aa(lp2470
I3388
aI529
aI215
aI1752
aI2437
aI414
aI414
aa(lp2471
I2656
aI1577
aI2374
aI2656
aa(lp2472
I572
aI572
aI572
aI572
aI572
aI572
aI2656
aI815
aI243
aI2656
aI572
aI572
aI572
aI572
aI572
aI2656
aI815
aI243
aI2656
aI572
aI572
aI572
aI572
aa(lp2473
I1797
aI414
aI3414
aI572
aI572
aI572
aa(lp2474
I2806
aI1746
aI3309
aI2249
aI1664
aI1679
aI709
aI3358
aI3358
aa(lp2475
I3042
aI617
aI3042
aI1952
aI1952
aI1952
aa(lp2476
I1503
aI3388
aI1503
aI3388
aI1503
aI3258
aI3317
aI2010
aI2484
aI626
aI1584
aI1808
aI243
aI1097
aI2951
aI1746
aI1952
aI1952
aI1952
aa(lp2477
I320
aI1191
aI2548
aI2772
aI712
aI1490
aa(lp2478
I1133
aI414
aI1770
aI572
aI1455
aI572
aI2749
aI1367
aI1952
aI1952
aa(lp2479
I3401
aa(lp2480
I1829
aI1335
aI1145
aI2781
aI243
aI229
aI735
aI1553
aI3255
aI2327
aI2995
aa(lp2481
I929
aI929
aa(lp2482
I129
aI154
aI3017
aI572
aI572
aI572
aI572
aI572
aa(lp2483
I9
aa(lp2484
I1854
aI862
aI80
aI626
aI3376
aI3358
aa(lp2485
I195
aI2064
aI2087
aI1652
aI222
aI1426
aI1439
aI1952
aI1952
aI1952
aa(lp2486
I1375
aI1675
aI276
aI3255
aI3017
aI1952
aI1952
aa(lp2487
I9
aa(lp2488
I1375
aI1675
aI276
aI3255
aI3017
aI1952
aI1952
aa(lp2489
I2301
aI2408
aI1746
aI3301
aI939
aI618
aI414
aI2567
aa(lp2490
I3042
aI617
aI3042
aI1952
aI1952
aI1952
aa(lp2491
I431
aI1698
aI80
aI2709
aI661
aI2781
aI431
aI1191
aI1952
aI1952
aI1952
aa(lp2492
I2313
aI2561
aI3211
aI3211
aI3211
aI1498
aI1879
aI3311
aI499
aI3211
aI3211
aI3211
aa(lp2493
I763
aI414
aI2212
aI2198
aa(lp2494
I2287
aI1746
aI881
aI3367
aI1675
aI3047
aI3358
aa(lp2495
I284
aI464
aI243
aI3339
aI2972
aa(lp2496
I2450
aI2065
aI2244
aI2751
aI557
aI2629
aI414
aI1128
aI356
aa(lp2497
I320
aI2191
aI1952
aI1477
aI2577
aI1802
aI1467
aI1553
aI2781
aI3307
aI582
aI2340
aI1952
aa(lp2498
I1920
aI1314
aI2722
aI80
aI344
aI243
aI1537
aI3219
aI1846
aa(lp2499
I2450
aI1151
aa(lp2500
I275
aI28
aI28
aI101
aI243
aI529
aI3019
aI1779
aI1675
aI1075
aI2888
aI741
aI2580
aI1952
aI1952
aa(lp2501
I1675
aI320
aI2572
aI572
aa(lp2502
I644
aI1838
aI1952
aI1952
aI1952
aa(lp2503
I488
aI572
aI3397
aI1455
aI572
aI339
aI243
aI1901
aI3199
aI1411
aI243
aI730
aI572
aI2676
aI572
aI3259
aa(lp2504
I2325
aI3448
aa(lp2505
I2806
aI1510
aI2090
aI2633
aI626
aI1165
aI243
aI648
aI1952
aa(lp2506
I1797
aI2561
aI1071
aI1749
aa(lp2507
I2114
aI3042
aI3358
aI1952
aI3358
aI414
aI173
aa(lp2508
I2781
aI414
aI2569
aI2646
aI890
aa(lp2509
I1710
aI2561
aI1844
aI13
aa(lp2510
I4
aI431
aI666
aI3398
aI1746
aI1072
aI181
aI1802
aI2408
aI431
aI1036
aa(lp2511
I3458
aI267
aI547
aI120
aa(lp2512
I130
aI851
aI431
aI551
aI617
aI1123
aI1952
aa(lp2513
I2564
aI414
aI689
aI1976
aI2693
aa(lp2514
I3401
aI1952
aa(lp2515
I3122
aI2461
aI2772
aI2887
aI626
aI1675
aI1128
aa(lp2516
I431
aI1191
aI644
aI2874
aa(lp2517
I320
aa(lp2518
I1279
aI414
aI438
aI2214
aI2629
aI414
aI1128
aI2754
aa(lp2519
I3042
aI617
aI3042
aI1952
aI1952
aI1952
aa(lp2520
I3122
aI2461
aI2772
aI2887
aI626
aI1675
aI1128
aa(lp2521
I194
aI862
aI618
aI1368
aI3358
aa(lp2522
I1432
aI1897
aI763
aI1205
aa(lp2523
I431
aI880
aI748
aI286
aI2801
aI617
aI1145
aI1952
aI1952
aa(lp2524
I3401
aI1952
aa(lp2525
I431
aI1314
aI320
aI1985
aI1885
aI1952
aI1952
aa(lp2526
I1675
aI1691
aI1191
aI2709
aI569
aa(lp2527
I1797
aI2561
aI497
aI431
aI3029
aI3376
aI1722
aI431
aI3029
aI2450
aa(lp2528
I1990
aI458
aI431
aI1603
aI1976
aI245
aI1214
aI1952
aa(lp2529
I2317
aI1216
aI1692
aa(lp2530
I1797
aI2561
aI497
aI2102
aI431
aI3029
aI748
aI431
aI3029
aI2450
aa(lp2531
I1976
aI2735
aI2709
aI661
aI2090
aI748
aI1746
aI1952
aa(lp2532
I2970
aI2561
aI3231
aa(lp2533
I2806
aI1746
aI621
aI1802
aI3309
aI2249
aI1664
aI1679
aI709
aI3358
aI181
aI1802
aI3309
aI2249
aI1664
aI1679
aI709
aI3358
aI3358
aI3358
aI3358
aI3358
aI3358
aI3358
aI3358
aI621
aI1802
aI3309
aI2249
aI1664
aI1679
aI709
aI3358
aa(lp2534
I1849
aI1290
aI2561
aI1274
aI85
aI2450
aI3355
aa(lp2535
I2806
aI1746
aI621
aI1802
aI3309
aI2249
aI1664
aI1679
aI709
aI3358
aI3358
aI3358
aI3358
aI3358
aI3358
aa(lp2536
I1184
aI2781
aI1528
aI1952
aa(lp2537
I320
aI958
aI2772
aI2244
aI399
aa(lp2538
I2970
aI1680
aI855
aI626
aI2495
aI320
aI1985
aI3219
aI862
aI3358
aa(lp2539
I320
aI1683
aI1425
aI572
aI905
aI3190
aI3134
aI3376
aI572
aI572
aI572
aa(lp2540
I2301
aI2408
aI572
aa(lp2541
I3401
aI1952
aa(lp2542
I764
aa(lp2543
I1456
aI2893
aa(lp2544
I739
aI580
aI1673
aa(lp2545
I3203
aI1746
aI1749
aI414
aI414
aI320
aI1585
aI557
aI1071
aa(lp2546
I1826
aI2428
aI1145
aI1367
aI2450
aI1913
aI572
aI142
aI1952
aa(lp2547
I80
aI958
aI1528
aI414
aI2054
aI3134
aa(lp2548
I726
aI1274
aI2450
aI85
aI3355
aa(lp2549
I1388
aI431
aI1826
aI1798
aI1795
aa(lp2550
I1675
aI3150
aI1952
aa(lp2551
I3453
aI414
aI844
aI2795
aI1230
aI2922
aI1952
aI1952
aa(lp2552
I431
aI3029
aI3376
aI28
aI431
aI3029
aI2450
aa(lp2553
I621
aI1916
aI2244
aI3358
aa(lp2554
I1854
aI1008
aI265
aI1008
aI2806
aI1510
aI181
aI1746
aI1802
aI2231
aI2922
aI1952
aI1952
aa(lp2555
I2795
aI2317
aI3219
aI617
aI1675
aI1191
aI2220
aI405
aI2450
aI2450
aI2450
aa(lp2556
I2584
aI414
aI2583
aI618
aI2577
aI1145
aI1952
aI1952
aa(lp2557
I2241
aI1952
aI1952
aa(lp2558
I1218
aI862
aI1710
aa(lp2559
I1976
aI712
aI3134
aI3068
aa(lp2560
I3032
aI3032
aI3032
aI3032
aI3032
aI3032
aI3032
aI1230
aI1564
aI1432
aI763
aI810
aI3032
aI3032
aI3032
aI3032
aI3032
aI3032
aI3032
aa(lp2561
I926
aI3258
aI1375
aI431
aI789
aI3134
aI965
aI3358
aa(lp2562
I1746
aI1735
aI1976
aI262
aI1952
aa(lp2563
I320
aI802
aI243
aI3266
aI3413
aI243
aI539
aI243
aI557
aI3376
aa(lp2564
I320
aI975
aI2953
aa(lp2565
I735
aI1553
aI2024
aI2781
aI334
aI572
aI572
aI572
aa(lp2566
I399
aI1652
aI431
aI1191
aa(lp2567
I1797
aI2561
aI320
aI3004
aI3076
aI2223
aI3231
aI1965
aa(lp2568
I1247
aI1746
aI3019
aI555
aI748
aa(lp2569
I844
aI2795
aI2922
aI243
aI618
aI862
aI26
aI1976
aI2379
aI572
aa(lp2570
I2356
aI1976
aI80
aI636
aI2506
aI1252
aI626
aI2742
aI331
aI1952
aI1952
aI1952
aa(lp2571
I2231
aI2922
aI1854
aI1008
aI265
aI1008
aI2806
aI1510
aI181
aI1746
aI1802
aI3309
aI1952
aa(lp2572
I265
aI1033
aI71
aI2179
aI1675
aI3252
aI1952
aa(lp2573
I2643
aa(lp2574
I2561
aa(lp2575
I122
aI1746
aI3316
aI1802
aI572
aI572
aI572
aI572
aa(lp2576
I2090
aI435
aI1952
aI1274
aI85
aI1952
aI1952
aI1952
aa(lp2577
I320
aI975
aI2953
aa(lp2578
I489
aI2450
aI95
aI36
aI880
aI2918
aI2496
aI518
aI572
aI572
aI572
aa(lp2579
I356
aI867
aa(lp2580
I1432
aI1897
aI763
aI1205
aa(lp2581
I3121
aI995
aI626
aI1327
aa(lp2582
a(lp2583
I1215
aa(lp2584
I1814
aI485
aa(lp2585
I320
aI1002
aI2702
aI2282
aI1952
aI1952
aI1952
aa(lp2586
a(lp2587
I2270
aI1246
aI789
aI2769
aI1675
aI1284
aI1952
aa(lp2588
I1710
aI2561
aI2837
aI740
aI707
aI1952
aa(lp2589
I943
aI1498
aI1879
aI3079
aI2561
aI3122
aI1184
aI1952
aI1952
aI1952
aI1952
aa(lp2590
I2573
aI3124
aI88
aI571
aI1097
aI697
aa(lp2591
I2795
aI617
aI431
aI1071
aI1708
aI1952
aI414
aI1991
aa(lp2592
I458
aI2450
aI134
aI1976
aI2896
aI2545
aI1425
aI773
aI1952
aa(lp2593
I1848
aI2922
aI675
aI2296
aI2450
aI2450
aI2450
aa(lp2594
I1132
aI557
aI3386
aI572
aa(lp2595
a(lp2596
I1797
aI2561
aI88
aI1781
aa(lp2597
I2806
aI1746
aI621
aI1916
aI2244
aI3358
aa(lp2598
I2806
aI1746
aI54
aI1768
aI2282
aI3358
aa(lp2599
I1675
aI1422
aa(lp2600
I2795
aI617
aI80
aI1722
aI150
aI572
aI2245
aI2254
aI1245
aa(lp2601
I2090
aI435
aI1952
aI1274
aI85
aI1952
aI1952
aI1952
aa(lp2602
I1858
aI1438
aI2051
aI1548
aI557
aI1916
aI1952
aI1952
aI1952
aI1952
aI1952
aa(lp2603
I2795
aI617
aI80
aI1722
aI150
aI572
aI2245
aI2254
aI1245
aa(lp2604
I2181
aI1675
aI3377
aI2758
aI1798
aI1795
aI1697
aI1367
aI2065
aI2017
aI1952
aa(lp2605
I2450
aI2517
aI414
aI2450
aI1488
aI440
aI1802
aI2954
aa(lp2606
I2308
aI414
aI431
aI3156
aI282
aI1652
aI702
aa(lp2607
I1746
aI3019
aI1802
aI3006
aI2795
aa(lp2608
I309
aI3134
aI414
aI2754
aI414
aI3076
aI748
aI431
aI1942
aI1664
aI431
aI883
aI3231
aa(lp2609
I529
aI3309
aI1746
aI2116
aI2795
aI243
aI1097
aI572
aI572
aI572
aI572
aa(lp2610
I539
aI557
aI1798
aI2781
aI1675
aI2360
aa(lp2611
I2361
aI1499
aI2282
aI3219
aI572
aI572
aI572
aa(lp2612
I2607
aI2809
aI354
aI1338
aI2772
aI707
aI1332
aI2709
aI661
aa(lp2613
I2039
aI3320
aI1256
aI320
aI2042
aI2282
aI1952
aI1952
aa(lp2614
I2756
aI1976
aI1667
aI557
aI3184
aI1873
aI1191
aI2612
aI3076
aI333
aI3231
aa(lp2615
I3084
aI229
aI55
aI292
aI1952
aI1952
aI1952
aI1952
aI1952
aI1952
aI1952
aI1952
aa(lp2616
I146
aI1710
aI414
aI1373
aI2879
aI938
aa(lp2617
I1797
aI2561
aI2499
aI3395
aI3337
aa(lp2618
I985
aI3198
aI2450
aI2450
aI2450
aI2450
aI2450
aa(lp2619
I1812
aI146
aI306
aa(lp2620
I2795
aI617
aI80
aI1722
aI2254
aI1245
aa(lp2621
I1662
aI2646
aI414
aI414
aI1477
aI229
aI2450
aI95
aI2781
aI1976
aI858
aI2558
aI1952
aa(lp2622
I707
aI3049
aa(lp2623
I1907
aI519
aI1561
aI1746
aI1802
aI1976
aI320
aI3030
aI2028
aa(lp2624
I1797
aI2561
aI2499
aI3395
aI2420
aI1952
aa(lp2625
I2171
aa(lp2626
I2361
aI1499
aI2282
aI3219
aI572
aI572
aI572
aa(lp2627
I320
aI636
aI414
aI570
aa(lp2628
I1375
aI2244
aI3212
aI2309
aa(lp2629
I3029
aI3175
aI1694
aI3376
aI2312
aI1952
aI320
aI1777
aI1952
aI2735
aI717
aI1952
aa(lp2630
I1707
aI1707
aI1707
aI3198
aI626
aI392
aI1952
aI2888
aI2888
aI2888
aa(lp2631
I1477
aI2244
aI2781
aI1675
aI2496
aI55
aa(lp2632
I2735
aI2781
aI414
aI2569
aI2391
aI1952
aa(lp2633
a(lp2634
I320
aI2282
aa(lp2635
I2795
aI617
aI80
aI1722
aI150
aI572
aI2245
aI2254
aI1245
aa(lp2636
I1116
aI1675
aI2709
aI1309
aI572
aa(lp2637
I2189
aI139
aa(lp2638
I1000
aI2578
aI626
aI431
aI2861
aa(lp2639
I1952
aI414
aI414
aI414
aI414
aI414
aI3388
aI414
aI414
aI414
aI414
aI414
aI2058
aI862
aI2245
aI414
aI414
aI414
aI414
aI3388
aI414
aI414
aI414
aI414
aI414
aI1952
aa(lp2640
I320
aI1002
aI2702
aI2282
aI1952
aI1952
aI1952
aa(lp2641
I1564
aI1757
aI1952
aI2408
aI2228
aa(lp2642
I529
aI303
aI3102
aI1746
aI243
aI2301
aI129
aI1952
aI1952
aI1952
aI1952
aa(lp2643
I1000
aI2578
aI626
aI431
aI2861
aa(lp2644
I2495
aI219
aI1097
aI1952
aI1952
aI1952
aI1952
aI1952
aI1952
aI1952
aI1952
aa(lp2645
I2023
aI1894
aI1952
aI1952
aI1952
aI1952
aa(lp2646
I2795
aI617
aI80
aI1722
aI150
aI572
aI2245
aI1403
aa(lp2647
I1675
aI3051
aa(lp2648
I849
aI415
aI3358
aI1952
aI3358
aI1952
aa(lp2649
I2399
aI1139
aI1952
aI1952
aI1952
aI1952
aI1952
aI1952
aI1952
aI1952
aI1952
aa(lp2650
I2643
aI1952
aa(lp2651
I2200
aI1574
aI2769
aI2524
aI1952
aa(lp2652
I1749
aa(lp2653
a(lp2654
I2795
aI617
aI2946
aI1952
aI1952
aI1952
aa(lp2655
I529
aI2923
aI1797
aI997
aI243
aI245
aI557
aI1700
aI1270
aI82
aI1952
aa(lp2656
I2902
aI2726
aI667
aa(lp2657
I2795
aI617
aI80
aI1722
aI1403
aI572
aI3259
aa(lp2658
a(lp2659
I2090
aI626
aI880
aI1952
aI1952
aI985
aI2244
aI748
aI758
aa(lp2660
I1797
aI2561
aI844
aI2795
aI2922
aI1952
aa(lp2661
I1797
aI2561
aI194
aI862
aI618
aI1368
aI3358
aa(lp2662
I3029
aI664
aI1008
aI399
aI1008
aI906
aI2440
aI3117
aI3269
aI2806
aI1510
aI181
aI1746
aI1802
aI3309
aI617
aI1259
aI1976
aI3260
aI3407
aI243
aa(lp2663
I320
aI1002
aI2702
aI2282
aa(lp2664
I3455
aa(lp2665
I3190
aI3134
aI748
aI1184
aa(lp2666
I1985
aI146
aI2282
aI1952
aI1952
aI1952
aa(lp2667
I3019
aI1976
aI1986
aI3358
aI621
aI2244
aI3358
aa(lp2668
I1191
aI84
aI62
aI414
aI431
aI1041
aa(lp2669
I1008
aI320
aI1008
aI2450
aI251
aI3190
aI1128
aI3376
aI1008
aI2138
aI1675
aI2709
aI1008
aa(lp2670
I1797
aI2722
aI135
aI748
aI3317
aI630
aI572
aI572
aI572
aI748
aI871
aI2769
aI2563
aI626
aI285
aa(lp2671
I2805
aI2450
aI1277
aI243
aI2421
aI2613
aI1697
aI2450
aI1316
aI2345
aI1952
aa(lp2672
I2090
aI435
aI1952
aI1279
aI85
aI1952
aa(lp2673
I3190
aI3134
aI748
aI1184
aa(lp2674
I2135
aI2903
aI2433
aa(lp2675
I1976
aI240
aI2483
aI572
aI572
aI572
aI572
aI572
aa(lp2676
I583
aI3339
aI2709
aa(lp2677
I320
aI1002
aI3011
aI1952
aI1952
aI1952
aI1952
aa(lp2678
I1797
aI2561
aI1976
aI1893
aI582
aI5
aI1952
aI1952
aa(lp2679
I2052
aa(lp2680
I1897
aI1151
aI1939
aa(lp2681
I1797
aI2561
aa(lp2682
I3339
aI2709
aI2561
aI2450
aI1274
aI101
aI752
aI831
aI2561
aI849
aI2126
aI2561
aI849
aI2382
aI1952
aI1952
aa(lp2683
I1797
aI2561
aI1675
aI320
aI2317
aI3219
aa(lp2684
I1707
aI1707
aI320
aI1685
aI1844
aI2496
aI1204
aI2080
aI572
aI572
aI572
aa(lp2685
I320
aI1002
aI2282
aI1952
aI1952
aI1952
aa(lp2686
I1797
aI2561
aI1446
aI243
aI670
aI243
aI1703
aI243
aI2175
aa(lp2687
I320
aI3278
aI2561
aI1913
aI3155
aI626
aI1913
aI773
aI2561
aI849
aI2126
aI2561
aI849
aI2382
aI1952
aI1952
aa(lp2688
I1797
aI2561
aa(lp2689
I849
aI3299
aI3175
aI955
aa(lp2690
I1797
aI2561
aa(lp2691
I3190
aI3134
aI748
aI1184
aa(lp2692
I80
aI670
aI528
aI1952
aa(lp2693
a(lp2694
I2960
aI218
aI2789
aI3210
aI1952
aI1952
aa(lp2695
I2163
aI3164
aI414
aI1281
aI929
aI3116
aI1274
aa(lp2696
I1832
aI2709
aI1216
aa(lp2697
I1476
aI2329
aI2496
aI2282
aI1079
aI2849
aI2737
aa(lp2698
I2665
aI1123
aI2103
aI80
aI3219
aa(lp2699
I1797
aI2561
aa(lp2700
I320
aI3278
aI2561
aI1913
aI3155
aI626
aI1913
aI3279
aI2561
aI849
aI2126
aI2561
aI849
aI2382
aI1952
aI1952
aa(lp2701
I1797
aI2561
aa(lp2702
I1675
aI1897
aI1151
aa(lp2703
I1025
aI2756
aI320
aI2686
aI2059
aI1264
aI431
aI2303
aa(lp2704
I3166
aI2561
aI138
aI733
aI1367
aa(lp2705
I218
aI2789
aI3210
aI1952
aa(lp2706
I1746
aI311
aI1807
aI3006
aI2795
aI572
aI572
aI572
aI572
aa(lp2707
I1797
aI2561
aa(lp2708
I1985
aI146
aI2924
aa(lp2709
I1003
aI2938
aI2772
aI2271
aI2692
aa(lp2710
I2709
aI810
aa(lp2711
I2709
aI810
aa(lp2712
I1120
aI1746
aI748
aI2642
aI2918
aI447
aI1829
aa(lp2713
I2709
aI3365
aI2772
aI505
aI1652
aI1306
aa(lp2714
I3134
aI1829
aI3119
aI2772
aI929
aa(lp2715
I1512
aI1952
aa(lp2716
I1124
aa(lp2717
I3401
aI243
aI194
aI2287
aI1746
aI1952
aa(lp2718
I1058
aI822
aI320
aI2716
aI572
aa(lp2719
I1797
aI2561
aa(lp2720
I3401
aI243
aI194
aI2287
aI1746
aI1952
aa(lp2721
I969
aI1675
aI582
aI748
aI2450
aI1277
aI572
aI718
aa(lp2722
I1477
aI90
aI1722
aI2276
aI243
aI2652
aI557
aI460
aa(lp2723
I320
aI3438
aI1952
aI2769
aI2296
aI1058
aI3029
aI414
aI2126
aI286
aI526
aI243
aI2061
aI1296
aa(lp2724
I1153
aI414
aI1132
aI414
aI3112
aI572
aa(lp2725
I1976
aI80
aI2048
aI3315
aI2920
aI2769
aI3396
aI1327
aI2067
aI2795
aI1300
aI557
aI2337
aI2528
aI177
aI1802
aI1320
aI414
aI1155
aI748
aI1916
aI2572
aI1952
aI129
aI2918
aI1230
aI2994
aI1071
aI2569
aI3097
aI414
aI1620
aa(lp2726
I1746
aI1033
aI2756
aI1952
aI1952
aI1952
aa(lp2727
I89
aI617
aI194
aI1802
aI2666
aI1675
aI3377
aI3190
aI3134
aa(lp2728
I1976
aI80
aI2084
aa(lp2729
I3032
aI3032
aI3032
aI1707
aI3339
aI3117
aI2453
aI2116
aI1145
aI1952
aI2888
aI3032
aI3032
aI3032
aa(lp2730
I320
aI2317
aI3219
aa(lp2731
I320
aI3376
aI1952
aI1952
aI1952
aa(lp2732
I2945
aI288
aI539
aI902
aI2945
aI288
aI2945
aI288
aI2945
aI288
aI2945
aa(lp2733
I194
aI1746
aI1033
aI2270
aI1246
aI2781
aI431
aI1191
aI1952
aa(lp2734
I631
aI3272
aI243
aI2301
aI2485
aa(lp2735
I1394
aI557
aI1413
aI3358
aa(lp2736
I2525
aI1718
aI1976
aI74
aI326
aI2360
aI1727
aa(lp2737
I2107
aI1976
aI500
aI3358
aI89
aI862
aI691
aa(lp2738
I1952
aI2231
aI2922
aI2529
aI3367
aI1246
aI2781
aI431
aI1191
aI1952
aa(lp2739
I2450
aI718
aI243
aI1016
aI414
aI414
aI849
aI2051
aI162
aI414
aI414
aI2806
aI1510
aI1848
aI618
aI2528
aI2795
aI880
aI1952
aa(lp2740
I320
aI1123
aI146
aI3219
aI3313
aI1952
aa(lp2741
I1976
aI240
aI2483
aI572
aI572
aI572
aI572
aI572
aa(lp2742
I10
aI414
aI1973
aI1250
aa(lp2743
I2089
aI2317
aI3410
aI572
aI572
aI572
aI1367
aI2450
aI735
aI2508
aI1786
aI572
aa(lp2744
I2643
aI1680
aI572
aI572
aa(lp2745
I2107
aI1976
aI500
aI3358
aI89
aI862
aI1976
aI1674
aI1952
aI1952
aa(lp2746
I1375
aI2922
aI1652
aI3175
aI707
aI1952
aI414
aI3318
aa(lp2747
I1854
aI617
aI1746
aI2030
aI3358
aa(lp2748
I1140
aI2797
aI3335
aI557
aI966
aI2615
aI814
aa(lp2749
I2837
aI2717
aI1502
aI2812
aI2100
aI1659
aI699
aa(lp2750
I849
aI1916
aI3193
aI572
aI572
aI572
aI2795
aI617
aI431
aI1230
aI1259
aa(lp2751
I1585
aI748
aI1476
aa(lp2752
I116
aI1184
aI74
aI3331
aI1553
aI626
aI161
aa(lp2753
I3433
aI661
aa(lp2754
I3379
aI1327
aI1309
aI1309
aa(lp2755
I462
aI2110
aa(lp2756
I462
aI2110
aI617
aI442
aI748
aI1746
aa(lp2757
I462
aI2110
aI617
aI442
aI748
aI1746
aa(lp2758
I320
aI1648
aI241
aI1952
aI1952
aI1952
aI2888
aI1707
aI572
aI2561
aI2313
aI1008
aI1008
aI572
aI243
aa(lp2759
I80
aI2781
aI1403
aI572
aI3259
aa(lp2760
I105
aI2885
aI1008
aI2919
aI1008
aI3380
aI2664
aI459
aa(lp2761
I1797
aI2561
aI1316
aI243
aI2421
aI991
aI3422
aI1141
aI1952
aa(lp2762
I1746
aI3019
aI571
aI555
aI1802
aI3352
aI734
aa(lp2763
I1019
aI636
aI1282
aI557
aI1399
aI2646
aI648
aI1952
aa(lp2764
I1797
aI2561
aI1071
aa(lp2765
I80
aI2781
aI1403
aI572
aI3259
aa(lp2766
I617
aI2795
aI1746
aa(lp2767
I988
aI414
aI431
aI80
aI1817
aI904
aI963
aI2090
aI2203
aI2528
aI431
aI2963
aI1860
aa(lp2768
I1629
aI1826
aI1798
aI1795
aa(lp2769
I3190
aI2883
aI2923
aI1584
aI1770
aI1952
aI1952
aa(lp2770
I80
aI2781
aI1403
aI572
aI3259
aa(lp2771
I2313
aI2561
aI489
aI2450
aI2004
aI626
aI431
aI2773
aI147
aI331
aI414
aI618
aI3324
aI1952
aI1952
aI1952
aa(lp2772
I2572
aI2781
aI228
aI2637
aI1942
aa(lp2773
I494
aI636
aI3358
aa(lp2774
I741
aI1802
aI2887
aI557
aI2887
aI748
aI320
aI1952
aI1952
aI1952
aI3076
aI1146
aI3231
aa(lp2775
I706
aI74
aI586
aI1553
aI1
aI334
aI2024
aI1952
aa(lp2776
I2756
aI2450
aI2895
aI557
aI1976
aI3114
aI1952
aa(lp2777
I2769
aI3357
aI243
aI3292
aI1049
aa(lp2778
I1703
aI1012
aI1952
aa(lp2779
I2795
aI617
aI80
aI2781
aI150
aI572
aI2245
aI2254
aI1245
aa(lp2780
I1703
aI1012
aI1952
aa(lp2781
I2888
aI2888
aI194
aI1802
aI3006
aI1997
aI733
aI862
aI2724
aI2772
aI404
aI1707
aI1707
aa(lp2782
I1120
aI1746
aI748
aI1675
aI2684
aI794
aI1952
aI3076
aI2026
aI3231
aa(lp2783
I1917
aI1985
aI414
aI320
aI131
aI3076
aI1869
aI3231
aa(lp2784
I1308
aI2918
aI81
aI2747
aI572
aI572
aI572
aI2756
aI1976
aI320
aI2174
aI748
aI1912
aI1952
aI3076
aI1487
aI3231
aa(lp2785
I1675
aI3029
aI3013
aI572
aI572
aa(lp2786
I2090
aI435
aI1952
aI3164
aI2503
aI572
aI3457
aa(lp2787
I2007
aI8
aI2103
aI1976
aI2896
aI1952
aI1952
aa(lp2788
I1984
aI2578
aI1976
aI1000
aI572
aI3076
aI1476
aI1367
aI3231
aI2296
aI2022
aa(lp2789
I1984
aI2578
aI1976
aI1000
aI572
aI3076
aI1476
aI1367
aI3231
aI2296
aI1431
aa(lp2790
I24
aI748
aI431
aI2824
aI414
aI808
aa(lp2791
I2443
aI1675
aI2833
aI414
aI1689
aa(lp2792
I926
aI1259
aI162
aI748
aI1746
aI3358
aI414
aI2012
aa(lp2793
I1797
aI2561
aI129
aI154
aI1145
aI2715
aI414
aI2194
aa(lp2794
I3242
aI2561
aI752
aI752
aI730
aI572
aI1390
aI572
aI3167
aa(lp2795
I3028
aI1985
aI3076
aI2911
aI3231
aa(lp2796
I3028
aI1985
aI3076
aI1212
aI3231
aa(lp2797
I2918
aI3267
aI2772
aI672
aI1952
aI3164
aI2503
aI572
aI3457
aa(lp2798
I1123
aI1985
aI3076
aI1631
aI3231
aa(lp2799
I3007
aI2725
aI557
aI1733
aI238
aI3076
aI236
aI2154
aI1244
aI3231
aI3076
aI2975
aI3231
aa(lp2800
I2
aI880
aI2621
aI572
aa(lp2801
I1123
aI320
aI1985
aI3376
aI1952
aI1952
aI1952
aa(lp2802
I3362
aI1675
aI146
aI3219
aI89
aa(lp2803
I1883
aI2561
aa(lp2804
I3046
aI2771
aI2296
aI141
aI414
aI873
aa(lp2805
I2735
aI3140
aI1952
aa(lp2806
I1976
aI2831
aI995
aI1763
aI2984
aI572
aI414
aI3076
aI2838
aI3231
aa(lp2807
I3311
aI499
aI1952
aI1913
aI752
aI2013
aI752
aI142
aI3164
aI2503
aI572
aI1741
aa(lp2808
I2380
aI2437
aI414
aI591
aI794
aI414
aI44
aI414
aI3076
aI2763
aI3231
aa(lp2809
I2888
aI2313
aI1707
aI320
aI334
aI2502
aI1952
aa(lp2810
I286
aI2801
aI1952
aI1952
aa(lp2811
I783
aI1923
aI748
aI1335
aI1952
aI1952
aI1952
aa(lp2812
I2522
aI2450
aI2450
aI414
aI2461
aI617
aI2140
aI414
aI431
aI2361
aI102
aI1952
aI1952
aa(lp2813
I2090
aI435
aI2503
aI572
aI1248
aa(lp2814
I2090
aI435
aI2503
aI572
aI1248
aa(lp2815
I3032
aI3032
aI3032
aI2006
aI243
aI2421
aI243
aI2421
aI3134
aI2754
aI3032
aI3032
aI3032
aa(lp2816
I1145
aI2312
aI1952
aI3164
aI2503
aI572
aI1584
aa(lp2817
I2991
aI810
aa(lp2818
I1854
aI3019
aI1746
aI571
aI2577
aI1802
aI1210
aI3358
aa(lp2819
I2090
aI626
aI880
aI748
aI2221
aI572
aI572
aI572
aI3206
aI542
aI1697
aI1980
aI243
aI1838
aI1818
aI1952
aI3076
aI1356
aI3231
aa(lp2820
I2319
aI337
aI1637
aI269
aI3312
aa(lp2821
I2795
aI617
aI80
aI1722
aI1403
aI572
aI3259
aa(lp2822
I849
aI2667
aI243
aI849
aI3188
aI1952
aI1952
aI1952
aa(lp2823
I1861
aI356
aI2133
aa(lp2824
I3019
aI1746
aI410
aI2795
aI1230
aI688
aI3358
aa(lp2825
I2643
aa(lp2826
I2572
aa(lp2827
I2992
aI3178
aI2769
aI2254
aI1245
aa(lp2828
I2317
aI2415
aI810
aI572
aI572
aI572
aI1237
aI3312
aa(lp2829
I1432
aI80
aI1453
aI2781
aI431
aI1191
aI3358
aa(lp2830
I2300
aI1952
aI1976
aI1408
aI2726
aI2781
aI431
aI1191
aI3358
aI1952
aI3358
aa(lp2831
I89
aa(lp2832
I2992
aI80
aI3422
aI2769
aI150
aI572
aI2245
aI2254
aI1245
aa(lp2833
I3339
aI3072
aI189
aI3115
aI1952
aI320
aI3114
aI1952
aI1952
aI1952
aI1952
aI1952
aa(lp2834
I748
aI1675
aI2499
aI2319
aa(lp2835
a(lp2836
I2926
aa(lp2837
I129
aI1145
aI1952
aa(lp2838
I2643
aa(lp2839
I1797
aI2561
aI1675
aI1749
aI2572
aa(lp2840
I529
aI3019
aI3407
aI761
aI80
aI3139
aI626
aI113
aI2064
aa(lp2841
I1797
aI2561
aI197
aI2561
aI2508
aI1675
aI3051
aa(lp2842
I2643
aa(lp2843
I572
aa(lp2844
I21
aI2296
aI1058
aI1309
aI2709
aa(lp2845
I572
aa(lp2846
I80
aI2781
aI150
aI572
aI2245
aI2254
aI1245
aa(lp2847
I1797
aI2561
aI80
aI437
aI1528
aa(lp2848
I1797
aI2561
aI1675
aI3051
aI748
aI1718
aI1465
aa(lp2849
I80
aI2781
aI2254
aI1245
aa(lp2850
I399
aI431
aI189
aI2348
aI917
aI1510
aI133
aI1746
aI1952
aa(lp2851
I792
aI243
aI803
aI1259
aI2031
aI3358
aa(lp2852
I1191
aI2360
aI2423
aI1119
aa(lp2853
I80
aI2781
aI150
aI572
aI2245
aI2254
aI1245
aa(lp2854
I1375
aI1675
aI2709
aI2781
aI431
aI1191
aI1145
aI1952
aI1952
aa(lp2855
I2408
aI2795
aI1952
aI1952
aa(lp2856
I320
aI717
aI1971
aa(lp2857
a(lp2858
I3109
aI431
aI2275
aI2840
aa(lp2859
I80
aI2781
aI1403
aI572
aI3259
aa(lp2860
I926
aI1746
aI1375
aI1675
aI1071
aI688
aI3358
aa(lp2861
I180
aI1675
aI2155
aI1664
aI2173
aa(lp2862
I1375
aI1675
aI3368
aI140
aI2805
aI1697
aI2355
aI55
aI891
aI143
aI752
aI142
aa(lp2863
I2756
aI1976
aI320
aI2174
aI1802
aI3039
aa(lp2864
I1444
aI3006
aI431
aI2604
aI1952
aa(lp2865
I80
aI1722
aI1403
aI572
aI3259
aa(lp2866
I1880
aI849
aI1916
aI748
aI572
aI572
aI572
aI2996
aI1952
aI1952
aI1952
aa(lp2867
I1761
aI2781
aI431
aI3084
aI1952
aa(lp2868
I347
aI1134
aa(lp2869
I3388
aI880
aI1941
aI3388
aa(lp2870
I1749
aa(lp2871
I809
aI3123
aI2469
aI698
aI243
aI160
aa(lp2872
I2300
aI572
aI572
aI572
aI2795
aI617
aI3433
aI1952
aa(lp2873
I80
aI1722
aI3242
aI2561
aI752
aI752
aI1403
aI572
aI3259
aa(lp2874
I2313
aI2561
aI1008
aI320
aI2704
aI1008
aI1979
aI1675
aI2317
aI3219
aI2781
aI229
aI675
aI74
aI1880
aI568
aI1008
aI1315
aI1008
aa(lp2875
I320
aI1268
aI1652
aI1008
aI2126
aI618
aI2034
aI1802
aI431
aI2405
aI3163
aI1008
aa(lp2876
I529
aI19
aI2795
aI2090
aI748
aI1746
aI1952
aa(lp2877
I286
aI2801
aI2384
aI1675
aI1523
aa(lp2878
I2901
aI952
aI243
aI3430
aI572
aI414
aI1675
aI1389
aI748
aI2707
aI243
aI2593
aI557
aI2739
aI3376
aa(lp2879
I2313
aI2561
aI1648
aI572
aI572
aI572
aI2721
aI243
aI1765
aI3378
aI2677
aI572
aa(lp2880
I431
aI827
aI2853
aI1952
aa(lp2881
I3443
aI1128
aI2561
aI3413
aI748
aI1825
aa(lp2882
I2313
aI2561
aI1375
aI1322
aI1802
aI12
aI431
aI81
aI1952
aI3076
aI3391
aI3231
aa(lp2883
I25
aI1802
aI1395
aI1191
aI1057
aI414
aI1579
aI2561
aI3103
aa(lp2884
I1534
aI1903
aI929
aI2769
aI1878
aI1626
aI243
aI3430
aI572
aa(lp2885
I1746
aI3019
aI571
aI555
aI1802
aI3352
aI1730
aa(lp2886
I1976
aI1482
aI2090
aI748
aI1746
aI1952
aa(lp2887
I80
aI1722
aI1403
aI572
aI3259
aa(lp2888
I1797
aI2561
aI2100
aI396
aI1952
aa(lp2889
I3015
aa(lp2890
I1005
aI414
aI1932
aI1802
aI374
aI3449
aa(lp2891
I3087
aI1746
aI1952
aa(lp2892
I1420
aI1297
aI3438
aI243
aI2360
aI1664
aI1077
aI3376
aI2968
aI243
aI1539
aI2034
aI557
aI2954
aI256
aI1952
aa(lp2893
I1
aI993
aI1071
aI748
aI1746
aa(lp2894
I3087
aI1746
aI1952
aa(lp2895
I80
aI2781
aI1403
aI572
aI3259
aa(lp2896
I462
aI2110
aa(lp2897
I462
aI2110
aa(lp2898
I3258
aI1033
aI2923
aI1609
aI819
aI618
aI1952
aI1952
aI1952
aI1952
aI1952
aI1952
aI1952
aas.