(dp1
S'ham'
p2
(lp3
(lp4
I1796
aI2563
aI1252
aI576
aI2164
aI1452
aI413
aI3187
aI859
aI859
aa(lp5
I3140
aI413
aI2902
aI1649
aI3308
aa(lp6
I1032
aI2360
aI1289
aI1517
aI862
aI2602
aa(lp7
I1804
aI1645
aI1143
aI2667
aI1649
aI511
aa(lp8
I1756
aI1796
aI2563
aI1914
aI576
aI1470
aI1858
aI2563
aI2100
aI201
aI2916
aa(lp9
I402
aI220
aI396
aa(lp10
I928
aI3015
aI242
aI3066
aI242
aI1432
aI1200
aa(lp11
I1796
aI2563
aI2100
aI413
aI3265
aI631
aI508
aa(lp12
I406
aI750
aI1352
aa(lp13
I367
aI3378
aa(lp14
I1391
aI2563
aI1148
aI1978
aI2895
aa(lp15
I1858
aI2563
aI1595
aI1420
aa(lp16
I1391
aI2563
aI1315
aa(lp17
I1796
aI2563
aI1423
aI576
aI497
aI2360
aa(lp18
I3140
aI413
aI413
aI2325
aI896
aI1829
aI242
aI2212
aI242
aI848
aI2563
aI2958
aI242
aI1795
aa(lp19
I1791
aI1415
aa(lp20
I1796
aI2563
aI1914
aI576
aI1184
aI242
aI1142
aI2563
aI1552
aI242
aI1352
aI242
aI308
aI1649
aI1347
aI3259
aI576
aI85
aI2923
aI2458
aa(lp21
I2998
aa(lp22
I1796
aI2563
aI1914
aI576
aI1183
aI242
aI632
aI492
aI2563
aI608
aI413
aI2990
aI3049
aa(lp23
I1796
aI2563
aI1914
aI576
aI1183
aI242
aI632
aI492
aI2563
aI608
aI413
aI2990
aI3049
aa(lp24
I1796
aI2563
aI1914
aI576
aI1183
aI242
aI632
aI492
aI2563
aI608
aI413
aI2990
aI3049
aa(lp25
I1098
aI2563
aI78
aI3134
aI966
aI750
aI3316
aI628
aI2711
aa(lp26
I23
aI2892
aI750
aI1120
aI3163
aa(lp27
I2170
aI2608
aI2923
aI273
aI2627
aI576
aa(lp28
I2536
aI1452
aI576
aI1548
aa(lp29
I843
aI3361
aa(lp30
I1796
aI2563
aI843
aa(lp31
I843
aI3196
aa(lp32
I826
aI3370
aI2554
aI414
aa(lp33
I1796
aI2563
aI1914
aI576
aI1164
aI242
aI1142
aI2563
aI1347
aI242
aI3061
aI242
aI2750
aI242
aI1781
aI70
aI242
aa(lp34
I1391
aI2563
aI3259
aI576
aI85
aI2923
aI2458
aa(lp35
I1858
aI2563
aI2256
aI1347
aI242
aI1012
aI3265
aI1367
aI1012
aa(lp36
I1462
aa(lp37
I3062
aI862
aI2834
aI2667
aI2563
aI745
aI3361
aa(lp38
I1796
aI2563
aI1914
aI576
aI1447
aI242
aI1347
aI1947
aa(lp39
I1796
aI2563
aI1423
aI576
aI932
aI767
aa(lp40
I3433
aI1649
aI1213
aI733
aI3341
aI3327
aa(lp41
I1940
aI1649
aI453
aa(lp42
I1481
aI1087
aI1308
aI3077
aI2432
aI3233
aa(lp43
I2873
aI631
aI1928
aI358
aa(lp44
I3140
aI631
aI175
aa(lp45
I3140
aI2563
aI2579
aI1372
aI896
aI2541
aI2873
aa(lp46
I1245
aI2902
aI242
aI1616
aI242
aI1452
aI576
aI736
aa(lp47
I3140
aI135
aa(lp48
I151
aI2491
aI1832
aI3140
aa(lp49
I2067
aI929
aI631
aI2873
aI1289
aI1532
aI1524
aa(lp50
I1796
aI2563
aI1423
aI576
aI932
aI767
aa(lp51
I3295
aI1430
aI1831
aa(lp52
a(lp53
a(lp54
a(lp55
I717
aI1928
aI2741
aI101
aa(lp56
a(lp57
a(lp58
I1430
aI1802
aI1147
aa(lp59
I950
aI1563
aI2437
aI1278
aI2317
aI1925
aa(lp60
I469
aI2563
aI1081
aI2274
aI1829
aI3242
aI1605
aI1064
aI576
aI1252
aI1326
aI3077
aI2016
aI576
aI1252
aI3233
aa(lp61
I767
aa(lp62
I986
aI272
aI750
aI113
aI3077
aI1844
aI3233
aa(lp63
a(lp64
a(lp65
a(lp66
a(lp67
I3364
aI1649
aI61
aI2873
aI2563
aI126
aI576
aI1281
aa(lp68
I1796
aI2563
aI366
aa(lp69
I1244
aI703
aI8
aI1848
aa(lp70
I353
aI2258
aI359
aI1953
aa(lp71
I2656
aI2563
aI61
aI1422
aI896
aI2888
aa(lp72
I1796
aI2563
aI1423
aI576
aI755
aI193
aI927
aI532
aI186
aI2580
aI1827
aI3361
aa(lp73
I1217
aI1289
aI2086
aI896
aI1468
aI1978
aI2905
aI576
aa(lp74
I1391
aI1289
aI1867
aI2563
aI968
aI608
aI72
aI1935
aI1331
aI1612
aI1415
aa(lp75
I1858
aI2563
aI1612
aI988
aa(lp76
I1858
aI2563
aI453
aI1903
aa(lp77
I751
aI1200
aI242
aI1968
aI2563
aI1186
aI1289
aI2992
aI1576
aI242
aI1289
aI1804
aa(lp78
I818
aI3407
aa(lp79
I2930
aa(lp80
I2125
aI2471
aI2776
aa(lp81
I1084
aI2383
aa(lp82
I1391
aI2563
aI482
aI2436
aI1289
aI495
aa(lp83
I1796
aI2563
aI1423
aI576
aI758
aI1827
aI242
aI691
aI417
aa(lp84
I3295
aI888
aI323
aI576
aa(lp85
I55
aI3306
aI1289
aI2310
aI1773
aa(lp86
I2267
aI631
aI779
aI1289
aI60
aI839
aa(lp87
I3353
aI966
aa(lp88
I1864
aI859
aI862
aI631
aI3265
aa(lp89
I1100
aa(lp90
I2380
aI1649
aI1827
aa(lp91
I751
aI1200
aI2563
aI1804
aa(lp92
I867
aI242
aI1851
aI952
aI3286
aI441
aa(lp93
I1391
aI1649
aI3122
aI1802
aI2656
aI1645
aI2121
aI3039
aI3077
aI1967
aI1649
aI78
aI2300
aI3233
aa(lp94
I814
aI1978
aI500
aa(lp95
I103
aI1479
aI1722
aI527
aa(lp96
a(lp97
I384
aI2873
aI3364
aI2563
aI2789
aI1954
aa(lp98
I154
aI1526
aI3077
aI1432
aI836
aI413
aI413
aI1994
aI1200
aI3233
aI2366
aa(lp99
I1753
aa(lp100
I1238
aI1329
aa(lp101
I2067
aI304
aI1722
aI2323
aI242
aI3400
aI3077
aI1885
aI3233
aa(lp102
I1858
aI2563
aI1273
aI3451
aa(lp103
I1391
aI2563
aI1096
aI1649
aI2725
aI2137
aI533
aa(lp104
I1574
aa(lp105
I1796
aI2563
aI1423
aI576
aI755
aI193
aI927
aI532
aI186
aI2580
aI1827
aI3361
aa(lp106
I2656
aI2563
aI1490
aI1831
aa(lp107
I1781
aI367
aa(lp108
I44
aI631
aI595
aI1213
aI396
aI1289
aI1307
aI1108
aI242
aI3154
aI576
aa(lp109
I2656
aI2563
aI1926
aI2511
aI1289
aI1935
aI413
aI2573
aa(lp110
I3224
aI505
aa(lp111
I3140
aI631
aI234
aa(lp112
I3140
aI2563
aI1347
aI1213
aI3154
aI576
aI631
aI234
aa(lp113
I1275
aI2067
aI3266
aI631
aI1919
aa(lp114
I1238
aI2378
aa(lp115
I2656
aI2563
aI1285
aI3194
aI619
aa(lp116
I3140
aI2563
aI984
aa(lp117
I1423
aI576
aI755
aI193
aI927
aI532
aI186
aI2580
aI1827
aI3361
aa(lp118
I1098
aI2563
aI1032
aI862
aI2289
aI2342
aI2723
aI193
aI1509
aI1649
aI277
aI2146
aI1649
aI500
aI2288
aI1679
aa(lp119
I1391
aI2563
aI1032
aI1645
aI2443
aI679
aI1198
aI2884
aa(lp120
I1418
aI1649
aI31
aI750
aI2210
aa(lp121
I3224
aI1690
aI1716
aa(lp122
I3215
aa(lp123
I3340
aI2761
aa(lp124
I595
aI1213
aI2532
aa(lp125
I156
aI2264
aI1750
aI1649
aI1827
aa(lp126
I1757
aI1781
aI201
aI2466
aI570
aI3077
aI2326
aI127
aI3233
aa(lp127
I1431
aa(lp128
I1796
aI2563
aI1423
aI576
aI759
aI3307
aI2563
aI898
aI242
aI3254
aa(lp129
I3221
aI413
aI2039
aI1056
aI2021
aa(lp130
I1858
aI2563
aI1864
aI859
aI862
aI631
aI3265
aa(lp131
I1796
aI2563
aI1914
aI576
aI1398
aI242
aI1858
aI2563
aI1032
aI1645
aI2443
aI679
aI1198
aI2884
aa(lp132
I1796
aI2563
aI1914
aI576
aI1648
aI242
aI2571
aI631
aI1928
aI358
aa(lp133
I1796
aI2563
aI1914
aI576
aI1132
aI242
aI2110
aI2563
aI3265
aI1367
aI242
aI1978
aI2168
aI1645
aI308
aI1649
aI1347
aa(lp134
I2752
aI436
aI1289
aI3057
aI413
aI1411
aa(lp135
I1796
aI2563
aI1914
aI576
aI2850
aI242
aI1785
aI2563
aI3221
aI413
aI2039
aI1056
aI2021
aa(lp136
I3265
aI1367
aI3361
aa(lp137
I1796
aI2563
aI1914
aI576
aI1132
aI242
aI2110
aI2563
aI3265
aI1367
aI242
aI1978
aI2168
aI1645
aI308
aI1649
aI1347
aa(lp138
I1796
aI2563
aI1914
aI576
aI1132
aI242
aI2110
aI2563
aI3265
aI1367
aa(lp139
I691
aI1949
aI401
aI583
aa(lp140
I2363
aI576
aI2476
aI673
aa(lp141
I1544
aI2656
aa(lp142
I2559
aI3053
aI750
aI2688
aI1289
aI1213
aI1118
aa(lp143
I2149
aI631
aI3265
aI301
aa(lp144
I128
aI1622
aa(lp145
I1785
aI3407
aI896
aI3107
aa(lp146
I1391
aI2563
aI11
aa(lp147
I689
aI2563
aI127
aI750
aI761
aa(lp148
I1785
aI2563
aI679
aI1069
aI1649
aI1571
aa(lp149
I2121
aI3039
aI413
aI2565
aI3178
aI1802
aI1391
aa(lp150
I1916
aI1564
aI40
aI2563
aI1213
aI2413
aa(lp151
a(lp152
I1391
aI2563
aI1572
aI1832
aa(lp153
I2887
aI1660
aI3187
aI1836
aI568
aI570
aa(lp154
I1796
aI2563
aI1914
aI576
aI2600
aI242
aI1785
aI2563
aI3407
aI896
aI3107
aa(lp155
I1391
aa(lp156
I1431
aI631
aI61
aI1289
aI1781
aa(lp157
I3140
aI1576
aa(lp158
I1796
aI2563
aI1914
aI576
aI2850
aI242
aI1785
aI2563
aI3221
aI413
aI2039
aI1056
aI2021
aa(lp159
I1796
aI2563
aI1582
aI2922
aI2525
aI2124
aa(lp160
I1796
aI2563
aI308
aI1649
aI1347
aa(lp161
I1252
aI1431
aI2563
aI78
aI432
aa(lp162
I1645
aI1213
aI1289
aI620
aa(lp163
I1858
aI2563
aI562
aI244
aa(lp164
I3134
aI966
aI3361
aI3361
aI3361
aa(lp165
I2656
aI2563
aI1032
aI862
aI1012
aI1503
aI3356
aI1012
aa(lp166
I167
aI1243
aa(lp167
I2656
aI1591
aa(lp168
I1499
aI983
aI359
aa(lp169
I1858
aI2563
aI3109
aI1696
aI1332
aa(lp170
I1858
aI2563
aI1299
aI2133
aI1165
aI933
aI3077
aI1238
aI2673
aI3233
aa(lp171
I61
aI896
aI3033
aI2873
aa(lp172
I2536
aI1548
aa(lp173
I918
aa(lp174
I3265
aI1367
aa(lp175
I1062
aI2563
aI3265
aI1367
aa(lp176
I3265
aI1367
aa(lp177
I1012
aI3265
aI781
aI1012
aI1773
aI631
aI1750
aa(lp178
I500
aI1831
aI337
aa(lp179
I2188
aI3134
aI2755
aI2563
aI1969
aa(lp180
I570
aI1576
aa(lp181
I630
aI2563
aI1788
aI2823
aI2364
aI896
aI100
aI576
aI1407
aI3259
aI576
aI327
aa(lp182
I3238
aI896
aI2294
aI3083
aI3152
aa(lp183
I3186
aI750
aI1978
aI1377
aI2425
aI1649
aI3332
aI220
aa(lp184
I2965
aa(lp185
I1804
aI413
aI1832
aI1289
aI898
aI570
aI242
aI835
aa(lp186
I2877
aI3002
aI2153
aI2733
aI1775
aa(lp187
I1431
aI2563
aI1642
aI2373
aa(lp188
I1978
aI2873
aI784
aI2417
aI3077
aI583
aI3233
aa(lp189
I1675
aI1789
aI754
aa(lp190
I454
aI1186
aI650
aI410
aI413
aI1576
aa(lp191
I3248
aI1832
aI1479
aI1722
aI2571
aI576
aI2842
aI576
aa(lp192
I564
aI127
aI750
aI858
aI2563
aI154
aI2364
aI159
aa(lp193
I1796
aI2563
aI2248
aI576
aI3330
aI242
aI1785
aI2563
aI3101
aI1366
aI3187
aI1791
aa(lp194
I2656
aI2563
aI2996
aa(lp195
I776
aI1666
aa(lp196
I1391
aI1649
aI3122
aI1802
aI941
aI2656
aa(lp197
I473
aI1282
aI2563
aI3047
aI1576
aa(lp198
I1836
aI1892
aa(lp199
I1785
aI2563
aI271
aI631
aI2583
aI264
aa(lp200
I127
aI750
aI888
aI896
aI78
aI3052
aI750
aI127
aI1925
aa(lp201
I650
aI1213
aI2673
aI2036
aa(lp202
I2322
aI1914
aI413
aI2326
aI127
aI750
aI858
aI1953
aa(lp203
I269
aI2873
aI2771
aI2040
aa(lp204
I1391
aI2563
aI69
aI636
aa(lp205
I192
aI2141
aa(lp206
I1823
aI2902
aI1649
aI2076
aI413
aI2002
aI2873
aI197
aI2563
aa(lp207
I2742
aI576
aI3452
aI911
aI464
aa(lp208
I1796
aI2563
aI2248
aI576
aI2209
aI242
aI1785
aI2563
aI271
aI631
aI264
aa(lp209
I630
aI413
aI1783
aI2923
aI150
aI413
aI2855
aI3077
aI1004
aI3233
aI413
aI783
aI150
aa(lp210
I2719
aI2022
aI630
aI1649
aI679
aI717
aI1928
aI2916
aa(lp211
I613
aI2317
aI3327
aa(lp212
I3265
aI621
aI2565
aI8
aI1213
aI570
aa(lp213
I3459
aI2264
aI570
aI1645
aI3382
aI271
aa(lp214
I192
aI2141
aI2637
aI1664
aa(lp215
I3017
aI673
aa(lp216
I52
aI3093
aI3361
aa(lp217
I1669
aI359
aI2563
aI3119
aI413
aI2927
aI2407
aa(lp218
I1796
aI2563
aI2248
aI576
aI1958
aI242
aI1785
aI2563
aI3101
aI1366
aI3187
aI1791
aa(lp219
I1391
aI2563
aI3425
aI3025
aa(lp220
I1391
aI1645
aI3265
aI1889
aa(lp221
I2598
aa(lp222
I990
aI32
aI1289
aI1747
aI262
aa(lp223
I78
aI1477
aI2562
aI631
aI2873
aa(lp224
I1356
aI2264
aI197
aa(lp225
I2230
aI1649
aI3265
aI1889
aa(lp226
I1858
aI2563
aI2594
aa(lp227
I3126
aI631
aI2873
aa(lp228
I849
aI2984
aI1054
aI1953
aa(lp229
I1391
aI2563
aI2048
aI2013
aI1669
aa(lp230
I1391
aI2563
aI1549
aI2409
aI1424
aI1913
aI3318
aI3112
aa(lp231
I394
aI1289
aI679
aI2899
aI1804
aa(lp232
I1796
aI2563
aI2248
aI576
aI2697
aI242
aI1858
aI2563
aI3265
aI1889
aa(lp233
I1796
aI2563
aI2248
aI576
aI2467
aI242
aI1142
aI2563
aI961
aI242
aI1781
aI2863
aI242
aI3106
aa(lp234
I1796
aI2563
aI2248
aI576
aI1506
aI242
aI1142
aI2563
aI2627
aI576
aI553
aI242
aI1012
aI225
aI242
aI1012
aI155
aI970
aa(lp235
I127
aI2563
aI1238
aI631
aI2581
aI896
aI676
aa(lp236
I3140
aa(lp237
I2067
aI1230
aI631
aI77
aI3144
aa(lp238
I1617
aI1649
aI1621
aI2923
aI2761
aa(lp239
I2203
aI1076
aa(lp240
I3119
aI413
aI2927
aI2954
aa(lp241
I1195
aI159
aI127
aI750
aI858
aa(lp242
I1677
aI2563
aI1477
aI1431
aI896
aI2415
aI3077
aI657
aI3233
aa(lp243
I2557
aI1645
aI1978
aI155
aI413
aI953
aa(lp244
I1551
aI896
aI1110
aI1423
aa(lp245
I3019
aI155
aI2996
aa(lp246
I1112
aI3265
aI3077
aI1885
aI3233
aa(lp247
I2232
aI28
aI427
aI576
aI3164
aI576
aI2790
aI576
aI2654
aa(lp248
I1645
aI2572
aI827
aI1649
aI774
aa(lp249
I3390
aI2041
aI363
aI2525
aI2709
aI3077
aI1821
aI156
aI3233
aa(lp250
I1831
aI1649
aI3265
aI2524
aI3093
aa(lp251
I690
aI1802
aI2918
aI1147
aa(lp252
I1142
aI2563
aI1978
aI2557
aI2768
aI2085
aI413
aI2357
aa(lp253
I2541
aI2873
aI2563
aI679
aI2857
aI1012
aI1052
aI1012
aI2132
aa(lp254
I1889
aI242
aI2487
aI242
aI1723
aa(lp255
I1858
aI2563
aI470
aI3378
aa(lp256
I3140
aI2563
aI2462
aI896
aI8
aI983
aa(lp257
I1796
aI2563
aI2643
aI413
aI1317
aa(lp258
I1645
aI2572
aI570
aa(lp259
I1477
aI609
aI576
aI1649
aI2873
aI3108
aI3140
aI2771
aI306
aI2635
aI2297
aI2008
aI3077
aI1885
aI3233
aa(lp260
I1837
aI570
aI2563
aI1539
aa(lp261
I2337
aa(lp262
I772
aI631
aI1449
aa(lp263
I2331
aI3223
aI1289
aI2644
aa(lp264
I127
aI750
aI3011
aI750
aI679
aI57
aa(lp265
I2736
aI141
aI2563
aI1223
aI1576
aI1289
aI127
aI750
aI858
aa(lp266
I366
aI750
aI500
aI1831
aa(lp267
I3163
aI40
aI2563
aI1351
aI1294
aI631
aI2541
aI2873
aa(lp268
I2437
aI3265
aI1873
aa(lp269
I3266
aI1576
aI896
aI2373
aa(lp270
I1008
aI3115
aI1218
aI2761
aI388
aI413
aI2067
aI1718
aa(lp271
I3140
aI2563
aI2873
aI1722
aI3349
aa(lp272
I1796
aI2563
aI2389
aa(lp273
I3266
aI2563
aI2541
aI500
aa(lp274
I1216
aI3225
aI576
aI2100
aI2887
aI1978
aI3187
aI3077
aI1452
aa(lp275
I1939
aI413
aI413
aI2992
aI127
aI750
aI858
aa(lp276
I1940
aI1649
aI1481
aI1289
aI854
aI2961
aa(lp277
I443
aI2960
aI8
aI2667
aI2428
aI1043
aa(lp278
I78
aI810
aI750
aI500
aa(lp279
I1576
aI2478
aa(lp280
I78
aI2067
aI976
aa(lp281
I1255
aI896
aI2929
aa(lp282
I2291
aI2563
aI2097
aa(lp283
I1978
aI2557
aI3370
aI679
aI1384
aa(lp284
I2772
aI595
aI1213
aI2067
aI99
aI3077
aI1885
aI3233
aa(lp285
I1216
aI2887
aI1978
aI3187
aa(lp286
I3052
aI583
aI750
aI1255
aI1289
aI2929
aI1420
aa(lp287
I1343
aI1391
aa(lp288
I3140
aI1576
aI750
aI1781
aI2873
aa(lp289
I570
aI2563
aI154
aI896
aI3163
aI150
aa(lp290
I2317
aI3327
aI750
aI2426
aa(lp291
I2086
aI3265
aI631
aI92
aa(lp292
I2067
aI2043
aI631
aI142
aa(lp293
I1431
aI2563
aI3033
aI1289
aI896
aI1661
aI1481
aI1198
aI413
aI1821
aI156
aI1097
aI576
aI2422
aa(lp294
I1499
aI413
aI847
aI631
aI679
aI921
aa(lp295
I2029
aI1238
aI804
aI896
aI423
aa(lp296
I1796
aI2563
aI1098
aI2563
aI1602
aI3202
aI2174
aa(lp297
I78
aI2917
aI2563
aI3144
aa(lp298
I3265
aI1213
aI23
aI1722
aI97
aI2902
aa(lp299
I3266
aI2563
aI551
aI242
aI234
aa(lp300
I3140
aI135
aI2563
aI3033
aI1753
aI3077
aI2219
aI3233
aa(lp301
I1796
aI2563
aI2248
aI576
aI2868
aI242
aI1785
aI2563
aI1684
aI476
aI631
aI3424
aa(lp302
I1391
aI2563
aI2151
aI413
aI1196
aI1289
aI1106
aI896
aI3425
aI2314
aa(lp303
I78
aI2917
aI2563
aI453
aa(lp304
I8
aI413
aI1213
aI2484
aI896
aI905
aI359
aa(lp305
I3295
aI2563
aI2221
aI1712
aa(lp306
I764
aI159
aa(lp307
I570
aI1576
aa(lp308
I127
aI2563
aI1239
aI2873
aa(lp309
I3378
aI2005
aI750
aI1344
aI388
aI3077
aI2219
aI3233
aa(lp310
I1796
aI2563
aI2248
aI576
aI3181
aI242
aI1785
aI2563
aI1216
aI2887
aI1978
aI3187
aa(lp311
I1796
aI2563
aI2248
aI576
aI1710
aI242
aI1858
aI2563
aI2151
aI413
aI1196
aI1289
aI1106
aI896
aI3425
aI2314
aa(lp312
I1858
aI362
aI862
aI1854
aa(lp313
I1347
aI631
aI800
aI1920
aa(lp314
I381
aI1468
aI673
aa(lp315
I2673
aI1645
aI1641
aa(lp316
I2839
aI1649
aI403
aa(lp317
I610
aI2100
aI3203
aI1467
aa(lp318
I2541
aI1832
aa(lp319
I1796
aI2563
aI2248
aI576
aI1228
aI242
aI1796
aI2563
aI2151
aI413
aI1196
aI1289
aI1106
aI896
aI3425
aI2314
aa(lp320
I127
aI750
aI858
aI2563
aI771
aI413
aI3084
aI1213
aI970
aa(lp321
I81
aI631
aI1919
aa(lp322
I1098
aI2563
aI819
aI631
aI1425
aI3361
aa(lp323
I922
aI631
aI2369
aI271
aa(lp324
I1246
aI3378
aa(lp325
I3140
aI2563
aI1419
aI1275
aI896
aI2071
aI3077
aI1347
aI3233
aa(lp326
I127
aI750
aI858
aI2563
aI3369
aI1645
aI1518
aI1766
aa(lp327
I164
aI1289
aI2141
aI1198
aI1479
aa(lp328
I78
aI2917
aa(lp329
I2264
aI1807
aI1804
aI894
aI242
aI115
aI576
aI878
aa(lp330
I78
aI3295
aI2563
aI1085
aa(lp331
I3266
aI631
aI1538
aI2771
aI347
aI1310
aa(lp332
I78
aI2917
aI2563
aI391
aI2873
aa(lp333
I1913
aI2442
aa(lp334
I443
aI2022
aI717
aI1928
aI570
aa(lp335
I78
aI2351
aI1645
aI1213
aI396
aI3077
aI1172
aI3233
aa(lp336
I1978
aI271
aI1649
aI645
aI2933
aa(lp337
I78
aI3295
aI2563
aI269
aI2873
aa(lp338
I123
aI286
aa(lp339
I2218
aI2563
aI2284
aI2254
aI1661
aI651
aI3361
aa(lp340
I1796
aI2563
aI1391
aI2563
aI2923
aI849
aI2923
aI1289
aI2923
aI1089
aI2923
aa(lp341
I1785
aI2563
aI271
aI631
aI2583
aI264
aa(lp342
I1796
aI2563
aI2248
aI576
aI1185
aI242
aI1785
aI2563
aI271
aI631
aI2583
aI264
aI413
aI413
aI1978
aI1977
aa(lp343
I1796
aI2563
aI2248
aI576
aI1185
aI242
aI1785
aI2563
aI271
aI631
aI2583
aI264
aI413
aI413
aI1978
aI1977
aa(lp344
I1785
aI2563
aI880
aI2248
aI576
aI1190
aa(lp345
I1196
aI396
aI70
aI413
aI1391
aa(lp346
I1858
aI2563
aI2049
aI1802
aI1791
aI1538
aa(lp347
I1785
aI2563
aI3101
aI1366
aI3187
aI1791
aa(lp348
I1246
aI1903
aa(lp349
I2786
aI3272
aa(lp350
I1423
aI576
aI465
aI2302
aI503
aI2563
aI2873
aI3167
aI413
aI886
aI242
aI1713
aI489
aa(lp351
I3265
aI1825
aI1978
aI2923
aI254
aI1825
aI2492
aI2923
aa(lp352
I450
aI631
aI1238
aa(lp353
I1796
aI2563
aI2248
aI576
aI910
aI242
aI1858
aI2563
aI961
aI2343
aI3093
aI242
aI1213
aI3101
aa(lp354
I2312
aI750
aI1418
aa(lp355
I2329
aI28
aI230
aI576
aI1207
aa(lp356
I1796
aI2563
aI2248
aI576
aI2190
aI242
aI1785
aI2563
aI643
aa(lp357
I398
aI1479
aI1645
aI647
aI1115
aa(lp358
I625
aI1804
aa(lp359
I1564
aI40
aI1645
aI1012
aI1940
aI1649
aI2873
aI1012
aa(lp360
I526
aI413
aI2070
aI127
aI750
aI761
aa(lp361
I1032
aI2360
aa(lp362
I2917
aI2563
aI3144
aa(lp363
I1858
aI2563
aI67
aI3318
aI2923
aI2951
aI255
aI517
aI692
aI3361
aI2923
aa(lp364
I1391
aI2563
aI1290
aI3377
aI311
aa(lp365
I1297
aI2155
aI570
aI1649
aI1827
aa(lp366
I3295
aI1576
aI2563
aI2537
aI2783
aa(lp367
I1796
aI2563
aI2248
aI576
aI1163
aI242
aI1785
aI2563
aI3101
aI1366
aI3187
aI1791
aa(lp368
I1796
aI2563
aI2248
aI576
aI1414
aI242
aI1785
aI2563
aI643
aa(lp369
I542
aI2768
aI500
aa(lp370
I801
aI750
aI1418
aa(lp371
I1409
aI3266
aI1154
aI242
aI679
aI270
aa(lp372
I3216
aI1590
aa(lp373
I3364
aI1576
aa(lp374
I1345
aa(lp375
I3183
aI1182
aI862
aI289
aa(lp376
I78
aI1954
aI3370
aI679
aI3421
aI576
aI1750
aI1645
aI2487
aI413
aI567
aI548
aa(lp377
I127
aI750
aI858
aI2563
aI154
aI2364
aI159
aa(lp378
I1247
aI413
aI150
aI127
aI750
aI3011
aa(lp379
I1796
aI2563
aI2248
aI576
aI481
aI242
aI1785
aI2563
aI1565
aI1032
aI2563
aI1978
aI586
aI1649
aI3218
aa(lp380
I78
aI3295
aI2563
aI803
aI1246
aa(lp381
I2656
aI1391
aI2563
aI3194
aa(lp382
I78
aI3174
aI1854
aI631
aI2873
aa(lp383
I2656
aI2563
aI319
aI2601
aI750
aI2667
aI1289
aI301
aa(lp384
I1613
aI1092
aI1213
aI2515
aa(lp385
I2364
aI1649
aI2568
aI3177
aI1481
aI2036
aa(lp386
I1555
aI413
aI2463
aa(lp387
I2969
aI862
aI227
aI1645
aI2004
aI2808
aI1042
aI631
aI3265
aa(lp388
I271
aI631
aI264
aa(lp389
I1858
aI2563
aI1601
aI1868
aa(lp390
I2248
aI576
aI2620
aI242
aI1785
aI2563
aI643
aa(lp391
I3038
aI3266
aI3077
aI2415
aI3233
aa(lp392
I726
aI1213
aI1316
aa(lp393
I799
aI631
aI1934
aI295
aa(lp394
I2656
aI2563
aI1174
aI862
aI212
aa(lp395
I564
aI1652
aI2264
aI570
aI1645
aI3238
aI2305
aa(lp396
I1012
aI592
aI1012
aI631
aI1104
aI2667
aa(lp397
I1858
aI2563
aI1669
aI1645
aI2923
aI1720
aI636
aI896
aI421
aI576
aI576
aI576
aI2923
aa(lp398
I78
aI2917
aI2563
aI1832
aa(lp399
I78
aI3295
aI2563
aI872
aI1065
aI2935
aa(lp400
I78
aI3295
aI2563
aI1213
aI3065
aa(lp401
I78
aI3295
aI2563
aI898
aa(lp402
I78
aI3295
aI2563
aI1213
aI970
aI896
aI3382
aI2873
aa(lp403
I78
aI3295
aI2563
aI1275
aa(lp404
I78
aI3295
aI2563
aI1246
aI896
aI1538
aI247
aa(lp405
I2656
aI2563
aI1542
aI1649
aI1032
aI862
aI2899
aI1998
aa(lp406
I78
aI3295
aI2563
aI453
aa(lp407
I78
aI3295
aI2563
aI3265
aI2873
aa(lp408
I1479
aI1645
aI1213
aI1289
aI1187
aa(lp409
I3172
aI1122
aI1865
aI2877
aI300
aI1179
aI2877
aI3098
aI292
aa(lp410
I929
aI631
aI1238
aI1289
aI3328
aa(lp411
I78
aI355
aI750
aI500
aI1147
aa(lp412
I78
aI2917
aI2563
aI1085
aa(lp413
I2497
aI2317
aI1925
aI583
aa(lp414
I1564
aI40
aI631
aI1770
aI1289
aI717
aI2513
aa(lp415
I724
aI72
aI2043
aI631
aI234
aI2563
aI777
aI413
aI395
aI1787
aI2297
aI1277
aI1151
aI2312
aa(lp416
I2151
aI2553
aI631
aI1369
aI3265
aa(lp417
I3221
aI413
aI1188
aI1481
aI2317
aI1925
aa(lp418
I1419
aI1239
aI271
aa(lp419
I1858
aI2563
aI3414
aa(lp420
I1858
aI2563
aI2248
aI576
aI1183
aI1213
aI3132
aa(lp421
I1796
aI2563
aI2248
aI576
aI1414
aI242
aI3153
aI3361
aa(lp422
I1796
aI2563
aI2248
aI576
aI2620
aI242
aI1785
aI2563
aI643
aa(lp423
I643
aa(lp424
I1785
aI2563
aI271
aI631
aI2583
aI264
aa(lp425
I1796
aI2563
aI1740
aI576
aI1130
aI1527
aI3049
aa(lp426
I1592
aI3384
aI1786
aI413
aI3165
aa(lp427
I2656
aI2563
aI2639
aa(lp428
I2778
aI2563
aI3428
aI413
aI2011
aI242
aI3057
aI413
aI2150
aI1289
aI3057
aI413
aI650
aa(lp429
I1085
aI197
aI1280
aI867
aa(lp430
I1391
aI1645
aI1617
aI1649
aI2761
aa(lp431
I630
aI1645
aI3090
aI2487
aa(lp432
I2123
aI2544
aI576
aI630
aI576
aI528
aI1257
aa(lp433
I413
aI2607
aI750
aI1827
aa(lp434
I192
aI2141
aa(lp435
I2992
aI127
aI2563
aI1653
aI2923
aI150
aI896
aI276
aI2923
aI150
aI1479
aI1645
aI794
aI1773
aa(lp436
I1479
aI631
aI1353
aI2490
aI631
aI678
aI2873
aa(lp437
I698
aI2667
aI1479
aa(lp438
I1715
aI2563
aI861
aI631
aI679
aI542
aa(lp439
I650
aI1213
aI2673
aI2036
aa(lp440
I1827
aI359
aa(lp441
I159
aI184
aI1736
aI3248
aI188
aI2401
aa(lp442
I1238
aI1114
aI1645
aI679
aI2317
aa(lp443
I2934
aI2187
aI1138
aI570
aa(lp444
I1796
aI2563
aI919
aI2923
aI150
aI413
aI127
aI750
aI761
aa(lp445
I2778
aI2563
aI1557
aI3239
aI1649
aI2873
aI464
aa(lp446
I3101
aI1366
aI3187
aI1791
aa(lp447
I1858
aI2563
aI2923
aI3259
aI869
aI987
aI1802
aI576
aI2923
aI2771
aI2923
aI582
aI2923
aa(lp448
I78
aI2917
aI631
aI1275
aI242
aI3144
aI242
aI2771
aI2839
aI1649
aI2667
aa(lp449
a(lp450
I1715
aI631
aI1090
aa(lp451
I78
aI2917
aI631
aI453
aI1289
aI898
aa(lp452
I78
aI1362
aI631
aI3129
aa(lp453
I78
aI3295
aI1645
aI679
aI3131
aI1649
aI402
aI2100
aI2873
aa(lp454
I78
aI3295
aI2563
aI1599
aI1941
aI631
aI2873
aa(lp455
I1479
aI1645
aI221
aI631
aI1213
aI676
aI242
aI396
aI1289
aI970
aa(lp456
I2917
aI1645
aI1275
aa(lp457
I2917
aI1645
aI1481
aI1198
aa(lp458
I807
aI1027
aI2364
aa(lp459
I2266
aI1832
aI1580
aI3077
aI2064
aI1580
aI3233
aa(lp460
I1788
aI2787
aa(lp461
I1415
aI1289
aI2333
aa(lp462
I3054
aI1289
aI723
aI2688
aa(lp463
I1964
aI1479
aI2563
aI2992
aI127
aI750
aI1998
aa(lp464
I2318
aI2923
aI140
aa(lp465
I1238
aI631
aI679
aI2821
aI1944
aI570
aa(lp466
I3009
aI1479
aa(lp467
I1186
aI2544
aI630
aI1645
aI2361
aI1289
aI3317
aI1649
aI203
aI2349
aa(lp468
I70
aI631
aI1213
aI1468
aI576
aa(lp469
I78
aI3295
aI2563
aI1246
aI242
aI1832
aa(lp470
I2917
aI1645
aI3144
aa(lp471
I1093
aI1649
aI3265
aa(lp472
I2656
aI2563
aI459
aI1872
aa(lp473
I2191
aI2472
aI1853
aI2347
aa(lp474
I941
aa(lp475
I2141
aI983
aa(lp476
I2921
aI3399
aI1645
aI2457
aI1198
aa(lp477
I2890
aI2873
aa(lp478
I391
aI2873
aa(lp479
I505
aa(lp480
I1804
aI2563
aI1238
aI631
aI676
aa(lp481
I78
aI2917
aI2563
aI2714
aI1213
aI2041
aa(lp482
I2541
aI1275
aa(lp483
I2656
aI2563
aI1556
aI3077
aI2678
aI3233
aa(lp484
I1323
aI2625
aI1289
aI3055
aI2775
aa(lp485
I350
aa(lp486
I650
aI570
aI521
aI2280
aI141
aa(lp487
I2105
aI1093
aI1649
aI3265
aa(lp488
I1085
aa(lp489
I2312
aI750
aI1418
aI2563
aI1275
aI242
aI1419
aI2425
aI242
aI1499
aI271
aa(lp490
I322
aI1479
aI2563
aI1419
aI1275
aI631
aI2336
aa(lp491
I3364
aI1649
aI1213
aI1289
aI2873
aI126
aI1283
aI576
aI1252
aI3077
aI1159
aI413
aI3447
aI159
aI3233
aa(lp492
I1481
aI1198
aa(lp493
I447
aI1289
aI1208
aa(lp494
I317
aI1625
aI2667
aI153
aI576
aa(lp495
I78
aI2800
aI2563
aI1008
aI2667
aa(lp496
I570
aI1645
aI3328
aI896
aI1347
aI1627
aI1213
aa(lp497
I63
aI127
aI750
aI761
aI750
aI16
aI2923
aI141
aa(lp498
I322
aI2923
aI141
aI3248
aI2228
aI413
aI564
aI2707
aa(lp499
I217
aI3263
aI2282
aI1832
aI1479
aa(lp500
I221
aI631
aI1213
aI676
aI242
aI396
aI1289
aI970
aa(lp501
I2874
aI2923
aI141
aI413
aI127
aI750
aI761
aa(lp502
I2336
aI140
aI413
aI1223
aI127
aI750
aI858
aa(lp503
I2326
aI2707
aI2563
aI1652
aI1293
aI2923
aI140
aI413
aI756
aI1645
aI3284
aa(lp504
I2917
aI1645
aI3382
aI2873
aa(lp505
I2956
aa(lp506
I2322
aI413
aI2070
aa(lp507
I947
aI2873
aI1289
aI2141
aa(lp508
I269
aI453
aI1479
aI1722
aI1589
aa(lp509
I1768
aI3077
aI991
aI1586
aI1649
aI2541
aI2571
aI141
aI3233
aa(lp510
I1479
aI1645
aI2913
aa(lp511
I1135
aI2873
aI2916
aI158
aa(lp512
I2825
aI140
aI570
aa(lp513
I199
aI1289
aI753
aI413
aI2411
aI2563
aI2100
aI3265
aa(lp514
I78
aI124
aI3295
aI2563
aI453
aI413
aI1275
aa(lp515
I78
aI124
aI3295
aI2563
aI1295
aI2625
aI1289
aI1571
aa(lp516
I1213
aI1060
aI750
aI611
aa(lp517
I78
aI2917
aI2768
aI124
aI2563
aI453
aa(lp518
I78
aI3295
aI2768
aI124
aI2563
aI1275
aa(lp519
I2971
aI156
aa(lp520
I78
aI2917
aI2768
aI124
aI2563
aI396
aI1289
aI2515
aa(lp521
I78
aI3295
aI2768
aI124
aI2563
aI1832
aI413
aI453
aI2321
aa(lp522
I2553
aI2563
aI453
aI242
aI1275
aI1289
aI3144
aa(lp523
I3433
aI1649
aI1213
aI1740
aI576
aI1064
aa(lp524
I1419
aI1779
aI39
aa(lp525
I2921
aI3023
aI1649
aI3163
aI3364
aI413
aI3240
aI3131
aI2490
aI631
aI1344
aa(lp526
I3146
aI156
aI570
aI3121
aa(lp527
I2856
aI413
aI756
aI3138
aI631
aI61
aa(lp528
I51
aa(lp529
I2161
aI140
aI127
aI750
aI858
aa(lp530
I547
aI570
aI127
aI750
aI858
aa(lp531
I852
aI875
aa(lp532
I3295
aI2563
aI2829
aI475
aI1036
aI413
aI1012
aI2588
aI475
aI248
aI104
aI1012
aa(lp533
I3293
aI156
aI2599
aI1649
aI679
aI1481
aI2036
aI1649
aI2096
aa(lp534
I2921
aI813
aI2563
aI1178
aI1479
aa(lp535
I2721
aI1282
aI2563
aI2126
aI1479
aI1645
aI1213
aI1524
aa(lp536
I1085
aI2771
aI2804
aI2873
aa(lp537
I428
aI2264
aI1423
aI413
aI1580
aa(lp538
I2856
aI413
aI756
aI2043
aI2312
aa(lp539
I892
aI1935
aI576
aI1252
aI242
aI608
aI576
aI1064
aa(lp540
I617
aI896
aI936
aI1649
aI301
aI242
aI1426
aI242
aI783
aI329
aa(lp541
I3276
aI2923
aI141
aI242
aI2326
aI127
aI750
aI761
aa(lp542
I1553
aI896
aI1653
aI1479
aI1645
aI2194
aI1954
aI320
aI2563
aI483
aa(lp543
I2778
aI2563
aI490
aI1289
aI679
aI3119
aI2009
aa(lp544
I3364
aI1649
aI2141
aI1289
aI204
aa(lp545
I1012
aI475
aI2889
aI576
aI852
aI1649
aI679
aI1479
aI1645
aI2498
aI1012
aa(lp546
I1796
aI2563
aI78
aI2981
aI750
aI2317
aa(lp547
I1796
aI2563
aI2053
aI750
aI580
aI2771
aI1349
aa(lp548
I1479
aI1021
aI2974
aI2771
aI3147
aa(lp549
I3140
aI1576
aa(lp550
I3295
aI2563
aI1344
aI2563
aI1599
aI2386
aa(lp551
I564
aI2544
aI197
aI1645
aI918
aa(lp552
I1479
aI1645
aI1700
aI164
aI2021
aI3077
aI127
aI750
aI858
aI3233
aa(lp553
I1012
aI1479
aI1645
aI2511
aI631
aI1382
aI1012
aa(lp554
I2839
aI1649
aI2627
aa(lp555
I453
aa(lp556
I3422
aI271
aa(lp557
I1275
aI896
aI453
aI413
aI1275
aI2321
aI896
aI1213
aI396
aa(lp558
I1832
aI896
aI1246
aa(lp559
I453
aI896
aI453
aI413
aI1275
aI2321
aa(lp560
I2656
aI2563
aI3134
aI2755
aa(lp561
I2484
aI359
aI750
aI2670
aI750
aI2670
aI1953
aa(lp562
I453
aI896
aI2839
aI1649
aI2627
aa(lp563
I453
aa(lp564
I1275
aI896
aI453
aI413
aI1275
aI2321
aa(lp565
I1275
aa(lp566
I453
aa(lp567
I78
aI3295
aI2563
aI2839
aI1649
aI1213
aa(lp568
I1213
aI1720
aI2523
aI2771
aI1662
aI750
aI1213
aI413
aI413
aI2228
aI1722
aI2148
aI141
aa(lp569
I385
aI413
aI3325
aI627
aI1479
aa(lp570
I1836
aI1479
aI1645
aI1301
aI3077
aI612
aI141
aI3233
aa(lp571
I17
aI564
aI127
aI750
aI858
aa(lp572
I2657
aI2418
aI1802
aI269
aI1239
aI453
aI2499
aa(lp573
I127
aI750
aI3182
aI1215
aI3295
aI2053
aa(lp574
I1832
aI896
aI1246
aI1479
aa(lp575
I1239
aI2940
aI1802
aI614
aI624
aa(lp576
I2862
aI1279
aI72
aI1830
aI415
aI1289
aI2619
aa(lp577
I366
aI2563
aI2533
aI2248
aI576
aI1064
aI3077
aI159
aI3233
aa(lp578
I366
aI2563
aI2715
aI1423
aI576
aI1064
aa(lp579
I2141
aa(lp580
I1303
aI413
aI1909
aI2490
aI631
aI678
aI2571
aa(lp581
I2533
aI2070
aI576
aI1252
aI3077
aI156
aI3233
aa(lp582
I3364
aI1649
aI717
aI2021
aI2067
aa(lp583
I2799
aI896
aI727
aI2819
aI2897
aI388
aa(lp584
I2732
aI1633
aI2822
aI159
aI413
aI1186
aI127
aa(lp585
I570
aI1645
aI679
aI2050
aI1346
aa(lp586
I2414
aI242
aI2040
aI242
aI1289
aI1941
aa(lp587
I164
aI2637
aI2923
aI140
aI2707
aa(lp588
I2261
aI2297
aI1277
aI2563
aI2992
aI127
aI750
aI761
aa(lp589
I3054
aI1289
aI723
aI2688
aa(lp590
I638
aI1117
aI3364
aI1649
aI600
aI2873
aa(lp591
I2255
aI413
aI2992
aI127
aI750
aI761
aa(lp592
I3403
aI896
aI1202
aI1649
aI301
aI630
aI413
aI2992
aa(lp593
I1766
aI2563
aI1479
aI1645
aI2100
aI1143
aI2667
aI3077
aI958
aI3233
aa(lp594
I1242
aI383
aa(lp595
I1381
aI2016
aI1804
aa(lp596
I1479
aI1645
aI746
aI96
aI664
aa(lp597
I3427
aI413
aI1935
aI127
aI750
aI761
aa(lp598
I2316
aI1949
aI2563
aI1903
aI1289
aI1496
aa(lp599
I269
aI2873
aI2022
aI448
aI242
aI158
aa(lp600
I127
aI2563
aI3258
aI1233
aI2515
aa(lp601
I3231
aI570
aa(lp602
I1438
aI2571
aa(lp603
I1213
aI396
aI3077
aI2173
aI2923
aI150
aI3233
aa(lp604
I564
aI674
aI2431
aI197
aa(lp605
I2584
aI955
aI2563
aI997
aI3420
aa(lp606
I78
aI2917
aI1645
aI3144
aa(lp607
I78
aI2917
aI1645
aI691
aI717
aI2515
aa(lp608
I2123
aI2544
aI630
aI1645
aI8
aI896
aI1104
aI2349
aa(lp609
I431
aI2923
aI140
aa(lp610
I1586
aI1649
aI918
aI631
aI679
aI2979
aI2437
aa(lp611
I78
aI505
aI1362
aa(lp612
I2917
aI1645
aI2141
aa(lp613
I78
aI1289
aI2423
aI1846
aI631
aI3197
aI2873
aa(lp614
I78
aI1289
aI2423
aI1846
aI631
aI453
aI2771
aI898
aa(lp615
I1010
aI2771
aI2890
aI2873
aa(lp616
I1012
aI2385
aI1012
aI301
aa(lp617
I1085
aI2771
aI2804
aI2873
aa(lp618
I941
aI2771
aI2577
aa(lp619
I679
aI3265
aI1213
aa(lp620
I2312
aI750
aI1418
aI2563
aI1832
aa(lp621
I564
aI127
aI242
aI3146
aI158
aa(lp622
I1297
aI780
aa(lp623
I3172
aI1649
aI2408
aI428
aI2264
aI1423
aI413
aI1740
aa(lp624
I78
aI3295
aI2563
aI946
aI1289
aI2392
aa(lp625
I2312
aI750
aI1418
aI2563
aI1275
aI242
aI3144
aI242
aI453
aa(lp626
I2312
aI750
aI1418
aI2563
aI453
aI1289
aI898
aa(lp627
I1213
aI3101
aI2336
aa(lp628
I1750
aI1645
aI1735
aI2771
aI897
aI631
aI2873
aI159
aa(lp629
I3422
aI271
aI242
aI2571
aI89
aa(lp630
I2917
aI2563
aI447
aI2771
aI1208
aI242
aI3043
aI2571
aa(lp631
I3295
aI2563
aI1246
aI3077
aI3000
aI3233
aa(lp632
I1796
aI2563
aI3004
aa(lp633
I1578
aI570
aI2563
aI127
aI750
aI858
aa(lp634
I480
aI2923
aI140
aa(lp635
I2921
aI3023
aI3163
aI3364
aI896
aI3240
aI3131
aI2490
aI576
aI576
aI576
aa(lp636
I1695
aI1804
aa(lp637
I1647
aI234
aI1213
aI3429
aI539
aa(lp638
I1012
aI1796
aI3018
aa(lp639
I881
aI1072
aI1832
aa(lp640
I122
aI413
aI1455
aI570
aa(lp641
I2767
aI475
aI1535
aI140
aa(lp642
I78
aI3295
aI2563
aI1292
aI2563
aI679
aI1832
aI1649
aI2398
aI2404
aa(lp643
I78
aI3295
aI2563
aI3387
aI475
aI3141
aI2563
aI679
aI1689
aI3023
aI576
aa(lp644
I366
aI2563
aI2804
aI2873
aI242
aI126
aI576
aI3437
aI242
aI849
aI576
aI1252
aa(lp645
I1766
aI2563
aI1965
aI3239
aa(lp646
I127
aI2563
aI431
aI1832
aI1479
aa(lp647
I78
aI3295
aI2563
aI1213
aI396
aa(lp648
I2818
aI983
aI3259
aa(lp649
I1391
aI1649
aI2700
aI1213
aa(lp650
I78
aI3295
aI2563
aI717
aI2873
aa(lp651
I78
aI3295
aI2563
aI1213
aI1500
aa(lp652
I1643
aI546
aI1868
aI1643
aI1418
aI413
aI413
aI3259
aa(lp653
I1643
aI546
aI1868
aI1643
aI1418
aI413
aI413
aI153
aa(lp654
I2885
aI2923
aI141
aa(lp655
I2266
aI1832
aI1580
aa(lp656
I642
aa(lp657
I679
aI1297
aI2022
aI2264
aI570
aI1645
aI3144
aI1289
aI1213
aI1468
aa(lp658
I1385
aI600
aI2571
aa(lp659
I570
aI3331
aI1252
aI413
aI1580
aI896
aI2070
aI896
aI159
aa(lp660
I2262
aI413
aI3228
aI3288
aa(lp661
I2457
aI1198
aI1479
aa(lp662
I366
aI2563
aI2873
aI2745
aI2563
aI1252
aI3077
aI159
aI3233
aI242
aI2745
aI2563
aI1423
aI3077
aI159
aI3233
aa(lp663
I366
aI2563
aI717
aI2873
aI2410
aI2563
aI1064
aI3077
aI159
aI3233
aa(lp664
I366
aI2563
aI739
aI576
aI3364
aI1649
aI679
aI747
aI1649
aI1213
aI3077
aI434
aI3233
aI3094
aI242
aI3095
aI242
aI2867
aI3077
aI159
aI3233
aa(lp665
I366
aI2563
aI679
aI1481
aI1418
aI1281
aI413
aI1064
aI3077
aI159
aI3233
aa(lp666
I78
aI2917
aI2563
aI632
aI1289
aI3197
aI271
aa(lp667
I78
aI2917
aI2563
aI983
aI631
aI555
aI242
aI1213
aI1289
aI1954
aa(lp668
I961
aI3110
aI3248
aI570
aa(lp669
I78
aI2917
aI2563
aI1275
aa(lp670
I78
aI2917
aI2563
aI2541
aI2873
aa(lp671
I2672
aa(lp672
I1012
aI660
aI1012
aI3034
aI1012
aI954
aI1012
aI72
aI1012
aI963
aI1012
aI3361
aa(lp673
I78
aI3295
aI2563
aI61
aI2873
aa(lp674
I78
aI3295
aI2563
aI898
aa(lp675
I78
aI3295
aI2563
aI282
aI1213
aa(lp676
I78
aI3295
aI2563
aI1008
aI1213
aa(lp677
I78
aI3295
aI2563
aI2407
aI2428
aa(lp678
I2793
aI2649
aI2923
aI141
aa(lp679
I564
aI127
aI750
aI858
aI2563
aI2943
aa(lp680
I2640
aI127
aI750
aI466
aI2053
aa(lp681
I366
aI428
aI2264
aI1423
aI413
aI1914
aI3077
aI379
aI585
aI1645
aI679
aI1940
aI1649
aI500
aI1953
aI3233
aa(lp682
I1418
aI1649
aI2781
aa(lp683
I1796
aI2563
aI1740
aI576
aI3181
aI2873
aI1289
aI2394
aa(lp684
I1781
aI825
aa(lp685
I2157
aI2923
aI141
aI2563
aI2992
aI127
aI750
aI761
aa(lp686
I2917
aI2563
aI339
aa(lp687
I78
aI3295
aI2563
aI3057
aI413
aI650
aI983
aa(lp688
I78
aI3295
aI2563
aI1085
aa(lp689
I78
aI3295
aI2563
aI2804
aI2873
aa(lp690
I3295
aI1645
aI2286
aI1289
aI3046
aI631
aI1213
aI2067
aa(lp691
I366
aI2563
aI739
aI576
aI3364
aI1649
aI679
aI747
aI1649
aI1213
aI3077
aI434
aI3233
aI2866
aI3077
aI159
aI3233
aa(lp692
I453
aI2563
aI3410
aI576
aI2245
aI242
aI1623
aI1722
aI679
aI2321
aa(lp693
I1340
aI2410
aI127
aI750
aI858
aa(lp694
I1796
aI2563
aI1740
aI576
aI3181
aI2873
aI1289
aI2394
aa(lp695
I1189
aI127
aI750
aI858
aa(lp696
I632
aI1289
aI3197
aI271
aI242
aI453
aI1289
aI1275
aa(lp697
I1772
aI2563
aI127
aI750
aI858
aa(lp698
I387
aa(lp699
I570
aI1645
aI679
aI961
aI1819
aa(lp700
I794
aI1773
aI413
aI413
aI2921
aI3023
aI1649
aI192
aI2141
aI3364
aa(lp701
I632
aI3235
aI2873
aI413
aI2374
aI1062
aI1124
aa(lp702
I2617
aI570
aI1576
aa(lp703
I745
aI2873
aa(lp704
I3129
aI896
aI3235
aI2571
aa(lp705
I2873
aI1289
aI2394
aa(lp706
I1085
aa(lp707
I63
aI1213
aI23
aI2563
aI1426
aI242
aI243
aI2771
aI2407
aa(lp708
I491
aI2571
aI630
aI141
aa(lp709
I51
aa(lp710
I59
aI2563
aI1213
aI1524
aI631
aI2714
aI1954
aI1989
aa(lp711
I1460
aI1289
aI603
aI983
aI1649
aI453
aI1649
aI703
aI8
aI2667
aa(lp712
I2948
aI576
aI3410
aI576
aI924
aI242
aI1952
aa(lp713
I453
aI242
aI1275
aI242
aI2771
aI717
aI2873
aa(lp714
I100
aI576
aI1515
aI242
aI1549
aI253
aa(lp715
I2518
aI2992
aI1576
aa(lp716
I2067
aI3225
aI576
aI1314
aI1809
aI1289
aI1339
aI451
aa(lp717
I127
aI2563
aI1135
aI2873
aI2916
aI158
aa(lp718
I928
aI2022
aI594
aI570
aI1645
aI691
aI684
aI2515
aa(lp719
I991
aI1586
aI1649
aI2541
aI2873
aI3077
aI1783
aI2923
aI141
aI3233
aa(lp720
I3259
aI576
aI1655
aI242
aI3412
aI273
aI2923
aI1683
aI3405
aI1893
aI629
aI1856
aI335
aI3361
aa(lp721
I2948
aI576
aI1611
aI242
aI3096
aI1167
aI2859
aI1597
aa(lp722
I985
aI1080
aI1645
aI3332
aI2040
aa(lp723
I1946
aa(lp724
I2553
aI2563
aI453
aI242
aI1275
aI1289
aI3144
aa(lp725
I3119
aI2713
aI1213
aI1468
aa(lp726
I1039
aI2923
aI141
aI2563
aI1543
aI1786
aI750
aI3011
aa(lp727
I1978
aI500
aI2525
aI646
aI3439
aI1156
aI576
aI576
aI576
aa(lp728
I570
aI1645
aI1213
aI969
aI3429
aa(lp729
I2264
aI1419
aI3382
aI271
aI630
aa(lp730
I1653
aI2923
aI140
aI466
aI2992
aI2707
aa(lp731
I2325
aI576
aI1606
aI576
aI3324
aI540
aI242
aI453
aa(lp732
I1737
aI127
aI750
aI858
aa(lp733
I127
aI750
aI858
aa(lp734
I1275
aa(lp735
I455
aI2923
aI140
aa(lp736
I696
aI1645
aI2980
aa(lp737
I1837
aI483
aI242
aI127
aI750
aI2053
aa(lp738
I1012
aI500
aI896
aI413
aI1680
aI1012
aI2563
aI1978
aI78
aI1755
aI576
aa(lp739
I2707
aI2563
aI312
aI750
aI698
aI965
aa(lp740
I3226
aI2873
aI2782
aI1804
aa(lp741
I1479
aI1645
aI1213
aI970
aI631
aI234
aI1289
aI703
aI73
aa(lp742
I1213
aI3065
aI1289
aI1213
aI2803
aa(lp743
I366
aI2563
aI3364
aI1649
aI1104
aI2667
aI1289
aI2873
aI3077
aI310
aI3233
aI1284
aI2563
aI1064
aI3077
aI159
aI3233
aa(lp744
I679
aI1481
aI1418
aI1281
aI896
aI1252
aI413
aI1423
aI3077
aI159
aI3233
aI2921
aI3023
aI2563
aI220
aI453
aa(lp745
I428
aI2264
aI1423
aI413
aI2070
aa(lp746
I3144
aI2563
aI2589
aI576
aI1229
aI2563
aI1012
aI185
aI2512
aI1440
aI3361
aI1012
aa(lp747
I1811
aI1267
aI242
aI679
aI1204
aI1649
aI2334
aa(lp748
I1010
aI1289
aI600
aI2873
aa(lp749
I1796
aI2563
aI1740
aI576
aI191
aI367
aI2428
aI1649
aI413
aI2725
aI896
aI413
aI1234
aa(lp750
I3235
aI2667
aa(lp751
I1479
aI1645
aI679
aI1940
aI1649
aI2873
aa(lp752
I2825
aI140
aI2563
aI1978
aI570
aI1427
aI2414
aI242
aI2873
aI242
aI1289
aI243
aa(lp753
I555
aI1289
aI1092
aI1213
aI1275
aa(lp754
I3235
aI2667
aa(lp755
I801
aI750
aI1418
aI2563
aI453
aI242
aI1032
aa(lp756
I801
aI750
aI1418
aI2563
aI453
aI242
aI415
aI242
aI1275
aa(lp757
I3119
aI2713
aI1468
aI1649
aI961
aI3077
aI2921
aI3118
aI1649
aI1012
aI127
aI1012
aI3233
aa(lp758
I1213
aI2673
aI2771
aI2074
aI1479
aa(lp759
I801
aI750
aI1418
aI2563
aI1213
aI396
aa(lp760
I1796
aI2563
aI1740
aI576
aI191
aI367
aI2428
aI1649
aI413
aI2725
aI896
aI413
aI1234
aa(lp761
I3295
aI2563
aI367
aI2873
aI2563
aI2565
aI2122
aI1802
aa(lp762
I3248
aI1127
aI1649
aI2873
aI631
aI1749
aa(lp763
I1538
aI1959
aI896
aI2367
aI1725
aa(lp764
I1094
aI3421
aI576
aI1479
aI1645
aI788
aI1694
aI2563
aI3047
aI1576
aa(lp765
I391
aI2571
aI242
aI1940
aI1649
aI2571
aa(lp766
I3042
aI2873
aa(lp767
I991
aI1586
aI1649
aI2541
aI2873
aI3077
aI1783
aI2923
aI141
aI3233
aa(lp768
I801
aI750
aI1418
aI2563
aI2550
aI242
aI2392
aI242
aI1541
aI242
aI2334
aa(lp769
I632
aI2873
aI1722
aI2902
aI1661
aI3438
aa(lp770
I1789
aI242
aI3022
aI242
aI1289
aI2872
aI2077
aI631
aI2714
aI2336
aa(lp771
I1917
aI1087
aI1645
aI413
aI2725
aI896
aI413
aI1234
aa(lp772
I2541
aI2873
aa(lp773
I595
aI1213
aI2067
aI99
aI127
aI750
aI858
aa(lp774
I607
aI3227
aI2627
aI576
aI630
aI576
aa(lp775
I2264
aI570
aI1645
aI2166
aa(lp776
I2960
aI8
aI2667
aI2428
aI1043
aa(lp777
I78
aI3295
aI2563
aI2627
aI396
aa(lp778
I3364
aI1775
aI3077
aI127
aI3233
aI413
aI1263
aI1775
aI3077
aI1022
aI3233
aa(lp779
I1479
aI1645
aI2367
aI1289
aI415
aa(lp780
I948
aI1294
aI631
aI2527
aI413
aI3074
aI162
aI1649
aI269
aI453
aI3077
aI1252
aI576
aI2707
aI3233
aa(lp781
I1479
aI1645
aI2186
aa(lp782
I2656
aI1645
aI2445
aa(lp783
I1391
aI2563
aI1577
aI673
aI631
aI600
aI2873
aa(lp784
I762
aI2873
aa(lp785
I3197
aI1289
aI1010
aI2873
aa(lp786
I1192
aI67
aa(lp787
I1213
aI1289
aI2284
aa(lp788
I2487
aI1289
aI3075
aI2595
aa(lp789
I1092
aI1213
aI2515
aa(lp790
I717
aI983
aI631
aI834
aa(lp791
I2825
aI140
aI2563
aI1978
aI570
aI1427
aI2414
aI242
aI2873
aI242
aI2771
aI243
aa(lp792
I1418
aI1649
aI1596
aI413
aI1810
aI983
aI2008
aa(lp793
I1931
aI2563
aI2565
aI2264
aI3364
aI1649
aI187
aI2067
aa(lp794
I1012
aI1706
aI1197
aI1012
aI2563
aI1391
aa(lp795
I366
aI2563
aI1940
aI1649
aI1213
aI1580
aI576
aI1252
aa(lp796
I1223
aI3023
aI1649
aI1213
aI1289
aI2873
aa(lp797
I2050
aI1346
aa(lp798
I428
aI2264
aI1423
aI2563
aI1064
aa(lp799
I3295
aI1645
aI2785
aI1451
aa(lp800
I3197
aI2873
aI1289
aI2819
aI2100
aI1213
aa(lp801
I192
aI2141
aa(lp802
I1238
aI2036
aI1649
aI600
aI2873
aa(lp803
I2078
aI2249
aI1649
aI1205
aa(lp804
I711
aI3430
aa(lp805
I1391
aI2563
aI3072
aI896
aI728
aa(lp806
I1093
aI1649
aI3265
aa(lp807
I2194
aI470
aI3077
aI2214
aI700
aI3343
aI3233
aa(lp808
I276
aI2923
aI140
aI3248
aI2707
aa(lp809
I528
aI1257
aa(lp810
I1012
aI2000
aI242
aI805
aI242
aI2916
aI1012
aI3077
aI2564
aI242
aI158
aI896
aI512
aI896
aI2845
aI3233
aa(lp811
I2977
aI2923
aI141
aa(lp812
I632
aI762
aI1241
aa(lp813
I2992
aI127
aI2563
aI2023
aI2571
aI576
aI3239
aa(lp814
I555
aI242
aI1213
aI242
aI1289
aI1954
aI896
aI1752
aa(lp815
I1239
aI2940
aI1802
aI1213
aI396
aa(lp816
I1391
aI2563
aI579
aI226
aI3077
aI1289
aI1328
aI1645
aI296
aI3233
aa(lp817
I564
aI2022
aI2541
aI2873
aI2067
aI3239
aa(lp818
I1481
aI1198
aI631
aI588
aI650
aI2667
aI3077
aI1464
aI3233
aa(lp819
I1419
aI1275
aI1479
aI413
aI413
aI322
aI2923
aI140
aa(lp820
I1603
aI1049
aI3074
aI2021
aa(lp821
I1533
aI1213
aI1289
aI1481
aI2916
aa(lp822
I1412
aI1010
aI2873
aI2199
aI2311
aI2022
aI2364
aI2563
aI994
aI2707
aa(lp823
I1346
aa(lp824
I570
aI1645
aI2435
aI2667
aa(lp825
I1213
aI1524
aI631
aI2714
aI1954
aI1989
aa(lp826
I2553
aI631
aI762
aI2667
aa(lp827
I2554
aI414
aa(lp828
I2374
aI141
aI127
aI750
aI858
aI3077
aI913
aI1649
aI600
aI2873
aI3233
aa(lp829
I2407
aI983
aI413
aI127
aI750
aI858
aa(lp830
I428
aI2264
aI126
aI1423
aI242
aI3023
aI2248
aa(lp831
I1978
aI576
aI2650
aI242
aI1196
aI2390
aa(lp832
I1566
aI896
aI1832
aI2563
aI524
aI576
aI3348
aI242
aI288
aI108
aa(lp833
I78
aI3364
aI1012
aI1213
aI1289
aI1538
aI1012
aa(lp834
I570
aI1645
aI3226
aI1344
aa(lp835
I1356
aI2022
aI1736
aI1224
aI2036
aI1722
aI679
aI1769
aI576
aI1649
aI2023
aI576
aa(lp836
I2667
aI631
aI676
aa(lp837
I555
aI2873
aI1289
aI1954
aa(lp838
I1796
aI2563
aI2554
aI1012
aI414
aI1012
aa(lp839
I1781
aI1289
aI2928
aI1213
aI896
aI192
aI2141
aa(lp840
I537
aI570
aI1645
aI2873
aa(lp841
I1275
aI896
aI453
aI2563
aI1301
aI631
aI3245
aa(lp842
I63
aI1213
aI396
aa(lp843
I1104
aI1213
aI2036
aI1649
aI1079
aI1901
aa(lp844
I416
aI3262
aI1649
aI1938
aI1538
aa(lp845
I612
aI2743
aa(lp846
I1213
aI1289
aI1538
aI242
aI126
aI3283
aI849
aI1252
aa(lp847
I1275
aI2723
aI1978
aI298
aI1198
aI1649
aI505
aI242
aI400
aI2679
aa(lp848
I2773
aI2935
aI242
aI903
aI2142
aI2754
aa(lp849
I2923
aI414
aI2923
aI2597
aI631
aI1214
aI2923
aI161
aa(lp850
I1223
aI3023
aI1649
aI1213
aI1289
aI2873
aa(lp851
I713
aI3295
aI1418
aa(lp852
I1246
aI1289
aI1832
aa(lp853
I3144
aI896
aI1543
aI1786
aa(lp854
I521
aI2280
aa(lp855
I1213
aI242
aI2946
aI242
aI1289
aI2284
aa(lp856
I1010
aI242
aI2890
aI242
aI1289
aI600
aI2873
aa(lp857
I1781
aI825
aa(lp858
I1418
aI2563
aI1495
aI2563
aI1337
aI1105
aa(lp859
I2407
aI983
aa(lp860
I33
aI413
aI3329
aI1481
aI2215
aa(lp861
I679
aI2074
aI1649
aI788
aI2021
aa(lp862
I203
aI2667
aI631
aI2393
aI576
aI3189
aI2771
aI688
aa(lp863
I3236
aI2923
aI141
aI1964
aI1479
aI2563
aI1223
aI127
aI750
aI1998
aa(lp864
I2804
aI2873
aI242
aI126
aI576
aI3437
aI242
aI849
aI576
aI1423
aa(lp865
I1258
aI1999
aI679
aI2539
aI242
aI1692
aI1978
aI576
aI1754
aa(lp866
I1978
aI2899
aI530
aI1802
aI640
aI2643
aI1317
aI242
aI2340
aI42
aa(lp867
I1894
aI1928
aI1289
aI2954
aI2428
aI242
aI1417
aI876
aa(lp868
I3144
aI1649
aI1614
aI847
aI242
aI1397
aI1978
aI576
aI82
aa(lp869
I1950
aI1257
aI631
aI1615
aI2563
aI3448
aI1289
aI970
aI631
aI735
aI1095
aa(lp870
I63
aI1213
aI1468
aI162
aI242
aI524
aI576
aI2384
aI1289
aI2794
aI576
aI914
aa(lp871
I854
aI2986
aa(lp872
I3174
aI999
aI858
aI631
aI2873
aI242
aI126
aI1580
aI242
aI159
aa(lp873
I3382
aI1832
aI242
aI3282
aI3287
aa(lp874
I2764
aI3338
aI3018
aI3406
aI242
aI1632
aI1379
aa(lp875
I3295
aI1418
aa(lp876
I2036
aI750
aI2541
aI2873
aa(lp877
I1479
aI1645
aI2477
aI413
aI1419
aI2120
aa(lp878
I717
aI2873
aI2410
aI2563
aI1252
aI3077
aI159
aI3233
aI242
aI2410
aI2563
aI1423
aI3077
aI159
aI3233
aa(lp879
I571
aI437
aI3077
aI2802
aI2667
aI896
aI1475
aI1901
aI3233
aa(lp880
I679
aI2362
aI3326
aI1649
aI3045
aI1458
aa(lp881
I2106
aI474
aI2563
aI1252
aI3077
aI159
aI3233
aa(lp882
I2135
aI983
aa(lp883
I157
aI3399
aI1740
aI576
aI1064
aI3077
aI852
aI1649
aI768
aI1446
aI3233
aa(lp884
I1796
aI2563
aI1852
aI1884
aI862
aI1418
aa(lp885
I2541
aI2873
aI896
aI3246
aI1752
aa(lp886
I1455
aI453
aI570
aI2771
aI898
aI1479
aa(lp887
I2541
aI2873
aI896
aI580
aa(lp888
I2541
aI2873
aI896
aI3197
aI1289
aI1763
aI1014
aa(lp889
I717
aI2873
aa(lp890
I1455
aI453
aI1289
aI898
aa(lp891
I2625
aI1289
aI1511
aI631
aI2667
aI1649
aI679
aI2099
aa(lp892
I1388
aI1676
aI1289
aI2899
aI627
aa(lp893
I1882
aa(lp894
I2749
aI1649
aI2639
aI750
aI1547
aI1696
aI2031
aI413
aI413
aI3375
aa(lp895
I3295
aI2563
aI3265
aI2307
aa(lp896
I428
aI2264
aa(lp897
I1213
aI396
aI1289
aI1213
aI1891
aa(lp898
I3248
aI570
aa(lp899
I1877
aI999
aI858
aI631
aI2873
aI1289
aI1246
aa(lp900
I453
aI896
aI1275
aI1649
aI2978
aI1889
aa(lp901
I1481
aI1198
aI1289
aI2541
aI2873
aa(lp902
I717
aI1928
aI570
aa(lp903
I1954
aI1289
aI1666
aI1524
aa(lp904
I2523
aa(lp905
I2656
aI2563
aI1815
aI1019
aa(lp906
I600
aI2873
aI242
aI23
aI3227
aI1213
aa(lp907
I570
aI1804
aI3077
aI2571
aI576
aI1638
aI576
aI2771
aI2932
aI576
aI2571
aI576
aI3233
aa(lp908
I809
aI413
aI1546
aI1950
aI2625
aI271
aa(lp909
I2523
aI896
aI521
aI2280
aI1289
aI3347
aa(lp910
I1275
aI2563
aI2589
aI576
aI2529
aI242
aI6
aI2769
aI1645
aI535
aI782
aa(lp911
I2535
aI2563
aI2589
aI576
aI1907
aI2500
aI242
aI340
aI1424
aI2139
aI2563
aI2100
aI1661
aI1216
aa(lp912
I683
aI570
aI1576
aa(lp913
I2618
aI896
aI2462
aI2873
aI197
aa(lp914
I159
aI3146
aI2563
aI1260
aI679
aI1359
aI1424
aI1246
aI1289
aI1832
aa(lp915
I762
aI2667
aa(lp916
I1098
aI2563
aI1985
aI3414
aI3378
aa(lp917
I257
aI2940
aI1802
aI2314
aI1330
aa(lp918
I564
aI127
aI2563
aI269
aI2873
aI2022
aI630
aa(lp919
I65
aI650
aI1354
aI1479
aa(lp920
I1390
aI896
aI762
aI2667
aa(lp921
I1781
aI2873
aI2723
aI1690
aI3093
aI1649
aI3135
aI1305
aa(lp922
I453
aI413
aI1275
aI1479
aa(lp923
I948
aI2067
aI631
aI1213
aa(lp924
I2541
aI2873
aa(lp925
I220
aI2873
aa(lp926
I2815
aI2873
aa(lp927
I3378
aI750
aI995
aI2428
aa(lp928
I3091
aI2873
aI413
aI3197
aI2771
aI1763
aI1014
aa(lp929
I2873
aI2036
aI1649
aI2737
aI3205
aa(lp930
I2541
aI2873
aa(lp931
I2902
aI1649
aI3396
aI1371
aI242
aI2491
aI3239
aa(lp932
I3295
aI1645
aI2785
aI1451
aa(lp933
I3295
aI1418
aI3077
aI76
aI3233
aI2563
aI1645
aI679
aI296
aI1649
aI536
aI413
aI2436
aa(lp934
I3366
aI879
aI2916
aI570
aa(lp935
I2312
aI750
aI1418
aI2563
aI2773
aI2935
aI242
aI1832
aa(lp936
I2312
aI750
aI1418
aI2563
aI1275
aa(lp937
I2312
aI750
aI1418
aI2563
aI453
aI242
aI3144
aI242
aI902
aa(lp938
I1796
aI2563
aI820
aI3378
aa(lp939
I1309
aI2523
aI197
aa(lp940
I1213
aI3193
aI1722
aI679
aI2271
aa(lp941
I3249
aI1481
aI2364
aI158
aa(lp942
I3376
aI896
aI71
aI1722
aI1199
aI158
aI2563
aI127
aI750
aI858
aa(lp943
I369
aI127
aI750
aI761
aa(lp944
I2812
aI2624
aI2873
aI2916
aI896
aI1752
aa(lp945
I786
aI1213
aI1289
aI2873
aI2916
aa(lp946
I732
aa(lp947
I595
aI1213
aI410
aI158
aa(lp948
I679
aI1365
aI3176
aI2563
aI2078
aI1175
aI2768
aI735
aI1802
aI402
aI3265
aa(lp949
I1391
aI2563
aI2923
aI2832
aI2923
aI1289
aI1012
aI975
aI1012
aI2573
aa(lp950
I679
aI1044
aI1649
aI1889
aI2563
aI1978
aI49
aI3382
aI530
aI1802
aI430
aa(lp951
I1391
aI2241
aI2563
aI2730
aI966
aI2758
aa(lp952
I1468
aI1999
aI1213
aI631
aI1592
aI1221
aa(lp953
I1094
aI2544
aI576
aI197
aI1645
aI1894
aI1666
aI3077
aI3087
aI3233
aa(lp954
I332
aI3191
aI34
aI2923
aI796
aI1024
aI3056
aa(lp955
I579
aI1118
aI631
aI2577
aa(lp956
I1653
aI2923
aI140
aI2036
aI750
aI2541
aI2873
aI896
aI1479
aI2053
aa(lp957
I2873
aI2745
aI2563
aI1580
aI3077
aI159
aI3233
aa(lp958
I679
aI1481
aI1418
aI1281
aI2563
aI1580
aI3077
aI159
aI3233
aa(lp959
I78
aI1289
aI2423
aI1846
aI631
aI453
aI1289
aI898
aI2768
aI2033
aI2580
aa(lp960
I2341
aI110
aa(lp961
I1275
aI242
aI3144
aI242
aI2771
aI2839
aI1649
aI2667
aI2768
aI2033
aI2580
aa(lp962
I3197
aI2873
aI2768
aI2033
aI2902
aI3313
aa(lp963
I1246
aI2771
aI1832
aI2768
aI2033
aI2902
aI3313
aa(lp964
I407
aI2771
aI2804
aI2873
aI2768
aI2033
aI2580
aa(lp965
I2312
aI750
aI1418
aa(lp966
I589
aI140
aI2563
aI1223
aI127
aI750
aI858
aa(lp967
I674
aI2771
aI3220
aI413
aI1685
aI669
aI896
aI3235
aI2571
aI576
aa(lp968
I2712
aI1481
aI2916
aa(lp969
I2936
aI631
aI3279
aI3305
aa(lp970
I2733
aI2939
aI485
aI3069
aI1099
aI1179
aI1395
aI2647
aa(lp971
I1858
aI2563
aI1608
aI1289
aI2111
aa(lp972
I127
aI750
aI761
aI1535
aI158
aa(lp973
I1571
aI242
aI2093
aI214
aI1289
aI1192
aI1275
aI2723
aI2018
aI242
aI656
aa(lp974
I2873
aI2745
aI2563
aI1740
aI3077
aI159
aI3233
aI242
aI2745
aI2563
aI1914
aI3077
aI159
aI3233
aa(lp975
I739
aI576
aI3364
aI1649
aI679
aI747
aI1649
aI1213
aI3077
aI434
aI3233
aI2865
aI3077
aI159
aI3233
aa(lp976
I2046
aI475
aI2579
aI413
aI446
aI232
aI126
aI576
aI2008
aI242
aI883
aI3077
aI159
aI3233
aa(lp977
I1213
aI1289
aI2688
aa(lp978
I1012
aI192
aI1468
aI750
aI1954
aI1459
aI1012
aI1479
aI1722
aI2683
aa(lp979
I3248
aI570
aI631
aI2873
aa(lp980
I1085
aI197
aI2636
aa(lp981
I1418
aI2563
aI1267
aI242
aI679
aI1204
aI1649
aI2334
aI576
aa(lp982
I1858
aI2563
aI341
aI889
aI1289
aI942
aa(lp983
I2767
aI475
aI2579
aa(lp984
I1092
aI1213
aI2515
aa(lp985
I2312
aI750
aI1418
aa(lp986
I94
aI2883
aI242
aI126
aI725
aI3077
aI159
aI3233
aa(lp987
I1481
aI812
aI1289
aI1894
aI1895
aI242
aI874
aI126
aI576
aI1279
aa(lp988
I1418
aI2563
aI920
aI2563
aI1499
aI271
aI600
aa(lp989
I739
aI576
aI3364
aI1649
aI679
aI747
aI1649
aI1213
aI3077
aI434
aI3233
aI2864
aI3077
aI159
aI3233
aa(lp990
I2100
aI3364
aI1649
aI269
aI2873
aI242
aI474
aI576
aI1064
aa(lp991
I1085
aa(lp992
I851
aI1296
aI749
aI2563
aI1978
aI1835
aI631
aI2687
aI3144
aI242
aI3410
aI576
aI273
aI576
aI95
aa(lp993
I1741
aI413
aI557
aI1539
aI1649
aI1786
aa(lp994
I78
aI2800
aI2768
aI679
aI2569
aI2873
aa(lp995
I366
aI2563
aI2715
aa(lp996
I127
aI2563
aI2114
aI413
aI1580
aa(lp997
I717
aI898
aa(lp998
I892
aI1935
aI576
aI1064
aI242
aI608
aI576
aI1252
aI621
aI2312
aI3077
aI1885
aI3233
aa(lp999
I564
aI581
aI1996
aI1479
aa(lp1000
I2992
aI127
aI2563
aI1396
aI413
aI1479
aI367
aI1088
aa(lp1001
I1213
aI3367
aa(lp1002
I1781
aI2667
aI2771
aI2873
aI413
aI1786
aI970
aa(lp1003
I2534
aI2923
aI141
aI413
aI413
aI2541
aI2873
aa(lp1004
I1796
aI2563
aI1423
aI576
aI275
aI3033
aI242
aI2905
aI242
aI941
aI242
aI1347
aa(lp1005
I127
aI750
aI858
aI2563
aI1213
aI1289
aI993
aI631
aI2960
aI73
aa(lp1006
I2660
aI271
aa(lp1007
I679
aI2819
aI2844
aa(lp1008
I564
aI1576
aI2999
aa(lp1009
I564
aI2707
aI2563
aI354
aI2921
aI3023
aa(lp1010
I1653
aI1479
aI1645
aI380
aI1954
aI320
aa(lp1011
I1094
aI2264
aI197
aI1645
aI1894
aI1666
aI413
aI413
aI3087
aa(lp1012
I1978
aI1479
aI1645
aI3063
aI242
aI1538
aI1289
aI2534
aI3077
aI2879
aI2923
aI141
aI3233
aa(lp1013
I241
aI3239
aI1645
aI1590
aI1289
aI3454
aI413
aI1040
aa(lp1014
I217
aI3263
aI2282
aI1832
aI1479
aa(lp1015
I564
aI127
aI750
aI858
aI2563
aI290
aa(lp1016
I507
aI127
aI750
aI858
aa(lp1017
I127
aI750
aI858
aI2563
aI51
aa(lp1018
I2261
aI2297
aI1914
aI2563
aI127
aI750
aI2664
aI345
aI858
aa(lp1019
I594
aI2923
aI141
aI570
aa(lp1020
I3244
aI3075
aI242
aI2274
aI1357
aI1289
aI1862
aI1954
aa(lp1021
I2748
aI1479
aI1012
aI125
aI1289
aI1631
aI1481
aI1394
aI1012
aa(lp1022
I1479
aI1645
aI367
aI413
aI3074
aI2487
aa(lp1023
I1686
aI1198
aa(lp1024
I261
aI2690
aa(lp1025
I2561
aI159
aa(lp1026
I1479
aI1645
aI367
aI413
aI3074
aI2487
aa(lp1027
I1796
aI2563
aI1740
aI576
aI1226
aI2873
aI1289
aI2394
aa(lp1028
I570
aI2563
aI63
aI1576
aI2563
aI2818
aI983
aa(lp1029
I78
aI3295
aI413
aI837
aI1213
aa(lp1030
I127
aI2563
aI2571
aI2940
aI1802
aI2182
aa(lp1031
I2707
aI2563
aI1479
aI1012
aI2830
aI1954
aI2503
aI1012
aI2265
aI1333
aI2923
aI141
aa(lp1032
I3364
aI1649
aI704
aI2667
aa(lp1033
I1698
aI1289
aI2988
aI2019
aa(lp1034
I1553
aI413
aI1653
aI2923
aI141
aI1349
aI471
aa(lp1035
I3009
aI1479
aI2563
aI2707
aa(lp1036
I78
aI3295
aI413
aI56
aI2854
aI1649
aI2839
aI1649
aI1213
aa(lp1037
I1075
aI2307
aI631
aI269
aI2771
aI3235
aI2667
aa(lp1038
I1796
aI2563
aI1740
aI576
aI1226
aI2873
aI1289
aI2394
aa(lp1039
I3221
aI413
aI1419
aI1275
aa(lp1040
I2482
aI1283
aI2563
aI1580
aI3077
aI156
aI3233
aa(lp1041
I2873
aI2746
aI2563
aI1914
aI3077
aI156
aI3233
aa(lp1042
I3362
aI3265
aI1213
aI2771
aI2873
aa(lp1043
I2707
aI2563
aI3256
aI2923
aI141
aI1479
aI242
aI1252
aI413
aI1423
aI1531
aI242
aI372
aa(lp1044
I918
aa(lp1045
I2873
aI3239
aI413
aI413
aI2491
aI141
aa(lp1046
I2489
aI1649
aI1213
aI396
aa(lp1047
I3392
aI2563
aI63
aI127
aI750
aI2053
aa(lp1048
I473
aI1282
aI2563
aI2992
aI2707
aa(lp1049
a(lp1050
I679
aI453
aI1649
aI3175
aI1644
aI3077
aI1924
aI3052
aI3233
aa(lp1051
I431
aI2923
aI141
aI413
aI413
aI2923
aI2555
aI1747
aI2923
aI1289
aI2923
aI2516
aI2021
aI2923
aa(lp1052
I1213
aI2361
aI1289
aI3317
aa(lp1053
I1239
aI271
aa(lp1054
I2194
aI3063
aI413
aI1802
aI413
aI1538
aI808
aa(lp1055
I1085
aI197
aa(lp1056
I2905
aI396
aI1649
aI886
aa(lp1057
I1361
aa(lp1058
I2874
aI2923
aI141
aI63
aI2707
aa(lp1059
I2707
aI2563
aI698
aI2667
aI413
aI2915
aI242
aI2224
aI783
aI141
aa(lp1060
I3140
aI2563
aI762
aI2873
aI3077
aI1677
aI2768
aI200
aI3233
aa(lp1061
I1336
aI3249
aI1481
aI2364
aI564
aI2910
aa(lp1062
I2050
aI1346
aa(lp1063
I3033
aI2873
aa(lp1064
I78
aI3295
aI1645
aI1538
aI3343
aa(lp1065
I48
aI1064
aa(lp1066
I570
aI2563
aI290
aa(lp1067
I650
aI2667
aa(lp1068
I2748
aI1186
aI570
aI1576
aa(lp1069
I2748
aI413
aI413
aI78
aI2060
aI242
aI1786
aa(lp1070
I197
aI1645
aI3150
aI2444
aa(lp1071
I1882
aI750
aI3186
aI1502
aa(lp1072
I322
aI2923
aI141
aI413
aI413
aI2204
aI555
aI1289
aI1980
aI897
aa(lp1073
I1419
aI1275
aI631
aI2336
aI2563
aI367
aI242
aI2439
aI1289
aI2407
aa(lp1074
I570
aI1645
aI2873
aI2771
aI2414
aa(lp1075
I1978
aI197
aI1645
aI63
aI1213
aI243
aa(lp1076
I1539
aI1649
aI3276
aI2923
aI141
aI1479
aI1786
aI3077
aI3179
aI2923
aI141
aI3233
aa(lp1077
I2707
aI2563
aI2414
aI1289
aI717
aI1928
aI3077
aI2840
aI3233
aa(lp1078
I1082
aI2544
aI3239
aI1645
aI854
aI2439
aI3077
aI3232
aI3233
aa(lp1079
I1520
aI3077
aI1094
aI2627
aI969
aI1171
aI3233
aa(lp1080
I2261
aI2297
aI2070
aI2563
aI2992
aI127
aI750
aI2664
aI345
aI858
aa(lp1081
I2748
aI1479
aa(lp1082
I1352
aI3038
aI3266
aI1722
aI699
aa(lp1083
I2534
aI2923
aI141
aa(lp1084
I78
aI830
aI631
aI1626
aI2873
aI2563
aI2768
aI513
aI1802
aI271
aa(lp1085
I2931
aI3448
aa(lp1086
I2312
aI750
aI1418
aI2563
aI1538
aI3343
aa(lp1087
I3246
aI2562
aa(lp1088
I1349
aI1289
aI1516
aI1722
aI158
aI976
aa(lp1089
I2407
aI242
aI794
aI1289
aI505
aI1773
aI1252
aI413
aI127
aI750
aI2937
aa(lp1090
I1479
aI1576
aI750
aI3415
aa(lp1091
I127
aI750
aI858
aI896
aI1022
aI1978
aI2963
aa(lp1092
I1048
aI570
aa(lp1093
I3140
aI577
aI413
aI307
aI631
aI2541
aI2873
aa(lp1094
I1915
aI3077
aI192
aI2141
aI3233
aa(lp1095
I1553
aI413
aI1653
aI2923
aI141
aI1479
aI1744
aa(lp1096
I1553
aI539
aI413
aI413
aI2541
aI2940
aI1802
aI1455
aI2667
aa(lp1097
I2541
aI2487
aI1479
aa(lp1098
I2487
aI2771
aI3075
aI2595
aa(lp1099
I262
aI1649
aI1377
aI1499
aI413
aI413
aI3263
aI115
aa(lp1100
I3442
aI474
aI2563
aI2992
aI127
aI750
aI858
aa(lp1101
I453
aI1649
aI703
aI8
aI2667
aI1479
aa(lp1102
I3101
aI1649
aI1213
aI570
aa(lp1103
I366
aI870
aI126
aI1280
aI849
aI1064
aa(lp1104
I941
aI1409
aa(lp1105
I2603
aI1479
aa(lp1106
I3239
aI166
aI3296
aI2916
aa(lp1107
I78
aI2800
aI2768
aI2569
aI2873
aI242
aI3304
aI242
aI1298
aa(lp1108
I2374
aI2923
aI141
aI3077
aI600
aI2873
aI913
aI3233
aa(lp1109
I1378
aI896
aI3289
aa(lp1110
I78
aI2800
aI2768
aI2569
aI2873
aI242
aI3304
aI242
aI1298
aa(lp1111
I78
aI2800
aI2768
aI2569
aI2873
aI242
aI3304
aI242
aI1298
aa(lp1112
I703
aI8
aI453
aI1479
aI2563
aI1172
aa(lp1113
I632
aI762
aI1241
aa(lp1114
I2312
aI750
aI1418
aI2563
aI261
aI2690
aa(lp1115
I1452
aI413
aI3187
aI859
aI72
aI859
aa(lp1116
I1796
aI2563
aI1423
aI576
aI278
aI1201
aI2563
aI3119
aI2673
aI242
aI201
aI1961
aa(lp1117
I2888
aI1720
aI3389
aI1928
aI3389
aI3361
aa(lp1118
I1302
aI570
aI413
aI413
aI1135
aI1978
aI2771
aI2589
aI2902
aa(lp1119
I1479
aI1645
aI746
aI96
aI664
aa(lp1120
I1213
aI2771
aI3347
aI737
aa(lp1121
I2873
aI2036
aI1649
aI2737
aI3205
aa(lp1122
I2748
aI1479
aa(lp1123
I1094
aI1479
aI1645
aI1561
aI297
aI2378
aa(lp1124
I3403
aI896
aI1202
aI1649
aI301
aa(lp1125
I2614
aI999
aI858
aI631
aI2873
aa(lp1126
I129
aI630
aI576
aI1645
aI2627
aI576
aI1932
aI576
aa(lp1127
I2123
aI1232
aI2923
aI141
aI413
aI1186
aI127
aa(lp1128
I171
aI2923
aI148
aa(lp1129
I1553
aI413
aI1653
aI2923
aI141
aI3077
aI1786
aI3372
aI3233
aa(lp1130
I1941
aI1289
aI679
aI2604
aa(lp1131
I2873
aI2036
aI1649
aI2737
aI3205
aa(lp1132
I2814
aI72
aI1479
aa(lp1133
I3312
aI1954
aI2515
aa(lp1134
I2434
aa(lp1135
I2114
aI564
aI127
aI750
aI3011
aa(lp1136
I1323
aI570
aa(lp1137
I377
aI570
aI1645
aI2873
aa(lp1138
I1323
aI570
aa(lp1139
I769
aI2749
aa(lp1140
I2777
aI2923
aI141
aI2707
aa(lp1141
I136
aI564
aI127
aI750
aI2068
aI1289
aI858
aa(lp1142
I2925
aI1479
aa(lp1143
I613
aI2563
aI1253
aI1836
aI1289
aI3384
aI2575
aa(lp1144
I3168
aI852
aa(lp1145
I594
aI570
aI2772
aI824
aa(lp1146
I2312
aI750
aI1418
aa(lp1147
I2538
aI631
aI3238
aI663
aI242
aI2674
aI2742
aa(lp1148
I2714
aI1213
aI3429
aa(lp1149
I78
aI2917
aI2563
aI447
aI2771
aI1208
aa(lp1150
I1477
aI846
aI2771
aI600
aI2873
aI563
aa(lp1151
I1561
aI297
aI2378
aa(lp1152
I453
aI1649
aI1455
aI2667
aa(lp1153
I1419
aI1275
aI2021
aa(lp1154
I366
aI2563
aI717
aI2873
aI2248
aI2563
aI1580
aI3077
aI156
aI3233
aa(lp1155
I3312
aI1954
aI2515
aa(lp1156
I2827
aI1649
aI294
aI2021
aa(lp1157
I1092
aI1213
aI2052
aI1479
aI242
aI3384
aI2400
aa(lp1158
I3418
aI937
aI2485
aI413
aI413
aI1144
aa(lp1159
I3009
aI1479
aI2563
aI3077
aI2261
aI3233
aa(lp1160
I2748
aI1479
aI1576
aa(lp1161
I630
aI2563
aI626
aI2923
aI149
aI2992
aI1804
aa(lp1162
I78
aI2917
aI631
aI941
aI2771
aI2577
aa(lp1163
I78
aI2917
aI631
aI1275
aI242
aI3144
aI242
aI2771
aI2839
aI1649
aI2667
aI3077
aI1580
aI1846
aI3233
aa(lp1164
I78
aI2917
aI631
aI3197
aI2873
aa(lp1165
I78
aI2917
aI631
aI2541
aI2873
aa(lp1166
I78
aI2917
aI631
aI453
aI2771
aI898
aI3077
aI1423
aI1846
aI3233
aa(lp1167
I1008
aI2873
aI976
aa(lp1168
I2992
aI2707
aI896
aI2906
aI2923
aI141
aI1479
aa(lp1169
I78
aI2917
aI631
aI1010
aI2771
aI2890
aI2873
aa(lp1170
I2761
aI3077
aI2535
aI3364
aI3233
aa(lp1171
I3085
aI3402
aI510
aI750
aI1306
aa(lp1172
I630
aI2563
aI1538
aI1289
aI1213
aI2595
aa(lp1173
I453
aa(lp1174
I1832
aa(lp1175
I870
aI126
aI1280
aI849
aI1064
aa(lp1176
I2804
aI2873
aI242
aI126
aI576
aI2370
aI242
aI849
aI576
aI1580
aa(lp1177
I1479
aI1645
aI1092
aI1213
aI2052
aI242
aI2992
aI2707
aa(lp1178
I2050
aI1346
aa(lp1179
I3417
aa(lp1180
I78
aI1418
aI1649
aI799
aI1289
aI2714
aI3077
aI1206
aI3233
aa(lp1181
I1012
aI1276
aI1179
aI461
aI2579
aI1012
aI752
aI256
aa(lp1182
I3063
aI413
aI78
aI905
aa(lp1183
I570
aI1576
aa(lp1184
I2623
aI413
aI1914
aI3077
aI1010
aI2658
aI631
aI945
aI2627
aI576
aI2067
aI3233
aa(lp1185
I1653
aI896
aI1553
aI1479
aI1645
aI380
aI1954
aI320
aa(lp1186
I1213
aI2412
aI570
aa(lp1187
I1213
aI2413
aa(lp1188
I1455
aI2667
aa(lp1189
I2368
aI1418
aI576
aa(lp1190
I1832
aa(lp1191
I78
aI2917
aI2563
aI898
aa(lp1192
I1027
aI40
aI159
aI1649
aI679
aI3161
aI968
aI1172
aI1863
aI1331
aa(lp1193
I2365
aI413
aI2992
aI127
aI750
aI858
aa(lp1194
I153
aI1946
aI475
aI2883
aI2075
aa(lp1195
I2791
aI1479
aI413
aI413
aI564
aI127
aI750
aI858
aa(lp1196
I564
aI2707
aI51
aa(lp1197
I159
aI2264
aI1419
aI3382
aI271
aI570
aa(lp1198
I217
aI3263
aI2282
aI1832
aI1479
aa(lp1199
I78
aI3295
aI2563
aI717
aI2873
aa(lp1200
I1666
aI750
aI2921
aI2810
aa(lp1201
I632
aI269
aI453
aI1479
aa(lp1202
I2553
aI570
aI413
aI2992
aI127
aa(lp1203
I1460
aI1239
aI453
aI570
aa(lp1204
I453
aa(lp1205
I3140
aI2634
aI750
aI2541
aI1827
aI1289
aI1701
aa(lp1206
I1941
aI1289
aI679
aI2604
aI2563
aI126
aI576
aI2743
aI849
aI576
aI1252
aa(lp1207
I3234
aI413
aI1213
aI3416
aI1989
aa(lp1208
I679
aI3416
aI221
aI1649
aI1468
aa(lp1209
I1911
aI2923
aI141
aI127
aI750
aI858
aa(lp1210
I632
aI762
aI1241
aa(lp1211
I1418
aI1649
aI2689
aI1289
aI251
aa(lp1212
I570
aI1645
aI1481
aI1198
aI631
aI588
aI650
aI2667
aa(lp1213
I1012
aI1775
aI1179
aI2820
aI1012
aI852
aa(lp1214
I1479
aI1645
aI1301
aI3077
aI63
aI127
aI750
aI858
aI3233
aa(lp1215
I63
aI127
aI750
aI858
aa(lp1216
I1576
aI1649
aI3138
aa(lp1217
I2046
aI475
aI273
aI2923
aI1806
aa(lp1218
I1735
aI1289
aI897
aI631
aI2873
aa(lp1219
I125
aI1289
aI1631
aI1481
aI2673
aa(lp1220
I2126
aI1479
aI1645
aI1213
aI1524
aa(lp1221
I1092
aI1213
aI2515
aI631
aI3119
aI413
aI2713
aI1213
aI1468
aa(lp1222
I2909
aI3077
aI3263
aI3233
aa(lp1223
I127
aI750
aI858
aI2861
aI896
aI2616
aa(lp1224
I1186
aI192
aI2141
aI570
aI1915
aa(lp1225
I539
aI413
aI413
aI2407
aI2986
aI413
aI413
aI1553
aI896
aI1653
aI242
aI1432
aI242
aI984
aa(lp1226
I131
aI1479
aI1645
aI1657
aI1532
aI866
aa(lp1227
I1213
aI1289
aI1634
aI3288
aI413
aI413
aI1576
aa(lp1228
I3140
aI1576
aa(lp1229
I1455
aI2349
aI413
aI413
aI3276
aI2923
aI141
aa(lp1230
I1213
aI2673
aI1289
aI2074
aa(lp1231
I2785
aI1451
aa(lp1232
I2692
aI679
aI1025
aI750
aI1213
aI1388
aI396
aa(lp1233
I1538
aI1240
aI1649
aI1938
aI1538
aa(lp1234
I2906
aI2923
aI141
aI3047
aI1804
aI1289
aI127
aI750
aI761
aa(lp1235
I2618
aI896
aI2462
aI197
aI2563
aI2992
aI127
aa(lp1236
I366
aI2563
aI1481
aI296
aI1064
aI2563
aI1423
aI3077
aI156
aI3233
aa(lp1237
I2914
aI2923
aI141
aa(lp1238
I2643
aI2735
aI896
aI2682
aI1696
aI203
aI2349
aa(lp1239
a(lp1240
I2643
aI413
aI1317
aI631
aI2954
aa(lp1241
I3144
aI2563
aI1628
aI960
aa(lp1242
I679
aI2074
aI1649
aI788
aI2021
aa(lp1243
I2489
aI1649
aI1213
aI396
aa(lp1244
I1879
aI2670
aI1289
aI1213
aI570
aI1576
aa(lp1245
I2814
aI72
aI1479
aI3077
aI2992
aI127
aI750
aI858
aI3233
aI1289
aa(lp1246
I1539
aI2563
aI2050
aI1346
aI570
aI1786
aa(lp1247
I2707
aI1344
aI72
aI178
aI2923
aI141
aI896
aI1107
aI2923
aI141
aI2037
aI242
aI3443
aa(lp1248
I1085
aa(lp1249
I89
aa(lp1250
a(lp1251
I1978
aI3364
aI1649
aI537
aI8
aI2667
aI242
aI126
aI1355
aa(lp1252
I752
aI1865
aI2733
aI1670
aI485
aI3335
aa(lp1253
I2561
aI1900
aa(lp1254
I1940
aI1649
aI2873
aI570
aI413
aI3331
aI3077
aI2147
aI3233
aI242
aI1252
aI413
aI1580
aI3001
aa(lp1255
I3364
aI1649
aI1104
aI2667
aI1289
aI2873
aI3077
aI310
aI3233
aa(lp1256
I2873
aI2745
aI2563
aI1064
aI3077
aI159
aI3233
aa(lp1257
I1481
aI296
aI1252
aI2563
aI1064
aI3077
aI159
aI3233
aa(lp1258
I1941
aI1289
aI679
aI2604
aI1935
aI576
aI2744
aI849
aI576
aI1914
aa(lp1259
I1012
aI2316
aI1949
aI2563
aI1903
aI1289
aI1496
aI1012
aa(lp1260
I1960
aI3077
aI2629
aI3233
aI2008
aa(lp1261
I2921
aI2658
aa(lp1262
I2407
aI242
aI794
aI1289
aI505
aI1773
aI1252
aI413
aI2992
aI2707
aa(lp1263
I1766
aI2563
aI1094
aI3066
aI1832
aI2364
aa(lp1264
I1860
aI2378
aa(lp1265
I3119
aI2713
aI1213
aI1468
aa(lp1266
I63
aI127
aI750
aI858
aI2563
aI2561
aI159
aa(lp1267
I3209
aI413
aI413
aI63
aI127
aI750
aI858
aa(lp1268
I1109
aI2923
aI141
aa(lp1269
I961
aI413
aI2100
aI3239
aa(lp1270
I1466
aI3047
aI1804
aa(lp1271
I127
aI750
aI858
aI2563
aI1306
aa(lp1272
I599
aa(lp1273
I2960
aI8
aI2873
aI1645
aI896
aI3255
aI679
aI79
aa(lp1274
I197
aI1645
aI2897
aI1289
aI243
aI2021
aI631
aI73
aI2563
aa(lp1275
I2261
aI2563
aI2992
aI2707
aI1289
aI2556
aI1836
aa(lp1276
I78
aI1786
aI750
aI3011
aI2563
aI399
aI141
aa(lp1277
I2261
aI2297
aI2248
aI2563
aI1600
aI858
aI1289
aI3384
aI3440
aa(lp1278
I2407
aI1427
aI2667
aI1289
aI1687
aa(lp1279
I1588
aa(lp1280
I2592
aI2923
aI141
aa(lp1281
I1057
aI1289
aI3253
aI2563
aI1592
aI331
aI1649
aI1085
aa(lp1282
I2712
aI1481
aI2916
aI862
aI544
aI2022
aI2364
aa(lp1283
I1238
aI533
aa(lp1284
I399
aI141
aI2563
aI2508
aI3372
aI1289
aI1804
aa(lp1285
I2157
aI2923
aI141
aI2563
aI1223
aI127
aI750
aI858
aa(lp1286
I2707
aI2563
aI1213
aI2673
aI750
aI650
aI203
aI2667
aa(lp1287
I595
aI1213
aI410
aI141
aI1786
aa(lp1288
I2925
aI1479
aI413
aI413
aI413
aI564
aI127
aI750
aI858
aa(lp1289
I2778
aI2563
aI2100
aI1143
aI2667
aI3077
aI958
aI3233
aa(lp1290
I679
aI453
aI1649
aI1455
aI2667
aI3077
aI2992
aI1804
aI1289
aI966
aI583
aI3233
aa(lp1291
I613
aI2563
aI3384
aI1539
aa(lp1292
I290
aI570
aI1804
aI1289
aI3384
aa(lp1293
I2748
aI1479
aI1576
aa(lp1294
I3389
aI2324
aI576
aI576
aI576
aI1289
aa(lp1295
I78
aI3295
aI2563
aI3129
aI896
aI3265
aI271
aa(lp1296
I595
aI1213
aI410
aI159
aa(lp1297
I1213
aI1289
aI717
aI1500
aI703
aI8
aI2349
aa(lp1298
I78
aI3295
aI2563
aI2804
aI2873
aa(lp1299
I2123
aI173
aI570
aa(lp1300
I2024
aa(lp1301
I3295
aI2563
aI1213
aI396
aa(lp1302
I1275
aI570
aI1722
aI3035
aa(lp1303
I612
aI570
aI1836
aa(lp1304
I2488
aI896
aI352
aI197
aI631
aI2756
aI242
aI1004
aI3077
aI1432
aI141
aI3233
aa(lp1305
I356
aI474
aI2622
aa(lp1306
I127
aI2563
aI1522
aa(lp1307
I1457
aI1750
aa(lp1308
I1890
aI1930
aI822
aI475
aI2579
aI3077
aI3299
aI3233
aa(lp1309
I78
aI3364
aI413
aI413
aI1954
aa(lp1310
I1698
aI1289
aI2988
aI2019
aa(lp1311
I570
aI1645
aI2067
aI1289
aI716
aI1524
aI750
aI3238
aI2305
aa(lp1312
I918
aa(lp1313
I197
aI2619
aI242
aI2523
aI2771
aI2506
aa(lp1314
I2322
aI2070
aI2563
aI2707
aa(lp1315
I2255
aI413
aI2992
aI127
aI750
aI858
aa(lp1316
I2567
aI750
aI1475
aI1104
aI1289
aI2720
aI1903
aa(lp1317
I367
aI413
aI3074
aI1289
aI1120
aI1344
aa(lp1318
I2748
aI1479
aI242
aI1765
aI1836
aa(lp1319
I2631
aI413
aI740
aI570
aa(lp1320
I981
aI3285
aI3077
aI3359
aI896
aI2184
aI242
aI3154
aI576
aI3233
aa(lp1321
I1186
aI3040
aI2707
aa(lp1322
I1094
aI3066
aI1832
aI2364
aI413
aI1836
aa(lp1323
I2736
aI141
aI2563
aI127
aI750
aI761
aI1289
aI1804
aa(lp1324
I203
aI2667
aI631
aI2336
aa(lp1325
I2080
aI999
aI858
aI3399
aa(lp1326
I1344
aI72
aI178
aI2923
aI141
aI1786
aI3372
aI1077
aI2123
aa(lp1327
I1491
aI3288
aa(lp1328
I2814
aI72
aI159
aa(lp1329
I1832
aa(lp1330
I477
aI3011
aI2356
aI1064
aI1077
aI141
aa(lp1331
I1012
aI1213
aI2673
aI750
aI650
aI203
aI2667
aI1012
aa(lp1332
I555
aI1118
aI1645
aI679
aI33
aa(lp1333
I2511
aI631
aI1382
aa(lp1334
I3221
aI413
aI1419
aI1275
aa(lp1335
I1213
aI1289
aI717
aI1500
aa(lp1336
I1940
aI1649
aI1481
aI687
aa(lp1337
I23
aI2873
aI3077
aI271
aI3233
aa(lp1338
I1796
aI2563
aI1423
aI576
aI884
aI1992
aI1796
aI2563
aI2238
aa(lp1339
I78
aI445
aI1831
aI3077
aI2646
aI3233
aa(lp1340
I752
aI2563
aI3241
aI1179
aI2647
aa(lp1341
I2925
aI1479
aI413
aI413
aI413
aI1543
aI1786
aa(lp1342
I2921
aI3023
aI192
aI2141
aI2563
aI2992
aI127
aI750
aI858
aa(lp1343
I78
aI2611
aI1645
aI3129
aa(lp1344
I269
aI1239
aI453
aI2499
aa(lp1345
I1239
aI2940
aI1802
aI614
aI624
aa(lp1346
I2714
aI2893
aI1289
aI1989
aa(lp1347
I3075
aI3370
aI1213
aI3288
aa(lp1348
I614
aI570
aI419
aI158
aa(lp1349
I1940
aI1649
aI679
aI2908
aI1310
aI631
aI679
aI2821
aI1944
aa(lp1350
I717
aI1928
aI2741
aI101
aI2768
aI1134
aa(lp1351
I2906
aI2923
aI141
aI3248
aI1465
aa(lp1352
I2738
aI2563
aI2660
aa(lp1353
I1418
aI1649
aI842
aI413
aI1727
aI2771
aI405
aI3077
aI1171
aI3233
aI1351
aI2351
aI576
aI576
aI576
aa(lp1354
I679
aI2074
aI1649
aI788
aI2021
aI413
aI1479
aI127
aI750
aI858
aa(lp1355
I1213
aI2673
aI1289
aI2074
aa(lp1356
I2791
aI413
aI413
aI1186
aI127
aI750
aI858
aa(lp1357
I127
aI2563
aI1385
aI600
aI2873
aI1061
aI570
aa(lp1358
I2316
aI1949
aa(lp1359
I1344
aI72
aI178
aI2923
aI141
aI1645
aI1778
aI1586
aI1649
aI1344
aa(lp1360
I570
aI1645
aI2468
aI983
aI3077
aI1481
aI3158
aI3233
aa(lp1361
I1858
aI1649
aI1781
aI1538
aI70
aa(lp1362
I2141
aa(lp1363
I3459
aI1784
aI242
aI3323
aI418
aI242
aI1836
aa(lp1364
I1945
aa(lp1365
I1652
aI1293
aI2923
aI140
aI413
aI756
aI1645
aI3284
aa(lp1366
I2332
aI2779
aI37
aI2836
aI1279
aI413
aI2281
aI242
aI1150
aI576
aI141
aa(lp1367
I1186
aI2022
aI257
aI570
aa(lp1368
I1607
aI141
aI1804
aa(lp1369
I2326
aI2707
aI2563
aI2777
aI2923
aI141
aa(lp1370
I73
aI413
aI2569
aI1213
aI2921
aI3023
aa(lp1371
I27
aI570
aI1649
aI2430
aI1289
aI3197
aI2571
aI576
aa(lp1372
I1796
aI2563
aI1740
aI576
aI2509
aI1213
aI396
aI896
aI2186
aI896
aI3144
aa(lp1373
I3127
aI242
aI1481
aI2921
aI3023
aa(lp1374
I1085
aa(lp1375
I1941
aI1289
aI2873
aa(lp1376
I2804
aI2873
aI242
aI126
aI576
aI3437
aI242
aI849
aI576
aI1064
aa(lp1377
I2707
aI2563
aI3441
aI2923
aI141
aa(lp1378
I3227
aI1213
aI2284
aa(lp1379
I1524
aI2771
aI3227
aI1213
aI23
aa(lp1380
I78
aI3295
aI2563
aI301
aI1289
aI3448
aa(lp1381
I78
aI2917
aI2563
aI1085
aa(lp1382
I78
aI2917
aI2563
aI391
aI2873
aa(lp1383
I1087
aI242
aI2433
aI344
aI242
aI1289
aI679
aI23
aI1649
aI2873
aa(lp1384
I78
aI2917
aI2563
aI1213
aI2152
aa(lp1385
I1368
aI3235
aI159
aa(lp1386
I1381
aI2016
aI413
aI413
aI127
aI750
aI858
aa(lp1387
I564
aI1213
aI396
aa(lp1388
I1419
aI1275
aI2021
aI413
aI1084
aI107
aa(lp1389
I3276
aI2923
aI141
aI2101
aI1479
aa(lp1390
I125
aI1289
aI1631
aI1481
aI2673
aa(lp1391
I1491
aI1198
aa(lp1392
I453
aI1289
aI1275
aI1649
aI3194
aI1289
aI1623
aI3060
aa(lp1393
I360
aI570
aI1645
aI3222
aI1289
aI1658
aa(lp1394
I1213
aI3101
aI2336
aa(lp1395
I473
aI1282
aa(lp1396
I3374
aI413
aI3074
aI627
aI1722
aI1553
aI413
aI1653
aa(lp1397
I2058
aI1359
aI153
aa(lp1398
I2264
aI1564
aI40
aI1645
aI1538
aI2515
aa(lp1399
I807
aI1027
aI2364
aa(lp1400
I1479
aI1645
aI746
aI96
aI700
aa(lp1401
I1066
aI3
aI1479
aI1645
aI1832
aI3077
aI207
aI1580
aI3233
aa(lp1402
I1540
aI1847
aa(lp1403
I2173
aI2923
aI150
aI852
aI3077
aI970
aI1649
aI966
aI3233
aa(lp1404
I2364
aI1430
aa(lp1405
I1796
aI2563
aI1740
aI576
aI2507
aI2341
aI110
aa(lp1406
I1008
aI2873
aI2916
aa(lp1407
I3442
aI474
aa(lp1408
I570
aI1576
aI2563
aI1103
aI141
aa(lp1409
I604
aI2563
aI261
aI2690
aa(lp1410
I1113
aI1173
aI453
aI1479
aI2563
aI1539
aa(lp1411
I1309
aI2563
aI1261
aI3364
aI2563
aI1576
aI2771
aI127
aI750
aI761
aa(lp1412
I570
aI1576
aa(lp1413
I2749
aI1835
aa(lp1414
I1303
aI413
aI1909
aI2490
aI631
aI678
aI2873
aa(lp1415
I1085
aa(lp1416
I2341
aI492
aa(lp1417
I2667
aI1649
aI679
aI2437
aI242
aI976
aI1649
aI2873
aI242
aI1264
aa(lp1418
I1832
aa(lp1419
I3144
aa(lp1420
I453
aa(lp1421
I613
aI3384
aI1289
aI3363
aa(lp1422
I2921
aI1047
aI1722
aI717
aI2916
aa(lp1423
I1805
aI2563
aI1786
aI1543
aa(lp1424
I1924
aI570
aI1576
aa(lp1425
I1438
aI2873
aa(lp1426
I1227
aI3421
aI576
aI3445
aI630
aI2563
aI3362
aI3265
aI1213
aI2771
aI2414
aa(lp1427
I1796
aI2563
aI1740
aI576
aI957
aI1858
aI2563
aI579
aI155
aI226
aI3077
aI1289
aI1328
aI1645
aI296
aI3233
aa(lp1428
I2992
aI1836
aI1479
aI1645
aI125
aI1289
aI1631
aI1481
aI2673
aa(lp1429
I1041
aI1949
aI1649
aI1213
aI2836
aa(lp1430
I694
aa(lp1431
I164
aI2921
aI3023
aI1645
aI605
aI2563
aI1539
aa(lp1432
I3033
aI2873
aI413
aI413
aI1839
aI570
aa(lp1433
I570
aI1645
aI2361
aI1289
aI3317
aI1649
aI203
aI2667
aa(lp1434
I2114
aI413
aI1580
aa(lp1435
I1804
aI2771
aI2575
aI2563
aI1479
aI1645
aI632
aI762
aI1241
aa(lp1436
I2767
aI475
aI1535
aI140
aa(lp1437
I3172
aI1649
aI2408
aa(lp1438
I632
aI492
aa(lp1439
I159
aI655
aI197
aa(lp1440
I612
aI141
aI1097
aI576
aI1878
aa(lp1441
I2157
aI2923
aI141
aI2563
aI2992
aI127
aI750
aI858
aa(lp1442
I1479
aI887
aI1289
aI127
aI750
aI858
aI413
aI231
aa(lp1443
I2966
aI2923
aI203
aI2667
aI631
aI2336
aI2923
aa(lp1444
I2312
aI750
aI1418
aI2563
aI3243
aI141
aI413
aa(lp1445
I792
aI2836
aI631
aI595
aI1213
aI2413
aI126
aI576
aI1914
aa(lp1446
I78
aI2917
aI631
aI453
aI2771
aI898
aa(lp1447
I78
aI2917
aI631
aI1246
aI2771
aI1832
aa(lp1448
I78
aI2917
aI631
aI1085
aI2771
aI2804
aI2873
aa(lp1449
I2772
aa(lp1450
I1391
aI2563
aI3044
aI2826
aa(lp1451
I2778
aI2563
aI3442
aI474
aI413
aI2873
aI631
aI717
aI1928
aa(lp1452
I2814
aI72
aI1479
aI3384
aI1289
aI2226
aa(lp1453
I1144
aa(lp1454
I1698
aI1289
aI2988
aI2019
aa(lp1455
I2858
aI2923
aI141
aa(lp1456
I184
aI413
aI413
aI3239
aI1645
aI2141
aa(lp1457
I2263
aI2923
aI141
aa(lp1458
I1038
aI2544
aI1750
aI1649
aI1827
aa(lp1459
I127
aI750
aI858
aI413
aI642
aa(lp1460
I269
aI1289
aI3235
aI877
aa(lp1461
I1796
aI2563
aI1740
aI576
aI216
aI2355
aI330
aa(lp1462
I2918
aI3075
aI1649
aI691
aI1213
aI2563
aI948
aI2351
aa(lp1463
I1978
aI1198
aI1649
aI210
aa(lp1464
I259
aI685
aI2563
aI1064
aa(lp1465
I2669
aI999
aI858
aI631
aI2873
aa(lp1466
I2712
aI1246
aI1289
aI1832
aI3077
aI1651
aI3233
aI141
aI127
aa(lp1467
I1479
aI1576
aa(lp1468
I962
aI1832
aI3077
aI867
aI3233
aa(lp1469
I962
aI3144
aI3077
aI867
aI3233
aa(lp1470
I962
aI453
aI3077
aI867
aI3233
aa(lp1471
I1479
aI1645
aI1377
aI1499
aa(lp1472
I1796
aI2563
aI1740
aI576
aI2509
aI1213
aI396
aI896
aI2186
aI896
aI3144
aa(lp1473
I1418
aI2563
aI2201
aI242
aI1832
aI1649
aI3000
aI576
aa(lp1474
I829
aI2923
aI141
aI413
aI3136
aI737
aI242
aI580
aa(lp1475
I2101
aI2923
aI141
aI1479
aa(lp1476
I564
aI539
aI1645
aI2913
aa(lp1477
I1588
aI242
aI2992
aI127
aI750
aI2053
aa(lp1478
I698
aI2667
aI413
aI2915
aI242
aI783
aI141
aI413
aI127
aI750
aI3384
aa(lp1479
I2441
aI413
aI1869
aI2667
aa(lp1480
I3459
aI2264
aI570
aI1645
aI3382
aI271
aa(lp1481
I2921
aI3023
aI119
aa(lp1482
I1652
aI591
aI1479
aI1645
aI2714
aI2893
aI1289
aI1989
aa(lp1483
I1796
aI2563
aI1740
aI576
aI2510
aI1858
aI2563
aI1012
aI2832
aI1012
aI1289
aI975
aI2573
aa(lp1484
I393
aI2350
aa(lp1485
I2312
aI750
aI1418
aI2563
aI2407
aI242
aI1886
aa(lp1486
I1553
aI896
aI1653
aI2923
aI141
aI3128
aI1645
aI2515
aI1649
aI3374
aI413
aI3074
aI627
aa(lp1487
I296
aI1289
aI1198
aa(lp1488
I2312
aI750
aI1418
aI2563
aI453
aI242
aI1491
aI242
aI396
aa(lp1489
I1094
aI154
aI413
aI1564
aI40
aI2563
aI1825
aI1213
aI296
aI631
aI891
aa(lp1490
I564
aI1479
aI1645
aI2913
aI2707
aa(lp1491
I1945
aI127
aI750
aI858
aa(lp1492
I630
aI2563
aI2101
aI1479
aI1722
aI3276
aI2923
aI141
aa(lp1493
I78
aI2873
aI3364
aI413
aI1931
aa(lp1494
I1858
aI2563
aI2399
aI1289
aI2407
aI2428
aa(lp1495
I78
aI2917
aI2563
aI918
aa(lp1496
I2441
aI413
aI1869
aI2667
aa(lp1497
I217
aI2264
aI2704
aI2780
aa(lp1498
I158
aI3182
aI1289
aI1478
aI897
aa(lp1499
I3028
aI413
aI2100
aI983
aa(lp1500
I1275
aa(lp1501
I78
aI2917
aI2563
aI2141
aa(lp1502
I1155
aI631
aI3235
aa(lp1503
I2748
aI1479
aI1576
aa(lp1504
I17
aI127
aI750
aI858
aa(lp1505
I2554
aI3093
aI750
aI1012
aI414
aI1012
aI242
aI1012
aI1729
aI1012
aI242
aI3154
aI576
aa(lp1506
I1599
aI1289
aI1445
aI679
aI1346
aa(lp1507
I2874
aI2923
aI141
aI413
aI127
aI750
aI761
aa(lp1508
I2830
aI342
aI2087
aI3077
aI2784
aI2923
aI140
aI3233
aa(lp1509
I975
aI2199
aI576
aI1649
aI1922
aI611
aI2022
aI570
aa(lp1510
I1804
aI3092
aI630
aI576
aI2475
aI271
aI242
aI3059
aI1289
aI1707
aI271
aI159
aa(lp1511
I78
aI2917
aI2563
aI1239
aI983
aa(lp1512
I78
aI2917
aI2563
aI3144
aI2771
aI2407
aa(lp1513
I683
aa(lp1514
I2619
aI970
aI413
aI2619
aI3448
aa(lp1515
I1306
aI1649
aI1265
aI1538
aI1479
aa(lp1516
I2554
aI414
aI631
aI2336
aa(lp1517
I570
aI2923
aI1346
aI631
aI1818
aI2923
aa(lp1518
I583
aI1802
aI3023
aI2410
aI576
aI2405
aa(lp1519
I1418
aI3243
aI159
aa(lp1520
I3352
aI632
aI269
aI453
aI1479
aa(lp1521
I1381
aI2016
aI413
aI413
aI2992
aI127
aI750
aI858
aa(lp1522
I1455
aI2667
aI1479
aa(lp1523
I1941
aI1289
aI679
aI2604
aI2563
aI126
aI2743
aI242
aI849
aI1423
aa(lp1524
I2454
aI1479
aa(lp1525
I1246
aI242
aI1832
aI2563
aI1448
aI1832
aa(lp1526
I1085
aa(lp1527
I3265
aI414
aI3093
aa(lp1528
I898
aI1289
aI453
aa(lp1529
I1275
aa(lp1530
I717
aI2873
aa(lp1531
I391
aI2873
aa(lp1532
I2457
aI1198
aI1479
aI2563
aI2852
aI3363
aa(lp1533
I202
aI2525
aI1913
aI3136
aI659
aa(lp1534
I1924
aI1576
aI1649
aI679
aI1323
aI570
aa(lp1535
I1419
aI3382
aI271
aI630
aI2563
aI2992
aI127
aI750
aI858
aa(lp1536
I477
aI2923
aI141
aa(lp1537
I801
aI750
aI1418
aI2563
aI1832
aI242
aI1275
aI242
aI802
aI242
aI1820
aa(lp1538
I542
aI2768
aI679
aI3257
aI3077
aI515
aI1150
aI149
aI3233
aa(lp1539
I1085
aa(lp1540
I1213
aI3429
aa(lp1541
I296
aa(lp1542
I78
aI3174
aI2562
aI631
aI2873
aa(lp1543
I2854
aa(lp1544
I78
aI2836
aI2563
aI983
aI631
aI367
aI2873
aa(lp1545
I2423
aI2800
aI1645
aI3144
aa(lp1546
I3276
aI2923
aI141
aI3384
aI1786
aa(lp1547
I1344
aI72
aI178
aI141
aI896
aI2817
aI72
aI2685
aI141
aI3384
aI2575
aa(lp1548
I3194
aI1289
aI1623
aI3060
aa(lp1549
I679
aI423
aa(lp1550
I1213
aI1289
aI2688
aa(lp1551
I2858
aI1479
aI1645
aI1700
aI164
aI2021
aI413
aI2707
aa(lp1552
I1275
aI2563
aI629
aI2382
aI971
aa(lp1553
I2917
aI1645
aI2487
aa(lp1554
I2917
aI1645
aI391
aI2873
aa(lp1555
I2917
aI1645
aI1365
aI1213
aI2771
aI2897
aa(lp1556
I2917
aI1645
aI1820
aa(lp1557
I2917
aI1645
aI2314
aI2873
aa(lp1558
I2917
aI1645
aI3382
aI2873
aa(lp1559
I2917
aI1645
aI679
aI1940
aI1649
aI2873
aa(lp1560
I2656
aI3370
aI3265
aI686
aa(lp1561
I2921
aI2658
aa(lp1562
I2293
aI570
aI1645
aI1742
aI3347
aa(lp1563
I376
aI1900
aa(lp1564
I1306
aI1479
aI2843
aa(lp1565
I1553
aI896
aI1653
aI1479
aI1645
aI3199
aI413
aI2098
aI1954
aI1989
aa(lp1566
I1579
aI1696
aI1011
aI159
aa(lp1567
I801
aI750
aI1418
aI242
aI1832
aI242
aI1275
aI242
aI1596
aI1810
aa(lp1568
I3276
aI141
aI1479
aI1012
aI2407
aI2986
aI1289
aI2407
aI3351
aI1012
aa(lp1569
I1479
aI1695
aI3047
aI1804
aa(lp1570
I1685
aI2264
aI570
aI1645
aI717
aI1928
aI3077
aI2787
aI502
aI3233
aa(lp1571
I1303
aI413
aI1909
aI2490
aI631
aI678
aI2873
aa(lp1572
I384
aI2873
aI570
aa(lp1573
I2917
aI2563
aI1978
aI2749
aI1649
aI2100
aI2873
aa(lp1574
I2777
aI2923
aI141
aI413
aI413
aI377
aI570
aI1645
aI2873
aa(lp1575
I829
aI2923
aI141
aI413
aI1172
aI1836
aa(lp1576
I3266
aI1576
aa(lp1577
I3140
aI1576
aI242
aI600
aI2873
aI242
aI1477
aa(lp1578
I3140
aI135
aa(lp1579
I1195
aI364
aI2326
aI127
aI750
aI858
aa(lp1580
I2407
aI570
aI2992
aI127
aa(lp1581
I630
aI2563
aI211
aI2787
aa(lp1582
I1858
aI2563
aI2819
aI3237
aI2813
aa(lp1583
I1796
aI2563
aI1740
aI576
aI2227
aI2873
aI1720
aI1012
aI1928
aI1012
aa(lp1584
I2656
aI1645
aI1238
aI1289
aI2392
aa(lp1585
I1431
aI631
aI2541
aI2071
aI2563
aI732
aI242
aI3328
aI242
aI1196
aI576
aa(lp1586
I3140
aI601
aa(lp1587
I935
aI1402
aI631
aI717
aI1928
aI2312
aa(lp1588
I1858
aI2563
aI2873
aI1289
aI2394
aa(lp1589
I1796
aI2563
aI1740
aI576
aI2747
aI33
aI413
aI3329
aI1481
aI2215
aa(lp1590
I2540
aI679
aI2295
aI50
aa(lp1591
I1381
aI1821
aI570
aI1444
aa(lp1592
I2575
aI1796
aI2563
aI1537
aI2391
aI2113
aa(lp1593
I3386
aa(lp1594
I2656
aI2563
aI243
aI1289
aI1832
aa(lp1595
I1287
aI3362
aI2629
aI413
aI1903
aa(lp1596
I2670
aI862
aI983
aI242
aI2239
aI3438
aI2902
aa(lp1597
I2902
aI1649
aI429
aI242
aI3068
aI1804
aa(lp1598
I2902
aI1649
aI2483
aI2563
aI899
aI631
aI61
aa(lp1599
I2656
aI1645
aI1840
aI1383
aI2525
aI522
aI242
aI3154
aI576
aa(lp1600
I665
aI501
aI423
aa(lp1601
I509
aI3344
aI757
aI3361
aa(lp1602
I2942
aI1471
aa(lp1603
I3275
aa(lp1604
I1796
aI2563
aI1740
aI576
aI1991
aI1142
aI2563
aI975
aI2100
aI242
aI986
aI413
aI272
aI750
aI442
aI242
aI2538
aI2428
aI242
aa(lp1605
I1235
aI576
aI3143
aI576
aI2720
aI2182
aI576
aI197
aa(lp1606
I1400
aI961
aI631
aI397
aI315
aa(lp1607
I127
aI750
aI858
aa(lp1608
I2707
aI413
aI2423
aI708
aI631
aI1344
aa(lp1609
I3389
aI259
aI3389
aa(lp1610
I1796
aI2563
aI1012
aI414
aI1012
aI1064
aI896
aI1252
aa(lp1611
I127
aI750
aI3295
aI2053
aa(lp1612
I2583
aI1827
aI2563
aI1219
aa(lp1613
a(lp1614
a(lp1615
I2540
aI679
aI2295
aI50
aa(lp1616
I3044
aI2826
aI631
aI1352
aI3154
aI576
aa(lp1617
I1917
aI1645
aI691
aI417
aa(lp1618
I1796
aI2563
aI1740
aI576
aI1990
aI1858
aI2563
aI2873
aI1289
aI2394
aa(lp1619
I1539
aI382
aa(lp1620
I3359
aI631
aI1790
aI538
aI3255
aI2768
aI2988
aI2819
aI1213
aI413
aI646
aI1026
aI3361
aa(lp1621
I1391
aI2563
aI3184
aI413
aI2001
aI714
aa(lp1622
I1391
aI2563
aI961
aI311
aI2217
aI750
aI2268
aa(lp1623
I1796
aI2563
aI1858
aI2563
aI2819
aI3237
aI2813
aa(lp1624
I1594
aI2563
aI960
aI2983
aI631
aI1196
aa(lp1625
I1858
aI2563
aI2186
aI1802
aI653
aa(lp1626
I1391
aI2563
aI631
aI3439
aI3093
aa(lp1627
I1858
aI2563
aI536
aI2826
aa(lp1628
I1645
aI1590
aa(lp1629
I2873
aI1133
aI1831
aI631
aI234
aa(lp1630
I1796
aI2563
aI1740
aI576
aI2731
aI2819
aI3237
aI2813
aa(lp1631
I1858
aI2563
aI3378
aa(lp1632
I1858
aI2563
aI3119
aI1306
aa(lp1633
I46
aI896
aI148
aa(lp1634
I1796
aI2563
aI1774
aI1102
aI896
aI1123
aI1213
aa(lp1635
I1736
aI2067
aI1212
aI1804
aa(lp1636
I2022
aI570
aI1649
aI679
aI3161
aa(lp1637
I1479
aI1645
aI1213
aI970
aI1289
aI1239
aI453
aI242
aI1937
aI2762
aa(lp1638
I624
aI1759
aI2020
aI475
aI2661
aa(lp1639
I1252
aI576
aI2164
aI1452
aI413
aI3187
aI859
aI859
aa(lp1640
I561
aI271
aI1391
aa(lp1641
I2992
aI2878
aI45
aI3113
aI413
aI3233
aI2837
aa(lp1642
I414
aI1423
aI1064
aI896
aI1252
aa(lp1643
a(lp1644
I1796
aI2563
aI1740
aI576
aI2968
aI2819
aI3237
aI2813
aa(lp1645
I2111
aI2118
aI2563
aI1391
aa(lp1646
I679
aI632
aI492
aI1289
aI187
aI472
aa(lp1647
I3140
aI135
aa(lp1648
I3140
aI667
aa(lp1649
I3140
aI3266
aa(lp1650
I127
aI750
aI858
aI2563
aI1213
aI1289
aI993
aI631
aI2960
aI73
aa(lp1651
I561
aI271
aa(lp1652
I127
aI750
aI858
aI413
aI2638
aI367
aI1479
aa(lp1653
I2135
aI2873
aa(lp1654
I1012
aI1858
aI2563
aI3018
aI896
aI147
aI896
aI1630
aI896
aI1406
aa(lp1655
I3341
aI3327
aa(lp1656
I1562
aI2703
aI867
aa(lp1657
I106
aI1200
aI2575
aI1645
aI733
aa(lp1658
I3176
aI3077
aI1796
aI2563
aI1740
aI576
aI1971
aI2554
aI1012
aI414
aI1012
aI3233
aa(lp1659
I127
aI101
aa(lp1660
I1858
aI2563
aI1095
aI860
aI631
aI413
aI1170
aa(lp1661
I1391
aI1649
aI2923
aI1824
aI2923
aa(lp1662
I1594
aI1649
aI201
aI1883
aI1816
aa(lp1663
I1012
aI660
aI1012
aI3034
aI1012
aI954
aI963
aI1012
aI2563
aI1391
aa(lp1664
I1796
aI2563
aI1740
aI576
aI3188
aI3093
aI750
aI414
aa(lp1665
I1040
aI621
aI1978
aI1391
aI1649
aI1876
aI1802
aI168
aI2656
aI3370
aI1978
aI1012
aI3024
aI1012
aa(lp1666
a(lp1667
a(lp1668
a(lp1669
I2546
aI913
aI2090
aI750
aI3301
aI413
aI413
aI1576
aa(lp1670
I3421
aI2923
aI273
aI1771
aI1649
aI3251
aa(lp1671
I3292
aI1649
aI676
aI631
aI1640
aa(lp1672
I3063
aI750
aI2625
aI1649
aI402
aI3265
aa(lp1673
I1454
aI901
aI2563
aI197
aI1645
aI2541
aI1275
aa(lp1674
I1649
aI1720
aI1978
aI1819
aa(lp1675
I632
aI492
aI631
aI453
aa(lp1676
I1796
aI2563
aI1740
aI576
aI245
aI1037
aI679
aI632
aI492
aI3404
aI600
aI1802
aI453
aI3361
aa(lp1677
I1796
aI2563
aI1740
aI576
aI245
aI1037
aI679
aI632
aI492
aI3404
aI600
aI1802
aI453
aI3361
aa(lp1678
a(lp1679
I1098
aI2563
aI654
aI1645
aI679
aI33
aa(lp1680
I3044
aI983
aI3353
aI3334
aa(lp1681
I3226
aI983
aa(lp1682
I632
aI492
aa(lp1683
I3037
aI1649
aI391
aI472
aa(lp1684
I1796
aI2563
aI1423
aI576
aI280
aI3185
aI570
aa(lp1685
I1796
aI2563
aI632
aI2873
aa(lp1686
I2926
aI2563
aI2575
aI1645
aI2720
aI2378
aI576
aI576
aI576
aa(lp1687
I1142
aI2563
aI117
aI1246
aa(lp1688
I2559
aI750
aI2565
aI3173
aI560
aI1118
aa(lp1689
I1085
aI2448
aa(lp1690
I1796
aI2563
aI1142
aI2563
aI682
aI533
aa(lp1691
I1085
aI197
aI1277
aa(lp1692
I570
aI1131
aI242
aI2902
aI1649
aI1758
aI242
aI1758
aI242
aI508
aa(lp1693
I2270
aa(lp1694
I579
aI155
aI226
aa(lp1695
I2656
aI3370
aI2573
aI1649
aI896
aI3217
aI896
aI1289
aI896
aI1724
aI896
aI2470
aI1012
aI975
aI2573
aI1012
aa(lp1696
I1111
aI2378
aI2563
aI1391
aa(lp1697
I1796
aI2563
aI1740
aI576
aI2724
aI632
aI492
aI631
aI2873
aa(lp1698
I1796
aI2563
aI1740
aI576
aI2724
aI632
aI492
aI631
aI2873
aa(lp1699
I632
aI492
aI3077
aI1554
aI416
aI107
aI3233
aa(lp1700
I1404
aI2610
aI750
aI679
aI1898
aI2501
aI242
aI615
aI869
aa(lp1701
I1917
aI1645
aI1012
aI744
aI357
aI1012
aa(lp1702
I662
aa(lp1703
I2656
aI2563
aI1012
aI1841
aI403
aI1012
aI3361
aa(lp1704
I41
aa(lp1705
I2656
aI1645
aI2702
aI798
aI1558
aa(lp1706
I2083
aI718
aI1620
aa(lp1707
I2917
aI1289
aI1254
aI1645
aI3081
aa(lp1708
I182
aI1821
aI14
aI1645
aI2740
aI2336
aa(lp1709
I500
aI896
aI2908
aI3053
aI750
aI1954
aa(lp1710
I3059
aI915
aa(lp1711
I2656
aI2563
aI1714
aI413
aI2949
aa(lp1712
I1796
aI2563
aI1740
aI576
aI2486
aI2819
aI3237
aI2813
aa(lp1713
I2656
aI2563
aI3018
aI896
aI1649
aI3233
aI1978
aa(lp1714
I2656
aI2563
aI1528
aa(lp1715
a(lp1716
I61
aI413
aI690
aa(lp1717
I579
aI235
aa(lp1718
I2121
aI916
aI413
aI690
aa(lp1719
I1481
aI314
aa(lp1720
a(lp1721
a(lp1722
I1796
aI2563
aI1740
aI576
aI2947
aI632
aI492
aa(lp1723
I1858
aI2563
aI830
aI1289
aI1153
aI631
aI2873
aa(lp1724
I127
aI1479
aI390
aa(lp1725
I127
aI750
aI858
aI2563
aI807
aa(lp1726
I2707
aI2563
aI1742
aI67
aa(lp1727
I3297
aI413
aI3074
aI864
aI413
aI197
aa(lp1728
I2656
aI2563
aI165
aI1289
aI3439
aI2170
aI2258
aa(lp1729
I2044
aI1804
aa(lp1730
I3140
aI1576
aa(lp1731
I3140
aI3138
aI750
aI3265
aI896
aI407
aI896
aI600
aa(lp1732
I600
aI2873
aI3266
aa(lp1733
I632
aI453
aa(lp1734
I1796
aI2563
aI1740
aI576
aI143
aI2819
aI3237
aI2813
aa(lp1735
I1796
aI2563
aI1740
aI576
aI2486
aI2819
aI3237
aI2813
aa(lp1736
I1796
aI2563
aI1740
aI576
aI143
aI2819
aI3237
aI2813
aa(lp1737
I632
aI453
aI2563
aI1913
aI2667
aI242
aI1234
aI271
aI3361
aa(lp1738
I1796
aI2563
aI1740
aI576
aI1746
aI632
aI492
aa(lp1739
I2979
aI2154
aI1327
aI2530
aa(lp1740
I632
aI492
aa(lp1741
I296
aI1649
aI391
aI970
aa(lp1742
I1858
aI2563
aI1549
aI2955
aI631
aI1116
aa(lp1743
I472
aI1649
aI2314
aa(lp1744
a(lp1745
I632
aI492
aa(lp1746
I2400
aI425
aI1802
aI3389
aI1213
aI3389
aa(lp1747
I1645
aI1668
aa(lp1748
I1796
aI2563
aI1740
aI576
aI1984
aI2400
aI425
aI1802
aI1643
aI1213
aI1643
aa(lp1749
I2681
aI1479
aI1645
aI2336
aI631
aI1344
aa(lp1750
I3185
aI570
aa(lp1751
I1796
aI2563
aI1423
aI576
aI3162
aI1032
aI242
aI1081
aI3254
aa(lp1752
I564
aI2707
aI2563
aI1168
aI197
aI2563
aI3075
aI1989
aI242
aI2766
aI1289
aI1735
aI750
aa(lp1753
I1851
aI952
aI2235
aI2459
aa(lp1754
I1845
aI1649
aI3317
aI750
aI1012
aI579
aI1012
aI3346
aa(lp1755
I1796
aI2563
aI1740
aI576
aI2252
aI632
aI492
aa(lp1756
I632
aI492
aI1289
aI2285
aI1530
aa(lp1757
I1796
aI2563
aI1740
aI576
aI2252
aI632
aI492
aa(lp1758
I1796
aI2563
aI1740
aI576
aI2252
aI632
aI492
aa(lp1759
I1796
aI2563
aI1740
aI576
aI2252
aI632
aI492
aa(lp1760
I632
aI453
aa(lp1761
I1858
aI2563
aI2471
aI2776
aI631
aI1238
aa(lp1762
I3210
aI901
aI127
aI750
aI858
aa(lp1763
I2992
aI127
aI750
aI3442
aI1900
aa(lp1764
I632
aI492
aa(lp1765
I1012
aI453
aI1289
aI679
aI632
aI492
aa(lp1766
I1796
aI2563
aI1740
aI576
aI2246
aI632
aI492
aa(lp1767
I1796
aI2563
aI1740
aI576
aI1177
aI632
aI453
aa(lp1768
a(lp1769
I2104
aI1081
aI3254
aI1804
aI2312
aa(lp1770
I2400
aI425
aI1802
aI3389
aI1213
aI3389
aa(lp1771
I272
aa(lp1772
I1831
aI1649
aI1213
aI2996
aI1863
aI1064
aI576
aI1978
aa(lp1773
I748
aI1289
aI1666
aI2563
aI127
aI750
aI858
aa(lp1774
I690
aa(lp1775
a(lp1776
a(lp1777
a(lp1778
a(lp1779
a(lp1780
a(lp1781
a(lp1782
I1381
aI1444
aI242
aI1722
aI2326
aI1953
aa(lp1783
I2496
aI1953
aI1012
aI1070
aI3076
aI3286
aI441
aI1012
aI3064
aa(lp1784
I1796
aI2563
aI1423
aI576
aI541
aI1590
aI242
aI561
aI271
aa(lp1785
I1703
aI1179
aI2820
aI1252
aI242
aI1033
aI1444
aa(lp1786
I177
aI2923
aI148
aI127
aI750
aI858
aI413
aI413
aI63
aI1576
aa(lp1787
I2950
aI1649
aa(lp1788
I1796
aI2563
aI1740
aI576
aI1513
aI2819
aI3237
aI3342
aa(lp1789
I2950
aI1649
aa(lp1790
I1796
aI2563
aI1740
aI576
aI2788
aI1142
aI2563
aI2269
aa(lp1791
I1941
aI1289
aI23
aI631
aI679
aI2604
aa(lp1792
I1391
aI2563
aI1650
aI1976
aa(lp1793
I2873
aI2036
aI1649
aI2737
aI3205
aa(lp1794
I2288
aI2197
aI890
aI2240
aI3361
aI413
aI413
aI1391
aa(lp1795
I1590
aa(lp1796
I3307
aI2563
aI909
aI1246
aI1212
aI2763
aa(lp1797
I1391
aI2563
aI61
aI391
aI2873
aa(lp1798
I1213
aI1289
aI1231
aI570
aa(lp1799
I1580
aI576
aI1705
aI1905
aI2794
aI524
aI979
aI631
aI1929
aa(lp1800
I2067
aI1230
aI631
aI1246
aa(lp1801
I1858
aI2563
aI155
aI1957
aI750
aI1827
aa(lp1802
I3140
aI1722
aI1078
aI2505
aI976
aI750
aI941
aa(lp1803
I1858
aI2563
aI2160
aa(lp1804
I1858
aI2563
aI1978
aI3077
aI1125
aI3233
aI1059
aI1377
aI2807
aI3361
aa(lp1805
I78
aI733
aI413
aI1605
aI631
aI424
aa(lp1806
I3120
aa(lp1807
I20
aI127
aI750
aI1479
aI2053
aa(lp1808
I689
aI2923
aI148
aI1804
aa(lp1809
I2653
aa(lp1810
a(lp1811
I2086
aI3265
aI631
aI424
aI3361
aa(lp1812
I206
aI1792
aa(lp1813
I788
aI1604
aI631
aI3247
aI2667
aa(lp1814
I1322
aI1065
aI3277
aI631
aI1234
aI1166
aa(lp1815
I1906
aa(lp1816
I1391
aI2563
aI1032
aI862
aI1012
aI1503
aI3356
aI1012
aa(lp1817
I1082
aI7
aI2264
aI49
aI1479
aa(lp1818
I1858
aI2563
aI2596
aa(lp1819
I1858
aI2563
aI1149
aI576
aI576
aI576
aI132
aa(lp1820
I2656
aI2563
aI1149
aI1149
aa(lp1821
I2656
aI2563
aI205
aI1745
aI242
aI2302
aI576
aa(lp1822
I2656
aI2563
aI3361
aI3273
aI2220
aI576
aa(lp1823
I2880
aI1645
aI3194
aa(lp1824
I40
aI631
aI2877
aI1696
aI1781
aI1720
aI1978
aI63
aI1213
aa(lp1825
I966
aI750
aI368
aI2290
aI1813
aa(lp1826
I2134
aI1954
aI750
aI1381
aI2007
aa(lp1827
I570
aI1576
aa(lp1828
I1334
aI2987
aI3140
aa(lp1829
I1564
aI40
aI1804
aa(lp1830
I3250
aI2957
aI2563
aI1391
aI242
aI2137
aI3259
aa(lp1831
I3250
aI2957
aI242
aI1391
aI2137
aI153
aI2563
aI1667
aI242
aI1583
aI242
aI47
aI66
aI242
aI3404
aa(lp1832
I1858
aI2563
aI1610
aa(lp1833
I1858
aI2563
aI3265
aI201
aI1050
aI3277
aa(lp1834
I3353
aI1716
aI1391
aa(lp1835
I1098
aI2563
aI1992
aI1696
aI961
aI2141
aa(lp1836
I1098
aI2563
aI2515
aI1649
aI61
aI3063
aI896
aI2425
aI2723
aI155
aI917
aa(lp1837
I1098
aI2563
aI2460
aI413
aI2469
aI1649
aI1619
aI3361
aI3077
aI3265
aI3233
aa(lp1838
I3160
aI2659
aa(lp1839
I3044
aI1068
aI2667
aI3361
aa(lp1840
I173
aI2563
aI570
aI2229
aa(lp1841
I2656
aI2563
aI174
aI1738
aI1203
aa(lp1842
I1855
aI2962
aI1430
aI3370
aI1538
aa(lp1843
I1992
aI2563
aI23
aI1091
aI631
aI1721
aI1246
aa(lp1844
I1468
aI1584
aI1289
aI1936
aI2067
aa(lp1845
I1356
aI2264
aI570
aI1645
aI1781
aI2873
aa(lp1846
I61
aI2287
aI576
aI2627
aI576
aI1654
aI576
aI1479
aa(lp1847
I3140
aI1576
aI750
aI1978
aI1238
aI68
aI1722
aI2551
aI3131
aI115
aI576
aa(lp1848
I1796
aI2563
aI1914
aI576
aI2211
aI242
aI1858
aI2563
aI2629
aI413
aI1133
aI1716
aa(lp1849
I1098
aI2563
aI2591
aI1649
aI561
aI1645
aI243
aa(lp1850
I453
aI2656
aa(lp1851
I1142
aI2563
aI2559
aI750
aI3265
aI2873
aa(lp1852
I857
aI896
aI1416
aI896
aI661
aa(lp1853
I1348
aI1289
aI2964
aa(lp1854
I2707
aI2563
aI370
aI564
aI127
aa(lp1855
I1858
aI2563
aI1484
aI413
aI1523
aI3211
aa(lp1856
I1785
aI576
aI2283
aI896
aI2627
aa(lp1857
I3407
aI896
aI3107
aa(lp1858
I3140
aI1576
aa(lp1859
I2707
aI2563
aI1479
aI1645
aI1266
aI1213
aI2052
aI1289
aI3426
aa(lp1860
I3266
aI2312
aI2563
aI1983
aI2021
aI3077
aI1538
aI3343
aI3233
aa(lp1861
I2656
aI2563
aI1488
aI631
aI3033
aa(lp1862
I453
aI488
aa(lp1863
I378
aI2571
aI3364
aI576
aa(lp1864
I1796
aI2563
aI1914
aI576
aI2451
aI242
aI1785
aI2563
aI2283
aI896
aI2627
aI242
aI1796
aI2563
aI3102
aa(lp1865
I2242
aI862
aI2587
aI1845
aI2726
aa(lp1866
I838
aI1564
aI1609
aI631
aI1769
aI576
aI1452
aI576
aI1978
aI576
aa(lp1867
I266
aa(lp1868
I1796
aI2563
aI1914
aI576
aI2208
aI242
aI1858
aI2563
aI1610
aa(lp1869
I2460
aI413
aI1086
aI3077
aI1885
aI3233
aa(lp1870
I1796
aI2563
aI1914
aI576
aI2452
aI242
aI1785
aI2563
aI3407
aI896
aI3107
aa(lp1871
I61
aI506
aI359
aa(lp1872
I3155
aa(lp1873
I1796
aI2563
aI1423
aI576
aI1708
aI1032
aI2360
aa(lp1874
I1796
aI2563
aI1914
aI576
aI2447
aI242
aI1796
aI2563
aI1956
aI242
aI3265
aI1367
aI3077
aI918
aI3233
aa(lp1875
I2283
aI1521
aI1289
aI2162
aa(lp1876
I1785
aI2563
aI2283
aI896
aI2627
aI242
aI1796
aI2563
aI549
aa(lp1877
I3093
aI1262
aI2288
aI2988
aI3379
aI2372
aI3077
aI2137
aI1252
aI3233
aa(lp1878
I1785
aI576
aI2283
aI1289
aI1213
aa(lp1879
I1796
aI2563
aI1914
aI576
aI2696
aI242
aI1785
aI2563
aI2283
aI896
aI2627
aI242
aI1796
aI2563
aI549
aI242
aI2698
aa(lp1880
I1796
aI2563
aI1914
aI576
aI2695
aI242
aI1785
aI2563
aI3155
aI242
aI1796
aI2563
aI2698
aa(lp1881
I1796
aI2563
aI1914
aI576
aI2701
aI242
aI1785
aI2563
aI2283
aI896
aI2627
aI242
aI1796
aI2563
aI549
aa(lp1882
I1899
aI1649
aI243
aa(lp1883
I679
aI3439
aI281
aI1649
aI3389
aI1777
aI3389
aa(lp1884
I1796
aI2563
aI1423
aI576
aI1708
aI1032
aI2360
aa(lp1885
I1796
aI2563
aI271
aI896
aI453
aI2041
aI1722
aI679
aI1405
aI790
aI896
aI1157
aI926
aa(lp1886
I3265
aI1720
aI2565
aI2136
aI2627
aI576
aa(lp1887
I1796
aI2563
aI1914
aI576
aI2461
aI242
aI1142
aI2563
aI1899
aI1649
aI243
aa(lp1888
I1785
aI576
aI2283
aI896
aI2627
aa(lp1889
I1858
aI2563
aI2923
aI2549
aI2923
aI254
aI862
aI2025
aI896
aI1720
aI2923
aI3077
aI1914
aI576
aI2206
aI3233
aa(lp1890
I3140
aI1304
aa(lp1891
I1858
aI2563
aI1321
aI1560
aI1745
aI417
aa(lp1892
I1796
aI2563
aI1740
aI576
aI2989
aI632
aI492
aI242
aI3029
aI2771
aI1034
aa(lp1893
I3182
aI110
aa(lp1894
I1796
aI2563
aI1914
aI576
aI514
aI467
aI3077
aI1730
aI576
aI576
aI576
aI943
aI3233
aa(lp1895
I1032
aI2360
aa(lp1896
I2687
aI1903
aI1645
aI3167
aa(lp1897
I3302
aa(lp1898
I707
aI896
aI303
aI1213
aa(lp1899
I1142
aa(lp1900
I523
aI475
aI565
aa(lp1901
I2275
aI1645
aI2571
aI576
aI2233
aI2278
aI750
aI1081
aI3361
aa(lp1902
I2699
aI1289
aI1213
aa(lp1903
I1796
aI2563
aI1914
aI576
aI1508
aI242
aI1785
aI2563
aI3155
aI242
aI1796
aI2563
aI2695
aI2723
aI2283
aI896
aI2627
aa(lp1904
I3140
aI667
aI1722
aI2109
aI242
aI679
aI270
aa(lp1905
I1858
aI2563
aI2001
aI1421
aI631
aI2581
aa(lp1906
I1796
aI2563
aI1423
aI576
aI1708
aI1032
aI2360
aa(lp1907
I1796
aI2563
aI1914
aI576
aI1875
aI242
aI1142
aI2563
aI2687
aI1903
aI1645
aI3167
aI242
aI3410
aI576
aI1031
aI242
aI707
aI896
aI303
aI757
aa(lp1908
I2029
aI1403
aI505
aa(lp1909
I1499
aI2021
aI631
aI2766
aa(lp1910
I2339
aa(lp1911
I3140
aI1576
aI413
aI3267
aI770
aa(lp1912
I23
aI3265
aI631
aI736
aa(lp1913
I3140
aI135
aI413
aI479
aI2067
aI2144
aa(lp1914
I1098
aI3361
aI961
aI1571
aa(lp1915
I2262
aI413
aI3228
aa(lp1916
I1950
aI3132
aa(lp1917
I679
aI1012
aI1369
aI146
aI1012
aI1649
aI1826
aI413
aI974
aI2360
aa(lp1918
I292
aI2390
aa(lp1919
I36
aI1645
aI1486
aI750
aI671
aI148
aa(lp1920
I1391
aI2563
aI476
aI1289
aI416
aI1598
aa(lp1921
I679
aI2432
aI2821
aI2292
aI367
aa(lp1922
I949
aI3077
aI2768
aI3410
aI576
aI2629
aI576
aI2851
aI3233
aa(lp1923
I983
aI1645
aI614
aI1649
aI1374
aI3361
aa(lp1924
I1796
aI2563
aI1992
aI1696
aI1238
aI2141
aa(lp1925
I1191
aI750
aI62
aI862
aI2553
aI3295
aa(lp1926
I127
aI750
aI858
aa(lp1927
I1781
aI2750
aI2563
aI2175
aI2169
aa(lp1928
I1796
aI2563
aI1423
aI576
aI1708
aI1032
aI2360
aa(lp1929
I2184
aI3266
aI631
aI1919
aa(lp1930
I3140
aI2563
aI3265
aI631
aI1270
aI115
aI3077
aI564
aI135
aI3233
aa(lp1931
I477
aI151
aa(lp1932
I3134
aI966
aI750
aI2102
aI576
aI2079
aa(lp1933
I2656
aI2563
aI425
aI917
aI750
aI3063
aI3132
aa(lp1934
I2557
aI1645
aI3268
aI1581
aa(lp1935
I1098
aI2563
aI1347
aI1481
aI533
aa(lp1936
I2656
aI2563
aI2314
aI1289
aI3235
aa(lp1937
I1391
aI2563
aI64
aI1661
aI91
aI1649
aI2923
aI3073
aI2923
aa(lp1938
I1391
aI2563
aI1225
aI2420
aI1649
aI2923
aI1910
aI2923
aa(lp1939
I1796
aI2563
aI1423
aI576
aI1708
aI1032
aI2360
aa(lp1940
I1796
aI2563
aI1914
aI576
aI1743
aI242
aI1785
aI2563
aI682
aI533
aI242
aI1796
aI2563
aI1739
aa(lp1941
I1796
aI2563
aI682
aI533
aa(lp1942
I1796
aI2563
aI1914
aI576
aI3291
aI242
aI1785
aI2563
aI682
aI533
aI242
aI1796
aI2563
aI1508
aI242
aI1514
aa(lp1943
I127
aI2563
aI1738
aI101
aI896
aI698
aI3196
aI576
aI1722
aI3078
aI2923
aI151
aa(lp1944
I1223
aI1412
aI410
aI1645
aI2541
aI2873
aa(lp1945
I1391
aI2563
aI3265
aI1720
aI2136
aI757
aa(lp1946
I3047
aI1576
aI1649
aI2729
aI570
aI631
aI838
aa(lp1947
I2023
aI999
aI858
aa(lp1948
I1391
aI2563
aI1347
aI533
aI750
aI1193
aI242
aI2103
aI242
aI3154
aI576
aa(lp1949
I1391
aI2563
aI2141
aI1649
aI349
aI1903
aI242
aI2558
aI109
aa(lp1950
I1796
aI2563
aI1423
aI576
aI249
aI1201
aI2563
aI1213
aI413
aI659
aI242
aI453
aI242
aI1903
aa(lp1951
I1481
aI2236
aI1649
aI679
aI33
aa(lp1952
I840
aI389
aa(lp1953
I3265
aI2590
aI896
aI1119
aa(lp1954
I1391
aI1649
aI1085
aI1118
aI3456
aa(lp1955
I2554
aI414
aI1289
aI2348
aI660
aa(lp1956
I1796
aI2563
aI1740
aI576
aI1984
aI2400
aI425
aI1802
aI1643
aI1213
aI1643
aa(lp1957
I1796
aI2563
aI1914
aI576
aI569
aI1858
aI2563
aI986
aI1940
aI2771
aI938
aI242
aa(lp1958
I127
aI750
aI858
aI413
aI413
aI413
aI1733
aa(lp1959
I1858
aI2563
aI1935
aI413
aI798
aI2667
aa(lp1960
I1029
aI2761
aI413
aI1391
aa(lp1961
I1796
aI2563
aI1423
aI576
aI249
aI1201
aI2563
aI1213
aI413
aI659
aI242
aI453
aI242
aI1903
aa(lp1962
I2557
aI2563
aI328
aa(lp1963
I2575
aI3053
aa(lp1964
I961
aI896
aI3265
aI3270
aa(lp1965
I2557
aI2563
aI678
aI1954
aa(lp1966
I3053
aI3295
aI1954
aa(lp1967
I3033
aI3378
aI750
aI985
aa(lp1968
I1391
aI2563
aI788
aI1649
aI2846
aI3171
aI631
aI3247
aI2667
aa(lp1969
I1796
aI2563
aI2262
aI413
aI3228
aI1289
aI1855
aI1802
aI831
aI1752
aI1501
aI331
aa(lp1970
I127
aI750
aI2657
aa(lp1971
I1858
aI2563
aI1347
aI896
aI3265
aI2141
aI3378
aa(lp1972
I2905
aI1468
aI896
aI711
aI3148
aa(lp1973
I1796
aI2563
aI1423
aI576
aI249
aI1201
aI2563
aI1213
aI413
aI659
aI242
aI453
aI242
aI1903
aa(lp1974
I1796
aI2563
aI1914
aI576
aI449
aI242
aI1785
aI2563
aI682
aI533
aa(lp1975
I3210
aI2923
aI148
aa(lp1976
I385
aI3130
aI750
aI1332
aa(lp1977
I439
aI951
aa(lp1978
I1142
aI2563
aI1213
aI1997
aI983
aI3077
aI1347
aI3233
aa(lp1979
I1479
aI1645
aI1818
aI413
aI994
aI127
aI750
aI858
aa(lp1980
I1796
aI2563
aI2495
aa(lp1981
I30
aa(lp1982
I980
aI2454
aI1289
aI734
aI631
aI3350
aa(lp1983
I127
aI2563
aI3071
aI413
aI273
aI1062
aI1831
aa(lp1984
I1796
aI2563
aI1423
aI576
aI249
aI1201
aI2563
aI1213
aI413
aI659
aI242
aI453
aI242
aI1903
aa(lp1985
I129
aI630
aI1645
aI1213
aI2413
aI2923
aI148
aI413
aI1576
aa(lp1986
a(lp1987
a(lp1988
I1391
aI1649
aI2761
aI1649
aI331
aa(lp1989
I1858
aI2563
aI220
aI2907
aa(lp1990
I2279
aI3049
aa(lp1991
I3140
aI2563
aI600
aI500
aa(lp1992
I1213
aI1289
aI1951
aa(lp1993
a(lp1994
a(lp1995
I78
aI2629
aI413
aI1133
aI298
aa(lp1996
I767
aa(lp1997
I608
aI413
aI2990
aI3225
aI576
aI1527
aa(lp1998
I1796
aI2563
aI1914
aI576
aI90
aI1858
aI2563
aI3093
aI1262
aI2288
aI2988
aI3379
aI2372
aI3077
aI2137
aI1252
aI3233
aa(lp1999
I1452
aI576
aI1474
aI865
aa(lp2000
I1012
aI3067
aI1012
aI1289
aI1012
aI945
aI1649
aI679
aI258
aI1012
aa(lp2001
I1181
aI1564
aI410
aI1645
aI353
aI1903
aI631
aI679
aI2604
aa(lp2002
I639
aI631
aI1685
aI1143
aI2667
aa(lp2003
I2059
aI2563
aI3389
aI1592
aI3389
aI3259
aI413
aI2629
aI3077
aI3034
aI3233
aI339
aI2936
aa(lp2004
I570
aI1576
aI1289
aI127
aI750
aI858
aa(lp2005
I568
aI570
aI1645
aI1660
aa(lp2006
I691
aI1949
aI401
aa(lp2007
I570
aI1576
aI896
aI127
aI750
aI858
aI2563
aI2135
aI2873
aa(lp2008
I306
aI1080
aI750
aI3078
aI1481
aI976
aa(lp2009
I1002
aI453
aI3266
aa(lp2010
I2589
aI576
aI1978
aI576
aI631
aI2155
aI2873
aa(lp2011
I2541
aI2873
aI3410
aa(lp2012
I3140
aI1576
aI2563
aI2440
aI2902
aa(lp2013
I1709
aI3295
aI268
aI1200
aa(lp2014
I2494
aI326
aI2563
aI3384
aI3077
aI559
aI896
aI160
aI576
aI1434
aI3233
aa(lp2015
I634
aI570
aa(lp2016
I612
aI570
aI1576
aa(lp2017
I1796
aI2563
aI1423
aI576
aI2346
aI1032
aI2360
aa(lp2018
I63
aI2707
aI2875
aI2923
aI148
aa(lp2019
I61
aI2407
aI2428
aa(lp2020
I2876
aI1649
aI679
aI961
aI1012
aI1719
aI1012
aI3077
aI1885
aI3233
aa(lp2021
I1917
aI1645
aI1344
aa(lp2022
I127
aI858
aI413
aI49
aI1479
aa(lp2023
I2173
aI2923
aI148
aI2563
aI127
aI750
aI858
aa(lp2024
I127
aI750
aI3011
aI2563
aI1491
aI631
aI187
aI1198
aa(lp2025
I2898
aI2296
aa(lp2026
I1195
aI1585
aI1479
aI3047
aI1804
aa(lp2027
I630
aI2563
aI490
aI2414
aI1289
aI1728
aa(lp2028
I1796
aI2563
aI1423
aI576
aI2346
aI1032
aI2360
aa(lp2029
I2528
aI986
aa(lp2030
I1796
aI2563
aI1914
aI576
aI2868
aI986
aa(lp2031
I1796
aI2563
aI1914
aI576
aI2868
aI986
aa(lp2032
I1796
aI2563
aI1914
aI576
aI90
aI1858
aI2563
aI3093
aI1262
aI2288
aI2988
aI3379
aI2372
aI3077
aI2137
aI1252
aI3233
aa(lp2033
I1796
aI2563
aI1914
aI576
aI2871
aI3093
aI1262
aI2288
aI2988
aI3379
aI2372
aa(lp2034
I1796
aI2563
aI1914
aI576
aI2871
aI3093
aI1262
aI2288
aI2988
aI3379
aI2372
aa(lp2035
I1978
aI2078
aI3111
aI1649
aI2757
aI1289
aI442
aI3361
aI750
aI1674
aI3008
aI576
aI576
aI576
aa(lp2036
I2847
aI1200
aI3077
aI570
aI1804
aI3233
aa(lp2037
I2668
aI1888
aa(lp2038
I1669
aI631
aI762
aI453
aa(lp2039
I1423
aI576
aI2346
aI1032
aI2360
aa(lp2040
I1360
aI1238
aI2984
aa(lp2041
I1858
aI2563
aI1981
aI631
aI679
aI649
aI2881
aa(lp2042
I1858
aI2563
aI2325
aI3373
aI3077
aI187
aI3233
aa(lp2043
a(lp2044
I1909
aI1564
aI3226
aI1213
aI976
aa(lp2045
I2589
aI576
aI1978
aI576
aI631
aI2155
aI2873
aa(lp2046
I566
aI1576
aI2563
aI2302
aI771
aI896
aI1140
aI1802
aI2996
aa(lp2047
I322
aa(lp2048
I3230
aI1649
aI2213
aI863
aI413
aI1567
aa(lp2049
I1796
aI2563
aI1914
aI576
aI2865
aI767
aa(lp2050
I2503
aI1289
aI1857
aI631
aI2555
aI1198
aa(lp2051
I1914
aI576
aI2869
aI1213
aI1289
aI1951
aa(lp2052
I757
aI2771
aI1951
aa(lp2053
I3140
aI135
aa(lp2054
I2184
aI2043
aa(lp2055
I1669
aI1645
aI2798
aI1213
aa(lp2056
I3359
aI1018
aa(lp2057
I2982
aa(lp2058
I1564
aI1800
aa(lp2059
I986
aI242
aI1793
aa(lp2060
I1796
aI2563
aI1914
aI576
aI2127
aI986
aa(lp2061
I1423
aI576
aI246
aI2667
aI242
aI1716
aa(lp2062
I679
aI1012
aI426
aI1012
aa(lp2063
I986
aa(lp2064
I1796
aI2563
aI1914
aI576
aI2127
aI986
aa(lp2065
I1871
aa(lp2066
I1067
aI521
aI2667
aI3077
aI988
aI3233
aa(lp2067
I593
aI2563
aI258
aI1012
aI2260
aI1012
aI3361
aa(lp2068
I1796
aI2563
aI1914
aI576
aI1071
aI1858
aI2563
aI778
aI1289
aI945
aI1649
aI679
aI258
aa(lp2069
I1012
aI778
aI1012
aI242
aI1917
aI576
aa(lp2070
I698
aI2667
aa(lp2071
I698
aI1213
aI2575
aI323
aa(lp2072
I1423
aI576
aI246
aI2667
aI242
aI1716
aa(lp2073
I2264
aI945
aI2873
aI2036
aa(lp2074
I489
aa(lp2075
I208
aI606
aI563
aI93
aa(lp2076
I733
aI2547
aa(lp2077
I1153
aI631
aI2407
aI2428
aI3077
aI106
aI1200
aI3233
aa(lp2078
I1796
aI2563
aI1914
aI576
aI597
aI3093
aI1262
aI2288
aI2988
aI3379
aI2372
aa(lp2079
I3093
aI1262
aI2288
aI2988
aI3379
aI2372
aI2563
aI1858
aI242
aI615
aI869
aI576
aa(lp2080
I1796
aI2563
aI1914
aI576
aI1842
aI3093
aI1262
aI2288
aI2988
aI3379
aI2372
aa(lp2081
I854
aI2986
aI1289
aI1970
aI84
aa(lp2082
I2668
aI1888
aI1391
aa(lp2083
I941
aI23
aa(lp2084
I2156
aI413
aI2652
aI1342
aa(lp2085
I1858
aI2563
aI1365
aI2000
aI631
aI1538
aa(lp2086
I1796
aI2563
aI1914
aI576
aI351
aI1858
aI413
aI2325
aI3373
aa(lp2087
I1796
aI2563
aI1914
aI576
aI598
aI1142
aI2563
aI252
aI242
aI78
aI2300
aI1213
aI242
aI223
aI242
aI1364
aI1897
aa(lp2088
I3374
aI271
aa(lp2089
I1391
aI1649
aI3426
aI3219
aa(lp2090
I3389
aI3389
aI3389
aI583
aI1802
aI299
aI220
aI1576
aa(lp2091
I966
aI970
aI896
aI2017
aI2476
aI2923
aI3446
aa(lp2092
I1717
aI1953
aI242
aI3364
aI750
aI679
aI1940
aI1649
aI1213
aa(lp2093
I1858
aI2563
aI2268
aI1696
aI1285
aI881
aI505
aa(lp2094
I127
aI750
aI858
aI2563
aI2873
aI2228
aI1649
aI679
aI2589
aI896
aI2374
aa(lp2095
I2656
aI2563
aI452
aI169
aI2174
aa(lp2096
I127
aI750
aI3011
aa(lp2097
I127
aI750
aI858
aI3077
aI2774
aI3233
aa(lp2098
I583
aI1802
aI127
aI750
aI3011
aa(lp2099
I630
aI2563
aI637
aI148
aI413
aI63
aI1289
aI2992
aI127
aI750
aI858
aa(lp2100
I630
aa(lp2101
I2264
aI945
aI2873
aI2036
aa(lp2102
I75
aa(lp2103
I3227
aI1213
aI631
aI850
aa(lp2104
I2996
aI1645
aI632
aI2414
aa(lp2105
I1091
aI3288
aa(lp2106
I1796
aI2563
aI1423
aI576
aI293
aI1590
aa(lp2107
I1858
aI2563
aI422
aI596
aa(lp2108
I1391
aI1649
aI1098
aI2563
aI1254
aa(lp2109
I1858
aI2563
aI30
aa(lp2110
I1796
aI2563
aI1914
aI576
aI2127
aI986
aa(lp2111
I986
aI3225
aI787
aI3100
aa(lp2112
I1796
aI2563
aI1914
aI576
aI1838
aI986
aa(lp2113
I1796
aI2563
aI1914
aI576
aI2223
aI1858
aI2563
aI3426
aI1669
aa(lp2114
I1213
aI23
aI2996
aa(lp2115
I3053
aI750
aI1954
aI1645
aI2628
aI576
aI576
aI576
aa(lp2116
I2160
aa(lp2117
I1590
aI242
aI767
aI242
aI112
aI853
aa(lp2118
I622
aI1213
aI3193
aa(lp2119
I413
aI1001
aI3077
aI3345
aI3233
aa(lp2120
I1796
aI2563
aI1914
aI576
aI1843
aI2904
aI862
aI1213
aI3193
aa(lp2121
I1364
aI1897
aI862
aI2816
aI1289
aI583
aa(lp2122
I1796
aI2563
aI1914
aI576
aI2129
aI767
aI896
aI1213
aI2771
aI1951
aa(lp2123
I1796
aI2563
aI1914
aI576
aI823
aI1858
aI2563
aI2268
aI1696
aI1285
aI881
aI505
aa(lp2124
I2870
aI169
aI1948
aI631
aI2896
aa(lp2125
I1391
aI2563
aI2325
aI413
aI2165
aa(lp2126
I1796
aI2563
aI1914
aI576
aI324
aI1364
aI1897
aI862
aI2816
aI1289
aI583
aa(lp2127
I1796
aI2563
aI1914
aI576
aI324
aI1364
aI1897
aI862
aI2816
aI1289
aI583
aa(lp2128
I1796
aI2563
aI1423
aI576
aI1512
aI1620
aa(lp2129
I1364
aI1897
aI862
aI2816
aa(lp2130
I1796
aI2563
aI1914
aI576
aI324
aI1364
aI1897
aI862
aI2816
aI1289
aI583
aa(lp2131
I1796
aI2563
aI1914
aI576
aI324
aI1364
aI1897
aI862
aI2816
aI1289
aI583
aa(lp2132
I1344
aI1431
aI1391
aa(lp2133
I1858
aI2563
aI3082
aa(lp2134
I3374
aI271
aI2563
aI337
aI242
aI2049
aI242
aI972
aa(lp2135
I733
aI3327
aI2563
aI2960
aI1104
aI1516
aa(lp2136
I177
aI1786
aI3372
aI1953
aa(lp2137
I684
aI2515
aI570
aI413
aI3363
aa(lp2138
I570
aI127
aI576
aa(lp2139
I1796
aI2563
aI1423
aI576
aI1512
aI1620
aa(lp2140
I1858
aI2563
aI1612
aI896
aI3320
aI190
aI815
aa(lp2141
I570
aI1576
aa(lp2142
I127
aI750
aI858
aI2563
aI2787
aI3115
aI2873
aI570
aI3077
aI618
aI3233
aa(lp2143
I1347
aI3063
aI2378
aI896
aI2969
aI1995
aa(lp2144
I1606
aI635
aI3077
aI697
aI28
aI1030
aI576
aI2571
aI576
aI1141
aI576
aI2654
aI3233
aI2723
aI1442
aI242
aa(lp2145
I2656
aI2563
aI272
aa(lp2146
I2135
aI2667
aI1468
aI570
aa(lp2147
I1858
aI896
aI1142
aI2563
aI1223
aI2761
aa(lp2148
I3370
aI2629
aI576
aI3103
aI576
aI1269
aI3077
aI2131
aI3233
aa(lp2149
I3375
aI1802
aI2680
aI862
aI422
aI596
aa(lp2150
I1796
aI2563
aI1423
aI576
aI1512
aI1620
aa(lp2151
I2089
aI2935
aI1645
aI3081
aa(lp2152
I2656
aI1645
aI845
aI3204
aI1649
aI3093
aa(lp2153
I1681
aI659
aI323
aa(lp2154
I111
aI1511
aa(lp2155
I3278
aI1391
aI2563
aI2335
aI1481
aI3137
aa(lp2156
I1391
aI2563
aI1012
aI1841
aI403
aI1012
aa(lp2157
I3378
aI750
aI2565
aI2338
aI164
aI2985
aa(lp2158
I1213
aI3193
aa(lp2159
I3093
aI1262
aI2288
aI2988
aI3379
aI1663
aa(lp2160
a(lp2161
I2402
aI2873
aa(lp2162
a(lp2163
I1669
aI1645
aI2475
aI2662
aI1649
aI2407
aa(lp2164
I2233
aI750
aI1886
aa(lp2165
I3381
aI2575
aI3361
aa(lp2166
I1858
aI2563
aI3394
aI3093
aa(lp2167
I1858
aI2563
aI2627
aI576
aI733
aI1420
aa(lp2168
I1858
aI2563
aI1917
aI1062
aI1649
aI691
aI1289
aI2798
aI1213
aa(lp2169
I2125
aI596
aI2563
aI1391
aa(lp2170
I2407
aI488
aa(lp2171
I63
aI127
aI750
aI858
aI390
aI1479
aI242
aI3263
aa(lp2172
I679
aI3142
aI38
aa(lp2173
I3140
aI3138
aI1722
aI1477
aa(lp2174
I1637
aI1439
aI570
aa(lp2175
I106
aI1200
aI2563
aI1153
aI631
aI2407
aI2428
aa(lp2176
I1803
aI1953
aI735
aI3265
aI3378
aa(lp2177
I1491
aI1479
aa(lp2178
I2870
aI169
aI1948
aI631
aI2648
aa(lp2179
I1576
aI3027
aI475
aI371
aa(lp2180
I1433
aI2571
aI1564
aI40
aa(lp2181
I1027
aI40
aI1649
aI679
aI3161
aa(lp2182
I1796
aI2563
aI1914
aI576
aI3298
aI1858
aI2563
aI3370
aI2629
aI576
aI3103
aI576
aI1269
aa(lp2183
I78
aI3364
aI2563
aI2667
aI1649
aI679
aI2437
aa(lp2184
I2629
aI576
aI3103
aI576
aI1269
aa(lp2185
I1796
aI2563
aI1914
aI576
aI3300
aI1858
aI2563
aI2089
aI2935
aI1645
aI3081
aa(lp2186
I1479
aI1576
aI3160
aI866
aa(lp2187
I1465
aI413
aI411
aI2312
aa(lp2188
I3321
aI1649
aI922
aI2552
aa(lp2189
I595
aI1213
aa(lp2190
I2812
aI1347
aI631
aI1079
aI424
aa(lp2191
I2960
aI762
aI1832
aa(lp2192
I3053
aI2563
aI1365
aI367
aI1649
aI2308
aI1731
aa(lp2193
I2345
aI1136
aI1802
aI869
aI3361
aa(lp2194
I1347
aI2378
aa(lp2195
I1456
aI1213
aI570
aa(lp2196
I410
aI2563
aI679
aI1007
aI1649
aI698
aI2667
aa(lp2197
I1796
aI2563
aI1914
aI576
aI333
aI3093
aI1262
aI2288
aI2988
aI3379
aI2372
aa(lp2198
a(lp2199
I1112
aI3265
aa(lp2200
I2475
aI1275
aI1289
aI945
aI3077
aI1171
aI3233
aI2667
aa(lp2201
I1098
aI2563
aI3387
aI1963
aI242
aI501
aI1538
aI1801
aa(lp2202
I1391
aI2563
aI961
aI1118
aa(lp2203
I3366
aI879
aI1489
aa(lp2204
I498
aI1649
aI2473
aI3341
aI3327
aa(lp2205
I1796
aI2563
aI2873
aI631
aI1928
aI358
aa(lp2206
I1796
aI2563
aI1423
aI576
aI246
aI2667
aI242
aI1716
aa(lp2207
I3140
aI2563
aI2067
aI1376
aI631
aI3144
aa(lp2208
I3140
aI1744
aa(lp2209
I1564
aI1636
aI631
aI3426
aI2021
aa(lp2210
I3077
aI1885
aI3233
aI1796
aI2563
aI181
aI896
aI3265
aI2240
aI2067
aI1859
aa(lp2211
I3140
aI3138
aa(lp2212
I3140
aI1722
aI3036
aa(lp2213
I931
aI750
aI500
aa(lp2214
I2921
aI3364
aI3023
aI1645
aI3119
aI413
aI2927
aI2407
aI2428
aa(lp2215
I127
aI750
aI858
aa(lp2216
I197
aI1645
aI1238
aI2873
aI413
aI2873
aI631
aI3198
aa(lp2217
I1796
aI2563
aI1423
aI576
aI246
aI2667
aa(lp2218
I3238
aI3152
aa(lp2219
a(lp2220
I3140
aa(lp2221
I3140
aI667
aI413
aI1481
aI739
aI3266
aa(lp2222
I3266
aI1576
aa(lp2223
I3410
aI576
aI524
aI576
aI2320
aI862
aI2923
aI2336
aI1649
aI1510
aI2923
aa(lp2224
I1977
aI1802
aI679
aI500
aI1831
aI2656
aI576
aI576
aI576
aa(lp2225
I3310
aI3093
aI631
aI516
aI1649
aI2667
aa(lp2226
I731
aI2195
aI1437
aI750
aI2900
aa(lp2227
I3246
aI1587
aa(lp2228
I3093
aI1802
aI1005
aI3077
aI1289
aI1161
aI3233
aI2525
aI968
aI1827
aI631
aI679
aI793
aI1532
aa(lp2229
I1271
aI2627
aI40
aa(lp2230
I1796
aI2563
aI1914
aI576
aI1838
aI986
aa(lp2231
I1796
aI2563
aI3093
aI1262
aI2288
aI2988
aI3379
aI2372
aa(lp2232
I2416
aa(lp2233
I3093
aI1262
aI2288
aI2988
aI3379
aI2372
aa(lp2234
I1796
aI2563
aI1914
aI576
aI90
aI1858
aI2563
aI3093
aI1262
aI2288
aI2988
aI3379
aI2372
aI3077
aI2137
aI1252
aI3233
aa(lp2235
I1796
aI2563
aI1914
aI576
aI333
aI3093
aI1262
aI2288
aI2988
aI3379
aI2372
aa(lp2236
I691
aI1289
aI3221
aI413
aI691
aI2667
aa(lp2237
I1858
aI2563
aI1258
aI631
aI2163
aa(lp2238
I171
aa(lp2239
I1796
aI2563
aI1423
aI576
aI285
aI691
aI417
aa(lp2240
I1858
aI576
aI2563
aI1940
aI1649
aI58
aI631
aI3265
aa(lp2241
I78
aI733
aI1605
aI1722
aI679
aI2902
aI1649
aI2915
aa(lp2242
I209
aI388
aI3077
aI2541
aI1275
aI3233
aI413
aI2517
aI242
aI733
aI3341
aI3327
aa(lp2243
I542
aI2768
aI679
aI3257
aI3077
aI3058
aI1074
aI148
aI3233
aa(lp2244
I1914
aI576
aI3264
aI1213
aI3193
aa(lp2245
I1391
aI2563
aI1347
aI896
aI1799
aI896
aI3077
aI719
aI3233
aa(lp2246
I735
aI3419
aI2299
aI2632
aI750
aI934
aI2656
aa(lp2247
I1938
aI2387
aa(lp2248
I975
aI3265
aa(lp2249
I650
aI2873
aa(lp2250
I1796
aI2563
aI1423
aI576
aI3290
aI691
aI417
aa(lp2251
I2400
aI896
aI3133
aI155
aI1609
aI242
aI3154
aI576
aa(lp2252
I2656
aI2563
aI102
aI1802
aI3378
aI750
aI1481
aI2428
aa(lp2253
I2251
aI2243
aI576
aI233
aI3077
aI1077
aI3233
aI2563
aI2047
aI3077
aI2395
aI896
aI925
aa(lp2254
I1332
aI1645
aI2358
aI862
aa(lp2255
I3227
aI1213
aI631
aI3289
aa(lp2256
I1858
aI2563
aI2729
aI505
aa(lp2257
I1669
aI1645
aI1363
aa(lp2258
I633
aI3077
aI1176
aI3233
aI2848
aI1819
aI2177
aa(lp2259
I2656
aI2563
aI2264
aI1750
aI1649
aI1827
aa(lp2260
I1858
aI2563
aI973
aI576
aI1645
aI2475
aI864
aI1649
aI2407
aa(lp2261
I570
aI668
aI2923
aI900
aI127
aI750
aI858
aa(lp2262
I2116
aI2941
aI2436
aa(lp2263
I1391
aI2563
aI2873
aI631
aI1928
aI358
aa(lp2264
I1391
aI2563
aI990
aI2553
aI631
aI402
aI3149
aa(lp2265
I2847
aI1200
aI3077
aI1236
aI135
aI3233
aa(lp2266
I679
aI3207
aI2003
aa(lp2267
I1421
aI1802
aI1400
aI3157
aa(lp2268
I1201
aa(lp2269
I679
aI986
aI996
aa(lp2270
I1796
aI2563
aI1914
aI576
aI3020
aI1858
aI2563
aI1940
aI1649
aI58
aI631
aI3265
aa(lp2271
I1796
aI2563
aI1914
aI576
aI3020
aI1858
aI2563
aI1940
aI1649
aI58
aI631
aI3265
aa(lp2272
I3385
aI2873
aI1722
aI3036
aI127
aI750
aI1992
aI1953
aI1953
aI1953
aa(lp2273
I1947
aI413
aI413
aI1234
aI3050
aI1661
aI1913
aa(lp2274
I3021
aI2057
aa(lp2275
I2656
aI2563
aI1781
aI854
aI3351
aa(lp2276
I134
aI1796
aI2563
aI1761
aI1289
aI1161
aI805
aa(lp2277
I1858
aI2563
aI444
aa(lp2278
a(lp2279
I500
aI556
aa(lp2280
I1978
aI78
aI241
aI1237
aI2563
aI127
aI750
aI754
aa(lp2281
I1645
aI413
aI2572
aI3336
aI2315
aa(lp2282
I1796
aI2563
aI1914
aI576
aI1529
aI3093
aI1262
aI2288
aI2988
aI3379
aI2372
aa(lp2283
I3036
aI15
aI1778
aI2800
aI1289
aI2056
aI2873
aI1953
aa(lp2284
I1833
aa(lp2285
I1796
aI2563
aI1914
aI576
aI1529
aI3093
aI1262
aI2288
aI2988
aI3379
aI2372
aa(lp2286
I3093
aI1262
aI2288
aI2988
aI3379
aI2372
aa(lp2287
I1796
aI2563
aI3093
aI1262
aI2288
aI2988
aI3379
aI2372
aa(lp2288
I3409
aI3266
aI631
aI453
aa(lp2289
I2905
aI1198
aI3140
aI2438
aa(lp2290
I3140
aI2563
aI61
aa(lp2291
a(lp2292
a(lp2293
I1391
aI2563
aI2345
aI1136
aI1802
aI869
aI3361
aa(lp2294
I1386
aI1649
aI2259
aI1593
aI1649
aI2873
aa(lp2295
I2248
aI413
aI2474
aI664
aa(lp2296
I1569
aI1888
aa(lp2297
I1796
aI2563
aI1487
aa(lp2298
I74
aI1350
aa(lp2299
I646
aI602
aI2922
aI1679
aI3361
aa(lp2300
I72
aI2081
aa(lp2301
I1029
aI2761
aa(lp2302
I1142
aI2563
aI478
aI413
aI3237
aa(lp2303
I1098
aI2563
aI1525
aI631
aI1238
aI3361
aa(lp2304
I1391
aI2563
aI1487
aI631
aI2314
aa(lp2305
I1606
aa(lp2306
I658
aI1649
aI412
aI2630
aI1289
aI420
aI1722
aI1291
aI3432
aI3131
aa(lp2307
a(lp2308
I3230
aI2563
aI189
aI2427
aa(lp2309
I1858
aI2563
aI1544
aI3265
aa(lp2310
I2604
aI1476
aI3266
aI1722
aI1181
aa(lp2311
I3266
aI2312
aa(lp2312
I23
aI3140
aI1649
aI961
aI1289
aI1347
aI631
aI736
aa(lp2313
I1858
aI2563
aI505
aa(lp2314
I413
aI1001
aI3077
aI3345
aI3233
aa(lp2315
I1564
aI40
aI2041
aI631
aI61
aa(lp2316
I968
aI608
aI72
aI1935
aI1331
aI1612
aI2073
aa(lp2317
I1855
aI1213
aI621
aI2795
aI3361
aa(lp2318
I2656
aI2563
aI61
aI301
aa(lp2319
I18
aI1209
aI1046
aa(lp2320
I127
aI750
aI858
aa(lp2321
I630
aI2563
aI2531
aI2902
aI2994
aI570
aa(lp2322
I2475
aI271
aa(lp2323
I1191
aI750
aI666
aI413
aI1370
aI2207
aa(lp2324
I1796
aI2563
aI2465
aI3225
aI576
aI297
aI242
aI1179
aI2543
aa(lp2325
I3053
aI750
aI2407
aI1831
aa(lp2326
I2407
aI3239
aI242
aI2992
aI1804
aa(lp2327
I2626
aI2541
aI3158
aa(lp2328
I3353
aI966
aa(lp2329
I1275
aI1289
aI2571
aI576
aI1198
aI1740
aI413
aI1804
aa(lp2330
I2171
aI869
aI777
aI2923
aa(lp2331
I1704
aI2177
aI1289
aI2993
aa(lp2332
I1796
aI2563
aI1914
aI576
aI2370
aI3018
aI3233
aI1649
aa(lp2333
I2325
aI413
aI2165
aa(lp2334
I1013
aI413
aI413
aI3288
aa(lp2335
I1320
aa(lp2336
I1246
aI1903
aa(lp2337
I1606
aa(lp2338
I2306
aI896
aI201
aI2996
aa(lp2339
I1032
aI2923
aI901
aI1469
aa(lp2340
I1380
aI2563
aI29
aI1804
aa(lp2341
I1796
aI2563
aI1914
aI576
aI3435
aI3079
aI2563
aI2792
aI1289
aI3044
aI242
aI1180
aI1289
aI767
aa(lp2342
I1796
aI2563
aI2991
aI500
aI116
aI3077
aI500
aI1831
aI2563
aI2520
aI413
aI2788
aI3233
aa(lp2343
I3087
aa(lp2344
I107
aI631
aI679
aI3364
aI1213
aa(lp2345
I2100
aI201
aI2916
aa(lp2346
I570
aI2091
aI242
aI1064
aI413
aI1580
aI1002
aI242
aI1264
aa(lp2347
a(lp2348
I1180
aI1289
aI767
aa(lp2349
I1858
aI2563
aI3093
aI1262
aI2288
aI2988
aI3379
aI2372
aI242
aI2352
aI576
aI1064
aa(lp2350
I2828
aa(lp2351
I1142
aI2563
aI1311
aI505
aI627
aa(lp2352
I3053
aI750
aI1954
aa(lp2353
I192
aI706
aI2935
aa(lp2354
I213
aI2378
aa(lp2355
I1791
aI1415
aI1391
aa(lp2356
I1858
aI2563
aI2276
aI413
aI2841
aI1289
aI1639
aI2453
aa(lp2357
I1391
aI2563
aI730
aI2455
aa(lp2358
I947
aI271
aI733
aI3341
aI3327
aa(lp2359
I733
aI966
aI1649
aI2873
aI1722
aI552
aa(lp2360
I164
aI2637
aI1935
aa(lp2361
I1404
aI3351
aI229
aI881
aa(lp2362
I632
aI492
aI2563
aI608
aI413
aI2990
aI3049
aI1730
aa(lp2363
I569
aa(lp2364
I2544
aI1750
aI1649
aI3048
aa(lp2365
I1213
aI2658
aI750
aI912
aI2720
aI1028
aa(lp2366
I1142
aI2563
aI321
aI1289
aI121
aa(lp2367
I1098
aI2563
aI2923
aI2795
aI2923
aI1289
aI2923
aI1262
aI2923
aa(lp2368
I2428
aI1649
aI408
aI1087
aa(lp2369
I3019
aI2563
aI155
aI226
aI2375
aa(lp2370
I2671
aI413
aI3074
aI627
aI1649
aI3265
aa(lp2371
I1480
aI1722
aI316
aa(lp2372
I396
aI1649
aI2964
aI2307
aa(lp2373
I1796
aI2563
aI868
aI856
aa(lp2374
I2923
aI475
aI170
aI2923
aI542
aa(lp2375
I78
aI1831
aI2563
aI1912
aa(lp2376
I78
aI1062
aI1831
aa(lp2377
I106
aI1200
aI3363
aI3077
aI29
aI1064
aI896
aI1284
aI896
aI148
aI3233
aa(lp2378
I3265
aI2590
aa(lp2379
I1368
aI3235
aa(lp2380
I375
aI999
aI1998
aI2010
aa(lp2381
I171
aI2923
aI151
aa(lp2382
I3052
aI750
aI2066
aI2800
aI1645
aI733
aa(lp2383
I1645
aI814
aI1978
aI500
aa(lp2384
I1914
aI576
aI2237
aI1347
aI1947
aa(lp2385
I1022
aI2563
aI1058
aa(lp2386
I61
aI570
aa(lp2387
I1642
aI976
aI1200
aI631
aI460
aa(lp2388
I3447
aI1200
aI2760
aI570
aa(lp2389
I195
aa(lp2390
I1796
aI2563
aI1914
aI576
aI2189
aI242
aI868
aI856
aa(lp2391
I982
aa(lp2392
I1858
aI2563
aI3017
aI413
aI2948
aI413
aa(lp2393
I1016
aI1289
aI1365
aI1213
aa(lp2394
I453
aI488
aI413
aI413
aI1978
aI1391
aa(lp2395
I1781
aI1504
aI413
aI413
aI1992
aI359
aa(lp2396
I127
aI750
aI1087
aI2563
aI2302
aI771
aa(lp2397
I1858
aI2563
aI2923
aI2795
aI2923
aI1289
aI2923
aI1262
aI2923
aa(lp2398
I1081
aI213
aI616
aI2312
aa(lp2399
I313
aI1289
aI679
aI2317
aa(lp2400
I3307
aI2563
aI299
aI220
aI2873
aI2673
aa(lp2401
I1866
aI738
aa(lp2402
I2327
aI2029
aa(lp2403
I2706
aI3013
aI1649
aI700
aa(lp2404
I3307
aI2563
aI3052
aI750
aI1492
aI3313
aa(lp2405
I1423
aI576
aI494
aI2360
aa(lp2406
I1831
aI1649
aI1213
aI2996
aI1863
aI361
aa(lp2407
I3341
aI3327
aI750
aI679
aI3364
aI1213
aa(lp2408
I1126
aI1831
aa(lp2409
I1979
aI242
aI2574
aa(lp2410
I1098
aI2563
aI1012
aI3265
aI1367
aI1012
aa(lp2411
I3433
aI1649
aI1213
aI733
aI3341
aI3327
aa(lp2412
I564
aI3023
aI2971
aI1645
aI733
aa(lp2413
I1796
aI2563
aI1978
aI3389
aI2542
aI3389
aI2198
aI2229
aI3077
aI1885
aI3233
aa(lp2414
I2765
aI1213
aa(lp2415
I1332
aI1289
aI985
aasS'spam'
p2416
(lp2417
(lp2418
I2806
aI180
aI679
aI3031
aI1289
aI3357
aI98
aI1668
aI1649
aI1674
aI586
aI3361
aa(lp2419
I576
aI576
aI576
aI576
aI576
aI2766
aI1217
aI1802
aI456
aI2247
aI1953
aa(lp2420
I2119
aI3044
aI3361
aI1953
aI3361
aI413
aI172
aa(lp2421
I3044
aI621
aI3044
aI1953
aI1953
aI1953
aa(lp2422
I3123
aI2456
aI2771
aI2886
aI631
aI1674
aI1133
aa(lp2423
I193
aI862
aI623
aI1368
aI3361
aa(lp2424
I1429
aI1898
aI765
aI1211
aa(lp2425
I679
aI881
aI750
aI1672
aI2801
aI621
aI1151
aI1953
aI1953
aa(lp2426
I3401
aI1953
aa(lp2427
I679
aI1318
aI318
aI1987
aI1887
aI1953
aI1953
aa(lp2428
I1674
aI1690
aI33
aI2710
aI573
aa(lp2429
I1796
aI2563
aI496
aI679
aI3031
aI3378
aI1722
aI679
aI3031
aI2446
aa(lp2430
I2891
aI2250
aI2128
aI2130
aI2812
aI3361
aa(lp2431
I1992
aI456
aI679
aI2437
aI1978
aI244
aI1218
aI1953
aa(lp2432
I1283
aI413
aI2589
aI2216
aI2629
aI413
aI1133
aI2755
aa(lp2433
I1796
aI2563
aI496
aI2107
aI679
aI3031
aI750
aI679
aI3031
aI2446
aa(lp2434
I1978
aI2737
aI2710
aI667
aI2095
aI750
aI1745
aI1953
aa(lp2435
I2970
aI2563
aI3233
aa(lp2436
I2806
aI1745
aI3019
aI1802
aI3311
aI2253
aI1661
aI1678
aI712
aI3361
aI180
aI1802
aI3311
aI2253
aI1661
aI1678
aI712
aI3361
aI3361
aI3361
aI3361
aI3361
aI3361
aI3361
aI3361
aI3019
aI1802
aI3311
aI2253
aI1661
aI1678
aI712
aI3361
aa(lp2437
I1850
aI583
aI2563
aI474
aI83
aI2446
aI3358
aa(lp2438
I2806
aI1745
aI3019
aI1802
aI3311
aI2253
aI1661
aI1678
aI712
aI3361
aI3361
aI3361
aI3361
aI3361
aI3361
aa(lp2439
I1188
aI1645
aI1524
aI1953
aa(lp2440
I318
aI959
aI2771
aI2247
aI3229
aa(lp2441
I3389
aI2921
aI3295
aI813
aI3389
aI2768
aI238
aI1782
aa(lp2442
I2970
aI1679
aI855
aI631
aI2492
aI318
aI1987
aI1925
aI862
aI3361
aa(lp2443
I318
aI1682
aI1423
aI576
aI907
aI3192
aI3134
aI3378
aI576
aI576
aI576
aa(lp2444
I2317
aI1220
aI1691
aa(lp2445
I3401
aI1953
aa(lp2446
I766
aa(lp2447
I1453
aI2892
aa(lp2448
I741
aI584
aI1671
aa(lp2449
I1720
aI1745
aI1748
aI413
aI413
aI318
aI1581
aI1289
aI1954
aa(lp2450
I1828
aI2424
aI1151
aI1367
aI2446
aI1914
aI576
aI140
aI1953
aa(lp2451
I78
aI959
aI1524
aI413
aI2058
aI3134
aa(lp2452
I33
aI413
aI1139
aI896
aI356
aI413
aI1962
aI896
aI356
aI413
aI681
aa(lp2453
I729
aI474
aI2446
aI83
aI3358
aa(lp2454
I1387
aI679
aI1828
aI1797
aI1794
aa(lp2455
I1674
aI3151
aI1953
aa(lp2456
I2302
aI2406
aI576
aa(lp2457
I679
aI3031
aI3378
aI28
aI679
aI3031
aI2446
aa(lp2458
I3019
aI1917
aI2247
aI3361
aa(lp2459
I1855
aI1012
aI263
aI1012
aI2806
aI1505
aI180
aI1745
aI1802
aI2234
aI2922
aI1953
aI1953
aa(lp2460
I2795
aI2317
aI1925
aI621
aI1674
aI33
aI2222
aI404
aI2446
aI2446
aI2446
aa(lp2461
I2586
aI413
aI2585
aI623
aI2580
aI1151
aI1953
aI1953
aa(lp2462
I2244
aI1953
aI1953
aa(lp2463
I679
aI791
aI2763
aI413
aI1568
aI2673
aI1953
aa(lp2464
I1222
aI862
aI2438
aa(lp2465
I1978
aI715
aI3134
aI3070
aa(lp2466
I3034
aI3034
aI3034
aI3034
aI3034
aI3034
aI3034
aI1234
aI1561
aI1429
aI765
aI813
aI3034
aI3034
aI3034
aI3034
aI3034
aI3034
aI3034
aa(lp2467
I927
aI3259
aI1375
aI679
aI791
aI3134
aI966
aI3361
aa(lp2468
I3453
aI413
aI844
aI2795
aI1234
aI2922
aI1953
aI1953
aa(lp2469
I318
aI805
aI242
aI3268
aI2917
aI242
aI542
aI242
aI1289
aI3378
aa(lp2470
I318
aI978
aI2952
aa(lp2471
I724
aI1550
aI2028
aI1645
aI334
aI576
aI576
aI576
aa(lp2472
I3229
aI1649
aI679
aI33
aa(lp2473
I1796
aI2563
aI318
aI3005
aI3077
aI2225
aI3233
aI1966
aa(lp2474
I724
aI1550
aI1661
aI244
aI1251
aI576
aa(lp2475
I1251
aI1745
aI3018
aI558
aI750
aa(lp2476
I844
aI2795
aI2922
aI242
aI623
aI862
aI26
aI1978
aI2376
aI576
aa(lp2477
I2354
aI1978
aI78
aI641
aI2502
aI1256
aI631
aI2744
aI331
aI1953
aI1953
aI1953
aa(lp2478
I2234
aI2922
aI1855
aI1012
aI263
aI1012
aI2806
aI1505
aI180
aI1745
aI1802
aI3311
aI1953
aa(lp2479
I263
aI1037
aI69
aI2183
aI1674
aI3252
aI1953
aa(lp2480
I1745
aI1734
aI1978
aI260
aI1953
aa(lp2481
I2563
aa(lp2482
I120
aI1745
aI3318
aI1802
aI576
aI576
aI576
aI576
aa(lp2483
I2095
aI433
aI1953
aI474
aI83
aI1953
aI1953
aI1953
aa(lp2484
I318
aI978
aI2952
aa(lp2485
I1012
aI586
aI1560
aI543
aI1012
aa(lp2486
I487
aI2446
aI569
aI35
aI881
aI2918
aI2493
aI519
aI576
aI576
aI576
aa(lp2487
I355
aI867
aa(lp2488
I1429
aI1898
aI765
aI1211
aa(lp2489
I2316
aI998
aI631
aI1330
aa(lp2490
a(lp2491
I1219
aa(lp2492
I2642
aa(lp2493
a(lp2494
I2272
aI1250
aI791
aI2768
aI1674
aI1288
aI1953
aa(lp2495
I2438
aI2563
aI2837
aI742
aI710
aI1953
aa(lp2496
I2095
aI433
aI1953
aI474
aI83
aI1953
aI1953
aI1953
aa(lp2497
I944
aI1493
aI1881
aI3081
aI2563
aI3123
aI1188
aI1953
aI1953
aI1953
aI1953
aa(lp2498
I2576
aI3125
aI86
aI575
aI1101
aI701
aa(lp2499
I2795
aI621
aI679
aI1954
aI2881
aI1953
aI413
aI1993
aa(lp2500
I456
aI2446
aI133
aI1978
aI2895
aI2545
aI1423
aI775
aI1953
aa(lp2501
I1849
aI2922
aI680
aI2297
aI2446
aI2446
aI2446
aa(lp2502
I1137
aI1289
aI3388
aI576
aa(lp2503
a(lp2504
I318
aI1005
aI2703
aI2283
aI1953
aI1953
aI1953
aa(lp2505
I2806
aI1745
aI3019
aI1917
aI2247
aI3361
aa(lp2506
I2806
aI1745
aI53
aI1767
aI2283
aI3361
aa(lp2507
I3393
aI641
aI1940
aI3361
aI2734
aI2581
aI1992
aI3080
aI2580
aI1674
aI1285
aI1953
aa(lp2508
I1674
aI1420
aa(lp2509
I2795
aI621
aI78
aI1722
aI148
aI576
aI2248
aI2257
aI1249
aa(lp2510
I2095
aI433
aI1953
aI474
aI83
aI1953
aI1953
aI1953
aa(lp2511
I977
aI1435
aI2054
aI1545
aI1289
aI1917
aI1953
aI1953
aI1953
aI1953
aI1953
aa(lp2512
I2795
aI621
aI78
aI1722
aI148
aI576
aI2248
aI2257
aI1249
aa(lp2513
I2185
aI1674
aI3379
aI2759
aI1797
aI1794
aI1696
aI1367
aI2070
aI2019
aI1953
aa(lp2514
I2446
aI2514
aI413
aI2446
aI1483
aI438
aI1802
aI2953
aa(lp2515
I2675
aI413
aI679
aI3159
aI281
aI1649
aI705
aa(lp2516
I1796
aI2563
aI86
aI1780
aa(lp2517
I3260
aI3134
aI413
aI2755
aI413
aI3077
aI750
aI679
aI1943
aI1661
aI679
aI885
aI3233
aa(lp2518
I1375
aI2397
aI1649
aI1674
aI543
aI1151
aI1953
aI1953
aI1953
aI1855
aI636
aI3361
aI3361
aa(lp2519
I532
aI3311
aI1745
aI359
aI2795
aI242
aI1101
aI576
aI576
aI576
aI576
aa(lp2520
I542
aI1289
aI1797
aI1645
aI1674
aI2358
aa(lp2521
I2359
aI1494
aI2283
aI1925
aI576
aI576
aI576
aa(lp2522
I2609
aI2809
aI353
aI1341
aI2771
aI710
aI1335
aI2710
aI667
aa(lp2523
I2042
aI3322
aI1259
aI318
aI2045
aI2283
aI1953
aI1953
aa(lp2524
I2757
aI1978
aI1665
aI1289
aI1706
aI1874
aI33
aI2612
aI3077
aI333
aI3233
aa(lp2525
I3086
aI229
aI54
aI291
aI1953
aI1953
aI1953
aI1953
aI1953
aI1953
aI1953
aI1953
aa(lp2526
I144
aI2438
aI413
aI1373
aI2877
aI939
aa(lp2527
I1796
aI2563
aI2496
aI3395
aI3339
aa(lp2528
I1745
aI3018
aI1802
aI3006
aI2795
aa(lp2529
I3134
aI722
aI83
aI890
aI750
aI2446
aI140
aa(lp2530
a(lp2531
I1812
aI144
aI305
aa(lp2532
I2795
aI621
aI78
aI1722
aI2257
aI1249
aa(lp2533
I1659
aI2645
aI413
aI413
aI1473
aI229
aI2446
aI569
aI1645
aI1978
aI3238
aI2560
aI1953
aa(lp2534
I710
aI3051
aa(lp2535
I1908
aI520
aI1559
aI1745
aI1802
aI1978
aI318
aI3032
aI2032
aa(lp2536
I1796
aI2563
aI2496
aI3395
aI2229
aI1953
aa(lp2537
I2176
aa(lp2538
I2359
aI1494
aI2283
aI1925
aI576
aI576
aI576
aa(lp2539
I318
aI641
aI413
aI1798
aa(lp2540
I1375
aI2247
aI3214
aI2309
aa(lp2541
I2970
aa(lp2542
I989
aI3200
aI2446
aI2446
aI2446
aI2446
aI2446
aa(lp2543
I3187
aI3187
aI3187
aI3200
aI631
aI392
aI1953
aI2887
aI2887
aI2887
aa(lp2544
I1473
aI2247
aI1645
aI1674
aI2493
aI54
aa(lp2545
I2737
aI1645
aI413
aI2572
aI2388
aI1953
aa(lp2546
a(lp2547
I318
aI2283
aa(lp2548
I2795
aI621
aI78
aI1722
aI148
aI576
aI2248
aI2257
aI1249
aa(lp2549
I1121
aI1674
aI2710
aI1313
aI576
aa(lp2550
I2192
aI138
aa(lp2551
I1003
aI2581
aI631
aI679
aI2860
aa(lp2552
I679
aI2796
aa(lp2553
I1953
aI413
aI413
aI413
aI413
aI413
aI3389
aI413
aI413
aI413
aI413
aI413
aI2062
aI862
aI2248
aI413
aI413
aI413
aI413
aI3389
aI413
aI413
aI413
aI413
aI413
aI1953
aa(lp2554
I3031
aI543
aI1693
aI3378
aI2312
aI1953
aI318
aI1776
aI1953
aI2737
aI720
aI1953
aa(lp2555
I1561
aI1756
aI1953
aI2406
aI2231
aa(lp2556
I532
aI302
aI3104
aI1745
aI242
aI2302
aI127
aI1953
aI1953
aI1953
aI1953
aa(lp2557
I1003
aI2581
aI631
aI679
aI2860
aa(lp2558
I2492
aI219
aI1101
aI1953
aI1953
aI1953
aI1953
aI1953
aI1953
aI1953
aI1953
aa(lp2559
I2027
aI1896
aI1953
aI1953
aI1953
aI1953
aa(lp2560
I2795
aI621
aI78
aI1722
aI148
aI576
aI2248
aI1401
aa(lp2561
I1674
aI3053
aa(lp2562
I849
aI414
aI3361
aI1953
aI3361
aI1953
aa(lp2563
I2887
aI2794
aI3389
aI524
aI3389
aI2629
aI3389
aI2629
aI3187
aI679
aI2147
aI3389
aI2629
aI3389
aI1452
aI3389
aI1606
aI1649
aI1918
aI1494
aI1953
aI2887
aI2794
aI3389
aI524
aI3389
aI2629
aI3389
aI2629
aI3187
aa(lp2564
I2396
aI1145
aI1953
aI1953
aI1953
aI1953
aI1953
aI1953
aI1953
aI1953
aI1953
aa(lp2565
I2642
aI1953
aa(lp2566
I318
aI1005
aI2703
aI2283
aI1953
aI1953
aI1953
aa(lp2567
I1748
aa(lp2568
a(lp2569
I2795
aI621
aI2945
aI1953
aI1953
aI1953
aa(lp2570
I532
aI2923
aI1796
aI1000
aI242
aI244
aI1289
aI1699
aI1274
aI80
aI1953
aa(lp2571
I2902
aI2728
aI673
aa(lp2572
I2795
aI621
aI78
aI1722
aI1401
aI576
aI1194
aa(lp2573
a(lp2574
I3006
aI636
aI2795
aI2593
aI2923
aI1606
aI578
aI1745
aI576
aI576
aI576
aI576
aa(lp2575
I2095
aI631
aI881
aI1953
aI1953
aI989
aI2247
aI750
aI760
aa(lp2576
I1796
aI2563
aI844
aI2795
aI2922
aI1953
aa(lp2577
I2202
aI1570
aI2768
aI2521
aI1953
aa(lp2578
I1796
aI2563
aI193
aI862
aI623
aI1368
aI3361
aa(lp2579
I3031
aI670
aI1012
aI3229
aI1012
aI908
aI2181
aI3119
aI3271
aI2806
aI1505
aI180
aI1745
aI1802
aI3311
aI621
aI1262
aI1978
aI3261
aI3408
aI242
aa(lp2580
I318
aI1005
aI2703
aI2283
aa(lp2581
I1814
aI483
aa(lp2582
I3192
aI3134
aI750
aI1188
aa(lp2583
I1987
aI144
aI2283
aI1953
aI1953
aI1953
aa(lp2584
I3018
aI1978
aI1988
aI3361
aI3019
aI2247
aI3361
aa(lp2585
I2744
aI242
aI2419
aI242
aI2419
aI3134
aI2755
aI576
aI576
aI576
aa(lp2586
I33
aI506
aI338
aI413
aI679
aI1045
aa(lp2587
I1012
aI318
aI1012
aI2446
aI250
aI3192
aI1133
aI3378
aI1012
aI2143
aI1674
aI2710
aI1012
aa(lp2588
I1796
aI2723
aI134
aI750
aI3319
aI635
aI576
aI576
aI576
aI750
aI871
aI2768
aI2566
aI631
aI284
aa(lp2589
I2805
aI2446
aI1281
aI242
aI2419
aI2613
aI1696
aI2446
aI1320
aI2344
aI1953
aa(lp2590
I2095
aI433
aI1953
aI1283
aI83
aI1953
aa(lp2591
I3192
aI3134
aI750
aI1188
aa(lp2592
I2140
aI2903
aI2429
aa(lp2593
I3455
aa(lp2594
I587
aI3341
aI2710
aa(lp2595
I318
aI1005
aI3010
aI1953
aI1953
aI1953
aI1953
aa(lp2596
I2061
aI923
aI3398
aI1561
aI194
aI1711
aI1953
aa(lp2597
I1796
aI2563
aI1978
aI2542
aI586
aI5
aI1953
aI1953
aa(lp2598
I2055
aa(lp2599
I1898
aI1156
aI1940
aa(lp2600
I1796
aI2563
aa(lp2601
I3341
aI2710
aI2563
aI2446
aI474
aI100
aI896
aI833
aI2563
aI849
aI2172
aI2563
aI849
aI2379
aI1953
aI1953
aa(lp2602
I1796
aI2563
aI1674
aI318
aI2317
aI1925
aa(lp2603
I3187
aI3187
aI318
aI1684
aI1845
aI2493
aI1210
aI2084
aI576
aI576
aI576
aa(lp2604
I318
aI1005
aI2283
aI1953
aI1953
aI1953
aa(lp2605
I1978
aI239
aI2479
aI576
aI576
aI576
aI576
aI576
aa(lp2606
I318
aI3280
aI2563
aI1914
aI3156
aI631
aI1914
aI775
aI2563
aI849
aI2172
aI2563
aI849
aI2379
aI1953
aI1953
aa(lp2607
I2972
aI631
aI644
aI1211
aI1953
aa(lp2608
I1796
aI2563
aa(lp2609
I849
aI2343
aI543
aI956
aa(lp2610
I1796
aI2563
aa(lp2611
I3192
aI3134
aI750
aI1188
aa(lp2612
I78
aI675
aI531
aI1953
aa(lp2613
a(lp2614
I2959
aI218
aI2670
aI3212
aI1953
aI1953
aa(lp2615
I2167
aI3167
aI413
aI524
aI930
aI3118
aI474
aa(lp2616
I1834
aI2710
aI1220
aa(lp2617
I1796
aI2563
aI1443
aI242
aI675
aI242
aI1702
aI242
aI2180
aa(lp2618
a(lp2619
I2664
aI194
aI2108
aI78
aI1925
aa(lp2620
I1796
aI2563
aa(lp2621
I318
aI3280
aI2563
aI1914
aI3156
aI631
aI1914
aI3281
aI2563
aI849
aI2172
aI2563
aI849
aI2379
aI1953
aI1953
aa(lp2622
I1796
aI2563
aa(lp2623
I1674
aI1898
aI1156
aa(lp2624
I1017
aI2757
aI318
aI2686
aI2063
aI1268
aI679
aI2304
aa(lp2625
I3169
aI2563
aI137
aI890
aI1367
aa(lp2626
I218
aI2670
aI3212
aI1953
aa(lp2627
I1745
aI309
aI1807
aI3006
aI2795
aI576
aI576
aI576
aI576
aa(lp2628
I1796
aI2563
aa(lp2629
I2082
aI3361
aI2004
aI1627
aI1953
aI1953
aI532
aI813
aI1162
aI1953
aI1953
aI1953
aI1953
aa(lp2630
I1472
aI2330
aI2493
aI2283
aI1083
aI2849
aI2739
aa(lp2631
I1006
aI2938
aI2771
aI2273
aI2693
aa(lp2632
I2710
aI813
aa(lp2633
I2710
aI813
aa(lp2634
I3145
aI1745
aI750
aI2641
aI2918
aI445
aI1831
aa(lp2635
I2710
aI3368
aI2771
aI504
aI1649
aI1792
aa(lp2636
I3134
aI1831
aI2298
aI2771
aI930
aa(lp2637
I1507
aI1953
aa(lp2638
I1129
aa(lp2639
I3401
aI242
aI193
aI2288
aI1745
aI1953
aa(lp2640
I2806
aI1505
aI2117
aI1501
aI1953
aa(lp2641
I318
aI978
aI2952
aa(lp2642
I1064
aI824
aI318
aI2717
aI576
aa(lp2643
I1987
aI144
aI2924
aa(lp2644
I3401
aI242
aI193
aI2288
aI1745
aI1953
aa(lp2645
I970
aI1674
aI586
aI750
aI2446
aI1281
aI576
aI721
aa(lp2646
I1473
aI88
aI1722
aI2277
aI242
aI2651
aI1289
aI458
aa(lp2647
I318
aI3295
aI1953
aI2768
aI2297
aI1064
aI3031
aI413
aI2172
aI1672
aI529
aI242
aI2065
aI1300
aa(lp2648
I1158
aI413
aI1137
aI413
aI3114
aI576
aa(lp2649
I1978
aI78
aI2051
aI3317
aI2920
aI2768
aI3396
aI1330
aI2072
aI2795
aI812
aI1289
aI953
aI2525
aI176
aI1802
aI224
aI413
aI1160
aI750
aI1917
aI2575
aI1953
aI127
aI2918
aI1234
aI2995
aI1954
aI2572
aI3099
aI413
aI1618
aa(lp2650
I1745
aI1037
aI2757
aI1953
aI1953
aI1953
aa(lp2651
I87
aI621
aI193
aI1802
aI2665
aI1674
aI3379
aI3192
aI3134
aa(lp2652
I996
aI1802
aI2886
aI242
aI2691
aI750
aI318
aa(lp2653
I1978
aI78
aI2088
aa(lp2654
I3034
aI3034
aI3034
aI3187
aI3341
aI3119
aI2449
aI359
aI1151
aI1953
aI2887
aI3034
aI3034
aI3034
aa(lp2655
I1796
aI2563
aa(lp2656
I318
aI3378
aI1953
aI1953
aI1953
aa(lp2657
I2944
aI287
aI542
aI904
aI2944
aI287
aI2944
aI287
aI2944
aI287
aI2944
aa(lp2658
I193
aI1745
aI1037
aI2272
aI1250
aI1645
aI679
aI33
aI1953
aa(lp2659
I636
aI3274
aI242
aI2302
aI2481
aa(lp2660
I1392
aI1289
aI1410
aI3361
aa(lp2661
I2522
aI2565
aI1978
aI72
aI325
aI2358
aI1726
aa(lp2662
I2112
aI1978
aI499
aI3361
aI87
aI862
aI695
aa(lp2663
I2996
aI1289
aI3378
aI1927
aa(lp2664
I1953
aI2234
aI2922
aI2526
aI3370
aI1250
aI1645
aI679
aI33
aI1953
aa(lp2665
I2446
aI721
aI242
aI1020
aI413
aI413
aI849
aI2054
aI160
aI413
aI413
aI2806
aI1505
aI1849
aI623
aI2525
aI2795
aI881
aI1953
aa(lp2666
I318
aI194
aI144
aI1925
aI3315
aI1953
aa(lp2667
I318
aI2317
aI1925
aa(lp2668
I10
aI413
aI1975
aI373
aa(lp2669
I2094
aI2317
aI3411
aI576
aI576
aI576
aI1367
aI2446
aI724
aI2504
aI38
aI576
aa(lp2670
I2642
aI1679
aI576
aI576
aa(lp2671
I2112
aI1978
aI499
aI3361
aI87
aI862
aI1978
aI1673
aI1953
aI1953
aa(lp2672
I1375
aI2922
aI1649
aI543
aI710
aI1953
aI413
aI3003
aa(lp2673
I1855
aI621
aI1745
aI2034
aI3361
aa(lp2674
I2806
aI1745
aI3318
aI841
aI3436
aI3361
aa(lp2675
I1146
aI2797
aI3337
aI1289
aI967
aI2615
aI816
aa(lp2676
I2837
aI2718
aI1497
aI2812
aI2105
aI1656
aI702
aa(lp2677
I849
aI1917
aI3195
aI576
aI576
aI576
aI2795
aI621
aI679
aI1234
aI1262
aa(lp2678
I1581
aI750
aI1472
aa(lp2679
I1978
aI239
aI2479
aI576
aI576
aI576
aI576
aI576
aa(lp2680
I1324
aI1330
aI1313
aI1313
aa(lp2681
I2973
aI2115
aa(lp2682
I2973
aI2115
aI621
aI440
aI750
aI1745
aa(lp2683
I2973
aI2115
aI621
aI440
aI750
aI1745
aa(lp2684
I318
aI1646
aI240
aI1953
aI1953
aI1953
aI2887
aI3187
aI576
aI2563
aI2313
aI1012
aI1012
aI576
aI242
aa(lp2685
I386
aI789
aI33
aI667
aI1953
aa(lp2686
I78
aI1645
aI1401
aI576
aI1194
aa(lp2687
I105
aI2884
aI1012
aI2919
aI1012
aI574
aI2663
aI457
aa(lp2688
I1796
aI2563
aI1320
aI242
aI2419
aI994
aI3423
aI1147
aI1953
aa(lp2689
I1745
aI3018
aI575
aI558
aI1802
aI3355
aI895
aa(lp2690
I1023
aI641
aI1286
aI1289
aI3201
aI2645
aI652
aI1953
aa(lp2691
I3434
aI667
aa(lp2692
I78
aI1645
aI1401
aI576
aI1194
aa(lp2693
I621
aI2795
aI1745
aa(lp2694
I992
aI413
aI679
aI78
aI1817
aI906
aI964
aI2095
aI2205
aI2525
aI679
aI279
aI1861
aa(lp2695
I1627
aI1828
aI1797
aI1794
aa(lp2696
I1796
aI2563
aI318
aI1953
aa(lp2697
I3192
aI2882
aI2923
aI1580
aI1769
aI1953
aI1953
aa(lp2698
I78
aI1645
aI1401
aI576
aI1194
aa(lp2699
I2313
aI2563
aI487
aI2446
aI2006
aI631
aI679
aI2772
aI145
aI331
aI413
aI623
aI3326
aI1953
aI1953
aI1953
aa(lp2700
I2575
aI1645
aI228
aI2636
aI1943
aa(lp2701
I493
aI641
aI3361
aa(lp2702
I743
aI1802
aI2886
aI1289
aI2886
aI750
aI318
aI1953
aI1953
aI1953
aI3077
aI1152
aI3233
aa(lp2703
I1796
aI2563
aI1954
aa(lp2704
I2757
aI2446
aI2894
aI1289
aI1978
aI3116
aI1953
aa(lp2705
I2768
aI3360
aI242
aI3294
aI1053
aa(lp2706
I1702
aI1015
aI1953
aa(lp2707
a(lp2708
I2795
aI621
aI78
aI1645
aI148
aI576
aI2248
aI2257
aI1249
aa(lp2709
I1702
aI1015
aI1953
aa(lp2710
I2887
aI2887
aI193
aI1802
aI3006
aI1999
aI890
aI862
aI2725
aI2771
aI403
aI3187
aI3187
aa(lp2711
I3145
aI1745
aI750
aI1674
aI2684
aI797
aI1953
aI3077
aI2030
aI3233
aa(lp2712
I1918
aI1987
aI413
aI318
aI130
aI3077
aI1870
aI3233
aa(lp2713
I1312
aI2918
aI79
aI2749
aI576
aI576
aI576
aI2757
aI1978
aI318
aI2179
aI750
aI1913
aI1953
aI3077
aI1482
aI3233
aa(lp2714
I1674
aI3031
aI3012
aI576
aI576
aa(lp2715
I709
aI72
aI590
aI1550
aI1
aI334
aI2028
aI1953
aa(lp2716
I2009
aI8
aI2108
aI1978
aI2895
aI1953
aI1953
aa(lp2717
I1986
aI2581
aI1978
aI1003
aI576
aI3077
aI1472
aI1367
aI3233
aI2297
aI2026
aa(lp2718
I263
aI1037
aI69
aI2183
aI1674
aI3252
aI1953
aa(lp2719
I1986
aI2581
aI1978
aI1003
aI576
aI3077
aI1472
aI1367
aI3233
aI2297
aI1428
aa(lp2720
I24
aI750
aI679
aI2824
aI413
aI811
aa(lp2721
I987
aI1674
aI2833
aI413
aI1688
aa(lp2722
I927
aI1262
aI160
aI750
aI1745
aI3361
aI413
aI2014
aa(lp2723
I1796
aI2563
aI127
aI152
aI1151
aI2716
aI413
aI2196
aa(lp2724
I3242
aI2563
aI896
aI896
aI733
aI576
aI1389
aI576
aI3170
aa(lp2725
I3030
aI1987
aI3077
aI2911
aI3233
aa(lp2726
I3030
aI1987
aI3077
aI1399
aI3233
aa(lp2727
I2095
aI433
aI1953
aI3167
aI126
aI576
aI3457
aa(lp2728
I194
aI1987
aI3077
aI1629
aI3233
aa(lp2729
I323
aI1953
aI3341
aI1073
aI1973
aI1953
aa(lp2730
I3007
aI2727
aI1289
aI1732
aI237
aI3077
aI236
aI2158
aI1248
aI3233
aI3077
aI2976
aI3233
aa(lp2731
I2
aI881
aI2621
aI576
aa(lp2732
I194
aI318
aI1987
aI3378
aI1953
aI1953
aI1953
aa(lp2733
I3365
aI1674
aI144
aI1925
aI87
aa(lp2734
I1885
aI2563
aa(lp2735
I163
aI2770
aI2297
aI139
aI413
aI873
aa(lp2736
I2737
aI3140
aI1953
aa(lp2737
I2918
aI3269
aI2771
aI677
aI1953
aI3167
aI126
aI576
aI3457
aa(lp2738
I1978
aI2831
aI998
aI1762
aI2985
aI576
aI413
aI3077
aI2838
aI3233
aa(lp2739
I3313
aI498
aI1953
aI1914
aI896
aI2015
aI896
aI140
aI3167
aI126
aI576
aI1740
aa(lp2740
I3229
aI1649
aI679
aI1035
aI468
aa(lp2741
I2377
aI2433
aI413
aI595
aI797
aI413
aI43
aI413
aI3077
aI463
aI3233
aa(lp2742
I2887
aI2313
aI3187
aI318
aI334
aI2499
aI1953
aa(lp2743
I1672
aI2801
aI1953
aI1953
aa(lp2744
I114
aI1188
aI72
aI3333
aI1550
aI631
aI159
aa(lp2745
I2519
aI2446
aI2446
aI413
aI2456
aI621
aI2145
aI413
aI679
aI2359
aI101
aI1953
aI1953
aa(lp2746
I2095
aI433
aI126
aI576
aI1252
aa(lp2747
I2095
aI433
aI126
aI576
aI1252
aa(lp2748
I3034
aI3034
aI3034
aI2008
aI242
aI2419
aI242
aI2419
aI3134
aI2755
aI3034
aI3034
aI3034
aa(lp2749
I1151
aI2312
aI1953
aI3167
aI126
aI576
aI1580
aa(lp2750
I2992
aI813
aa(lp2751
I3006
aI1128
aI2437
aI3413
aI2283
aI1953
aa(lp2752
I193
aI3354
aI1051
aI416
aI3361
aa(lp2753
I1855
aI3018
aI1745
aI575
aI2580
aI1802
aI348
aI3361
aa(lp2754
I2095
aI631
aI881
aI750
aI1564
aI576
aI576
aI576
aI3208
aI545
aI1696
aI1982
aI242
aI2450
aI1413
aI1953
aI3077
aI1358
aI3233
aa(lp2755
I2319
aI336
aI1635
aI267
aI3314
aa(lp2756
I2795
aI621
aI78
aI1722
aI1401
aI576
aI1194
aa(lp2757
I785
aI1923
aI750
aI1338
aI1953
aI1953
aI1953
aa(lp2758
I1862
aI355
aI2138
aa(lp2759
I3018
aI1745
aI409
aI2795
aI1234
aI692
aI3361
aa(lp2760
I2642
aa(lp2761
I2575
aa(lp2762
I1055
aI3180
aI2768
aI2257
aI1249
aa(lp2763
I1825
aa(lp2764
I2317
aI2413
aI813
aI576
aI576
aI576
aI2400
aI3314
aa(lp2765
I1429
aI78
aI1450
aI1645
aI679
aI33
aI3361
aa(lp2766
I2301
aI1953
aI1978
aI1405
aI2728
aI1645
aI679
aI33
aI3361
aI1953
aI3361
aa(lp2767
I87
aa(lp2768
I1055
aI78
aI3423
aI2768
aI148
aI576
aI2248
aI2257
aI1249
aa(lp2769
I849
aI2666
aI242
aI849
aI3190
aI1953
aI1953
aI1953
aa(lp2770
I750
aI1674
aI2496
aI2319
aa(lp2771
a(lp2772
I2926
aa(lp2773
I127
aI1151
aI1953
aa(lp2774
I183
aI2670
aI1151
aI1953
aI1953
aI3077
aI3026
aI3233
aa(lp2775
I2642
aa(lp2776
I1796
aI2563
aI1674
aI1748
aI2575
aa(lp2777
I532
aI3018
aI3408
aI763
aI78
aI3139
aI631
aI1092
aI2069
aa(lp2778
I1796
aI2563
aI196
aI2563
aI2504
aI1674
aI3053
aa(lp2779
I2642
aa(lp2780
I576
aa(lp2781
I3341
aI3074
aI188
aI3117
aI1953
aI318
aI3116
aI1953
aI1953
aI1953
aI1953
aI1953
aa(lp2782
I576
aa(lp2783
I78
aI1645
aI148
aI576
aI2248
aI2257
aI1249
aa(lp2784
I1796
aI2563
aI78
aI435
aI1524
aa(lp2785
I1367
aI636
aI1745
aI2288
aI882
aI576
aI576
aI576
aI3206
aI3259
aI1992
aI1745
aI832
aI631
aI1252
aI1802
aI1423
aI3097
aI1953
aa(lp2786
I1796
aI2563
aI1674
aI3053
aI750
aI2565
aI1461
aa(lp2787
I78
aI1645
aI2257
aI1249
aa(lp2788
I3229
aI679
aI188
aI2347
aI534
aI1505
aI831
aI1745
aI1953
aa(lp2789
I795
aI242
aI806
aI1262
aI2035
aI3361
aa(lp2790
I33
aI2358
aI2421
aI1124
aa(lp2791
I78
aI1645
aI148
aI576
aI2248
aI2257
aI1249
aa(lp2792
I1375
aI1674
aI2710
aI1645
aI679
aI33
aI1151
aI1953
aI1953
aa(lp2793
I21
aI2297
aI1064
aI1313
aI2710
aa(lp2794
I318
aI720
aI1972
aa(lp2795
a(lp2796
I641
aI1804
aI1012
aI2450
aI641
aI1012
aa(lp2797
I3111
aI679
aI2303
aI2840
aa(lp2798
I78
aI1645
aI1401
aI576
aI1194
aa(lp2799
I927
aI1745
aI1375
aI1674
aI1954
aI692
aI3361
aa(lp2800
I179
aI1674
aI2159
aI1661
aI2178
aa(lp2801
I1375
aI1674
aI3371
aI22
aI2805
aI1696
aI2353
aI54
aI894
aI141
aI896
aI140
aa(lp2802
I2757
aI1978
aI318
aI2179
aI1802
aI3041
aa(lp2803
I1441
aI3006
aI679
aI2606
aI1953
aa(lp2804
I78
aI1722
aI1401
aI576
aI1194
aa(lp2805
I2406
aI2795
aI1953
aI1953
aa(lp2806
I1760
aI1645
aI679
aI3086
aI1953
aa(lp2807
I1012
aI1690
aI3341
aI2710
aI2693
aI1953
aI1953
aI1012
aa(lp2808
I346
aI1139
aa(lp2809
I3389
aI881
aI1942
aI3389
aa(lp2810
I1748
aa(lp2811
I1304
aI3124
aI2464
aI2743
aI242
aI158
aa(lp2812
I2301
aI576
aI576
aI576
aI2795
aI621
aI3434
aI1953
aa(lp2813
I78
aI1722
aI3242
aI2563
aI896
aI896
aI1401
aI576
aI1194
aa(lp2814
I2313
aI2563
aI1012
aI318
aI2705
aI1012
aI1981
aI1674
aI2317
aI1925
aI1645
aI229
aI680
aI72
aI1882
aI572
aI1012
aI1319
aI1012
aa(lp2815
I318
aI1272
aI1649
aI1012
aI2172
aI623
aI2038
aI1802
aI679
aI2403
aI3166
aI1012
aa(lp2816
I532
aI19
aI2795
aI2095
aI750
aI1745
aI1953
aa(lp2817
I1882
aI849
aI1917
aI750
aI576
aI576
aI576
aI2997
aI1953
aI1953
aI1953
aa(lp2818
I3070
aa(lp2819
I2901
aI2264
aI242
aI3431
aI576
aI413
aI1674
aI1388
aI750
aI2708
aI242
aI2595
aI1289
aI2741
aI3378
aa(lp2820
I2313
aI2563
aI1646
aI576
aI576
aI576
aI2722
aI242
aI1764
aI3380
aI2677
aI576
aa(lp2821
I679
aI828
aI2853
aI1953
aa(lp2822
I3444
aI1133
aI2563
aI2917
aI750
aI1827
aa(lp2823
I2313
aI2563
aI1375
aI1325
aI1802
aI12
aI679
aI79
aI1953
aI3077
aI3391
aI3233
aa(lp2824
I25
aI1802
aI1393
aI33
aI1063
aI413
aI1575
aI2563
aI3105
aa(lp2825
I1531
aI1904
aI930
aI2768
aI1880
aI1624
aI242
aI3431
aI576
aa(lp2826
I1745
aI3018
aI575
aI558
aI1802
aI3355
aI198
aa(lp2827
I1978
aI1668
aI2095
aI750
aI1745
aI1953
aa(lp2828
I78
aI1722
aI1401
aI576
aI1194
aa(lp2829
I456
aI3123
aI2609
aI1953
aa(lp2830
I1672
aI2801
aI2381
aI1674
aI1519
aa(lp2831
I3014
aa(lp2832
I1009
aI413
aI1933
aI1802
aI374
aI3450
aa(lp2833
I3089
aI1745
aI1953
aa(lp2834
I1418
aI646
aI3295
aI242
aI2358
aI1661
aI1081
aI3378
aI2967
aI242
aI1536
aI2038
aI1289
aI2953
aI255
aI1953
aa(lp2835
I1
aI996
aI1954
aI750
aI1745
aa(lp2836
I3089
aI1745
aI1953
aa(lp2837
I78
aI1645
aI1401
aI576
aI1194
aa(lp2838
I2973
aI2115
aa(lp2839
I2973
aI2115
aa(lp2840
I413
aI413
aI2912
aI3187
aI375
aI773
aI72
aI2578
aI2835
aa(lp2841
I3259
aI1037
aI2923
aI1606
aI821
aI623
aI1953
aI1953
aI1953
aI1953
aI1953
aI1953
aI1953
aa(lp2842
I1796
aI2563
aI2105
aI396
aI1953
aa(lp2843
I1796
aI2563
aI2642
aa(lp2844
I532
aI1037
aI1992
aI1745
aI1375
aI1978
aI2343
aI1953
aI1953
aI1953
aa(lp2845
I2313
aI576
aI1834
aI2710
aI2975
aa(lp2846
I3389
aI532
aI215
aI1751
aI2433
aI413
aI413
aa(lp2847
I2655
aI1573
aI2371
aI2655
aa(lp2848
I576
aI576
aI576
aI576
aI576
aI576
aI2655
aI817
aI242
aI2655
aI576
aI576
aI576
aI576
aI576
aI2655
aI817
aI242
aI2655
aI576
aI576
aI576
aI576
aa(lp2849
I1796
aI413
aI3415
aI576
aI576
aI576
aa(lp2850
I318
aI2811
aI813
aa(lp2851
I3044
aI621
aI3044
aI1953
aI1953
aI1953
aa(lp2852
I1498
aI3389
aI1498
aI3389
aI1498
aI3259
aI3319
aI2012
aI2480
aI631
aI1580
aI1808
aI242
aI1101
aI2950
aI1745
aI1953
aI1953
aI1953
aa(lp2853
I318
aI33
aI2548
aI2771
aI715
aI1485
aa(lp2854
I3221
aI413
aI1769
aI576
aI1452
aI576
aI2751
aI1367
aI1953
aI1953
aa(lp2855
I3088
aI679
aI518
aI2771
aI525
aI413
aI1917
aa(lp2856
I3401
aa(lp2857
I1831
aI1338
aI1151
aI1645
aI242
aI229
aI724
aI1550
aI3255
aI2328
aI2996
aa(lp2858
I930
aI930
aa(lp2859
I127
aI152
aI3016
aI576
aI576
aI576
aI576
aI576
aa(lp2860
I9
aa(lp2861
I1855
aI862
aI78
aI631
aI3378
aI3361
aa(lp2862
I2806
aI1745
aI3311
aI2253
aI1661
aI1678
aI712
aI3361
aI3361
aa(lp2863
I1375
aI1674
aI274
aI3255
aI3016
aI1953
aI1953
aa(lp2864
I9
aa(lp2865
I1375
aI1674
aI274
aI3255
aI3016
aI1953
aI1953
aa(lp2866
I3134
aI722
aI83
aI890
aI750
aI2446
aI140
aa(lp2867
I2302
aI2406
aI1745
aI3303
aI940
aI623
aI413
aI2570
aa(lp2868
I3044
aI621
aI3044
aI1953
aI1953
aI1953
aa(lp2869
I679
aI1697
aI78
aI2710
aI667
aI1645
aI679
aI33
aI1953
aI1953
aI1953
aa(lp2870
I2313
aI2563
aI3213
aI3213
aI3213
aI1493
aI1881
aI3313
aI498
aI3213
aI3213
aI3213
aa(lp2871
I1128
aI2069
aI2092
aI1649
aI222
aI365
aI1436
aI1953
aI1953
aI1953
aa(lp2872
I765
aI413
aI2214
aI2200
aa(lp2873
I2288
aI1745
aI882
aI3370
aI1674
aI1285
aI3361
aa(lp2874
I283
aI462
aI242
aI3341
aI2972
aa(lp2875
I2737
aI2605
aI1661
aI1564
aI3140
aI1953
aa(lp2876
I318
aI2193
aI1953
aI1473
aI2580
aI1802
aI1463
aI1550
aI1645
aI3309
aI586
aI2250
aI1953
aa(lp2877
a(lp2878
I1921
aI1318
aI2723
aI78
aI343
aI242
aI1534
aI1925
aI1847
aa(lp2879
I2446
aI1156
aa(lp2880
I273
aI28
aI28
aI100
aI242
aI532
aI3018
aI1778
aI1674
aI1955
aI2887
aI743
aI2582
aI1953
aI1953
aa(lp2881
I1674
aI318
aI2575
aI576
aa(lp2882
I648
aI2450
aI1953
aI1953
aI1953
aa(lp2883
I486
aI576
aI3397
aI1452
aI576
aI1974
aI242
aI1902
aI1822
aI1408
aI242
aI733
aI576
aI2676
aI576
aI1194
aa(lp2884
I2326
aI3449
aa(lp2885
I2806
aI1505
aI2095
aI2633
aI631
aI1169
aI242
aI652
aI1953
aa(lp2886
I1796
aI2563
aI1954
aI1748
aa(lp2887
I2446
aI2070
aI2247
aI2753
aI1289
aI2629
aI413
aI1133
aI355
aa(lp2888
I679
aI3031
aI242
aI2095
aI309
aI244
aa(lp2889
I1645
aI413
aI2572
aI2645
aI893
aa(lp2890
I2438
aI2563
aI1845
aI13
aa(lp2891
I4
aI679
aI672
aI3398
aI1745
aI1077
aI180
aI1802
aI2406
aI679
aI1040
aa(lp2892
I3458
aI265
aI550
aI118
aa(lp2893
I128
aI851
aI679
aI554
aI621
aI194
aI1953
aa(lp2894
I3383
aI413
aI693
aI1978
aI2694
aa(lp2895
I3401
aI1953
aa(lp2896
I3123
aI2456
aI2771
aI2886
aI631
aI1674
aI1133
aa(lp2897
I679
aI33
aI648
aI484
aa(lp2898
I318
aas.