(dp1
I0
S'zerostart'
p2
sI1
Vstock
p3
sI2
Vlimited
p4
sI3
Vmid-continental
p5
sI4
Vpardon
p6
sI5
Vsaver
p7
sI6
Vdynamic
p8
sI7
Vnottingham
p9
sI8
Vasian
p10
sI9
Vfuturesignals
p11
sI10
Vsci
p12
sI11
Vbuccalization
p13
sI12
Vsurf
p14
sI13
Vincrease
p15
sI14
Vsymoposium
p16
sI15
Vceases
p17
sI16
Vecdl
p18
sI17
Vkbcs-98
p19
sI18
Vaum
p20
sI19
Vcreated
p21
sI20
Vaisb96
p22
sI21
Vvoted
p23
sI22
Vunder
p24
sI23
Vteaching
p25
sI24
Vsorry
p26
sI25
Vwelcome
p27
sI26
Vworth
p28
sI27
Vxth
p29
sI28
V@
sI29
Vupdated
p30
sI30
Vrisk
p31
sI31
Varboreal
p32
sI32
Vneg0
p33
sI33
Vinternet
p34
sI34
Vdell
p35
sI35
Vevery
p36
sI36
Vupdates
p37
sI37
Vlecture
p38
sI38
Vmonth
p39
sI39
Vtagging
p40
sI40
Vschool
p41
sI41
Vrea
p42
sI42
Vmacswan
p43
sI43
Vinvestigator
p44
sI44
Vreduplication
p45
sI45
Vvelar
p46
sI46
Vcmc
p47
sI47
Vtang
p48
sI48
Vclite
p49
sI49
Vsystemic
p50
sI50
Vred
p51
sI51
Vkonvens98
p52
sI52
Vrun-on
p53
sI53
Venjoy
p54
sI54
Vbill
p55
sI55
Vpragmatic
p56
sI56
Vconcise
p57
sI57
Vlistserve
p58
sI58
Vcapitalisation
p59
sI59
Vtwlt14
p60
sI60
Vrodman
p61
sI61
Vjapanese
p62
sI62
Vhorn
p63
sI63
Vsecond
p64
sI64
Vborrowings
p65
sI65
V7th
p66
sI66
Vboyland
p67
sI67
Vexpressions
p68
sI68
Vsociolinguist
p69
sI69
Veven
p70
sI70
Verrors
p71
sI71
Vpreferences
p72
sI72
V+
sI73
Vasia
p73
sI74
Vnez
p74
sI75
Vchechen
p75
sI76
Vcheng
p76
sI77
Vcross-cultural
p77
sI78
Vnew
p78
sI79
Vnet
p79
sI80
Vever
p80
sI81
Vinternships
p81
sI82
Vschwenter
p82
sI83
Vmillion
p83
sI84
Vnotions
p84
sI85
Vmel
p85
sI86
Vnever
p86
sI87
Vhere
p87
sI88
Vhundreds
p88
sI89
Vanthropology
p89
sI90
V108
p90
sI91
Vreplacements
p91
sI92
Vchina
p92
sI93
Vpath
p93
sI94
Vstudia
p94
sI95
Vmey
p95
sI96
Vconversational
p96
sI97
Vwaseda
p97
sI98
Vhunting
p98
sI99
Vforum
p99
sI100
Vk
sI101
Vreports
p100
sI102
Vguide
p101
sI103
Vhansa
p102
sI104
Vgenerala
p103
sI105
Vanalysts
p104
sI106
Vgls
p105
sI107
Vchanges
p106
sI108
Vsegments
p107
sI109
Vcriticism
p108
sI110
Vclassification
p109
sI111
Vdiscontinuous
p110
sI112
Vpsychological
p111
sI113
Vunix
p112
sI114
Vtotal
p113
sI115
Vuniv
p114
sI116
Vplot
p115
sI117
Vlaryngeal
p116
sI118
Vcriminals
p117
sI119
Vjetai
p118
sI120
Vwould
p119
sI121
Vhualapai
p120
sI122
Vchamito
p121
sI123
Vnegative
p122
sI124
Vmitwpl
p123
sI125
Vdistributing
p124
sI126
Vvol
p125
sI127
Vcall
p126
sI128
Vstrike
p127
sI129
Vbu
p128
sI130
Vpreview
p129
sI131
Vcald
p130
sI132
Vuntil
p131
sI133
V1000
p132
sI134
Vinquiry
p133
sI135
Vposting
p134
sI136
Vsenseval
p135
sI137
Vsuccessful
p136
sI138
Vmotors
p137
sI139
V212-6587900
p138
sI140
V99
p139
sI141
V98
p140
sI142
Vberlin
p141
sI143
V1435
p142
sI144
Vadult
p143
sI145
V90
p144
sI146
Vhole
p145
sI147
Vhold
p146
sI148
V95
p147
sI149
V94
p148
sI150
V97
p149
sI151
V96
p150
sI152
Vme
p151
sI153
Vii
p152
sI154
Vdgfs
p153
sI155
Vword
p154
sI156
V1997
p155
sI157
Vpwpl
p156
sI158
V1999
p157
sI159
V1998
p158
sI160
Vwork
p159
sI161
Vik
p160
sI162
Vtheories
p161
sI163
Ve-gift
p162
sI164
Vmt
p163
sI165
Vtagalog
p164
sI166
Vhenry
p165
sI167
Vernest
p166
sI168
Vmy
p167
sI169
Vexample
p168
sI170
Vproverbio
p169
sI171
Vaaas
p170
sI172
Voqth
p171
sI173
Viawe
p172
sI174
Vpreserving
p173
sI175
Vindia
p174
sI176
Vfax
p175
sI177
Vbisfai
p176
sI178
Via
p177
sI179
Vstrengthen
p178
sI180
Vwant
p179
sI181
Vcantonese
p180
sI182
Vaaai
p181
sI183
Vattract
p182
sI184
Vaaal
p183
sI185
Vhoe
p184
sI186
Vend
p185
sI187
Vsyntactic
p186
sI188
Vtravel
p187
sI189
Vjochem
p188
sI190
Vfeature
p189
sI191
V1196
p190
sI192
Vmachine
p191
sI193
Vhow
p192
sI194
Vhot
p193
sI195
Vpossessives
p194
sI196
Vanswer
p195
sI197
Vsymposium
p196
sI198
Vbancuri
p197
sI199
Vwolfram
p198
sI200
Vseelangs
p199
sI201
Vdialect
p200
sI202
Vhonored
p201
sI203
Vminority
p202
sI204
Vtextlinguistics
p203
sI205
Vafter
p204
sI206
Vlab
p205
sI207
Vmcwop
p206
sI208
Vwrong
p207
sI209
Vfracas
p208
sI210
Vpredicates
p209
sI211
Vsalsa
p210
sI212
Vlaw
p211
sI213
Vparallel
p212
sI214
Vtypes
p213
sI215
Vpurchase
p214
sI216
V1281
p215
sI217
Vthird
p216
sI218
Vseduce
p217
sI219
Vthink
p218
sI220
Vgreek
p219
sI221
Vcomplexity
p220
sI222
Vgreen
p221
sI223
Vkarcevskij
p222
sI224
V816-356
p223
sI225
Vdemocratic
p224
sI226
Vorder
p225
sI227
Vrestriction
p226
sI228
Voffice
p227
sI229
Vover
p228
sI230
Vlinguistlist
p229
sI231
Vclitics
p230
sI232
Vorientale
p231
sI233
Vlondon
p232
sI234
Vjapan
p233
sI235
Vjournals
p234
sI236
Vbefore
p235
sI237
Vlocklear
p236
sI238
Vamericana
p237
sI239
Vpersonal
p238
sI240
Vfix
p239
sI241
Vmultidisciplinary
p240
sI242
V,
sI243
Vwriting
p241
sI244
Vbetter
p242
sI245
V1370
p243
sI246
V405
p244
sI247
Vproduction
p245
sI248
Vlingvistica
p246
sI249
V402
p247
sI250
V400
p248
sI251
Vpustejovsky
p249
sI252
Vcree
p250
sI253
Vharmony
p251
sI254
Vversus
p252
sI255
Vthem
p253
sI256
Vinternationa
p254
sI257
Vinterdisciplinary
p255
sI258
Vfig
p256
sI259
Vdiachronica
p257
sI260
Vbreak
p258
sI261
Veducating
p259
sI262
Veffects
p260
sI263
Vthey
p261
sI264
Vschools
p262
sI265
Vyourself
p263
sI266
Velsnet
p264
sI267
Vsmoking
p265
sI268
Vprize
p266
sI269
Vgermanic
p267
sI270
Vnetherlands
p268
sI271
Vgrammar
p269
sI272
Vfonts
p270
sI273
Vl
sI274
Vrocks
p271
sI275
V378
p272
sI276
Veacl
p273
sI277
Veach
p274
sI278
V370
p275
sI279
Vfda
p276
sI280
V375
p277
sI281
Vside
p278
sI282
Vbantu
p279
sI283
Vconsolidate
p280
sI284
Vtheworld
p281
sI285
V403
p282
sI286
Vconcord
p283
sI287
Vdiana
p284
sI288
Vweightless
p285
sI289
Vprinciples
p286
sI290
Vemnlp3
p287
sI291
Vgates
p288
sI292
Vyiddish
p289
sI293
V395
p290
sI294
Vcombining
p291
sI295
Vgeisteswissenschaften
p292
sI296
Vtypology
p293
sI297
Vlarge
p294
sI298
Vnetwork
p295
sI299
Vhellenistic
p296
sI300
Vlangue
p297
sI301
Vdialects
p298
sI302
Vtried
p299
sI303
Vmayan
p300
sI304
Vfellows
p301
sI305
Vcontent
p302
sI306
Vfellowship
p303
sI307
Vrf
p304
sI308
Vbanning
p305
sI309
Vgot
p306
sI310
Vjall
p307
sI311
Vcreole
p308
sI312
Vfoundation
p309
sI313
Varizona
p310
sI314
Vdatasources
p311
sI315
Vcity
p312
sI316
Veisteddfodau
p313
sI317
Vthreatened
p314
sI318
Vfree
p315
sI319
Vstandard
p316
sI320
Vmanagement
p317
sI321
Vserrano
p318
sI322
Vesslli
p319
sI323
Vwanted
p320
sI324
V249
p321
sI325
Vcertified
p322
sI326
Vsheffield
p323
sI327
Vihardunaldiak
p324
sI328
Vnorwegian
p325
sI329
V17-19
p326
sI330
Vcorrectness
p327
sI331
Vdays
p328
sI332
Vsintassi
p329
sI333
V293
p330
sI334
Vinvestment
p331
sI335
Vfascino
p332
sI336
Vsmokers
p333
sI337
Vcorrections
p334
sI338
V007
p335
sI339
Vuralic
p336
sI340
Vcaught
p337
sI341
Vsize
p338
sI342
Vindustrial
p339
sI343
Vfeatures
p340
sI344
Vthereon
p341
sI345
Vresearcher
p342
sI346
Vez
p343
sI347
Vhearing
p344
sI348
Vlately
p345
sI349
Vphilosophical
p346
sI350
Vstylistics
p347
sI351
V176
p348
sI352
Vesperanto
p349
sI353
Velectronic
p350
sI354
Vijhcs
p351
sI355
Vservice
p352
sI356
Vtop
p353
sI357
Vtov
p354
sI358
Vfiction
p355
sI359
Vneeded
p356
sI360
Vtromsoe
p357
sI361
V1b
p358
sI362
Vmaster
p359
sI363
Vlisted
p360
sI364
Vxiv
p361
sI365
Vtea
p362
sI366
Vtoc
p363
sI367
Vcorpus
p364
sI368
Vjohn
p365
sI369
Vpaclic12
p366
sI370
Vpaclic10
p367
sI371
Vgeneve
p368
sI372
Vgeneva
p369
sI373
Vconvention
p370
sI374
Vserve
p371
sI375
Vdirect
p372
sI376
Vcilca
p373
sI377
Vwestern
p374
sI378
Vcorpuys
p375
sI379
Vhelen
p376
sI380
Vtranslingual
p377
sI381
Vdistance
p378
sI382
Viwcs
p379
sI383
Vaditjondro
p380
sI384
Vforensic
p381
sI385
Vtree
p382
sI386
Vzero
p383
sI387
Vtmi-99
p384
sI388
Vproject
p385
sI389
Vbigrams
p386
sI390
Voptionality
p387
sI391
Vhistorical
p388
sI392
Vflorida
p389
sI393
V10th
p390
sI394
Vdiachrony
p391
sI395
Vhayo
p392
sI396
Vacquisition
p393
sI397
Vquebec
p394
sI398
Vmini
p395
sI399
Valaa
p396
sI400
Vkiyoshi
p397
sI401
Vdisambiguation
p398
sI402
Vmodern
p399
sI403
Vmind
p400
sI404
Vmine
p401
sI405
Vglass
p402
sI406
Vparsers
p403
sI407
Vsocio
p404
sI408
Vrap
p405
sI409
Vseen
p406
sI410
Vseminar
p407
sI411
Vin-aid
p408
sI412
Vacademic
p409
sI413
V-
sI414
Vsnow
p410
sI415
Vprosody
p411
sI416
Vsound
p412
sI417
Vsubjects
p413
sI418
Vlumpur
p414
sI419
Vparis
p415
sI420
Vlayoffs
p416
sI421
Vthough
p417
sI422
Vobject
p418
sI423
Vtranslator
p419
sI424
Vgermany
p420
sI425
Vletter
p421
sI426
Vhacek
p422
sI427
Vutxvms
p423
sI428
Vglot
p424
sI429
Valabama
p425
sI430
Vlexis
p426
sI431
Vglow
p427
sI432
Vzealand
p428
sI433
Vreleased
p429
sI434
Vijsl
p430
sI435
Vmedical
p431
sI436
Vflow
p432
sI437
Vchiini
p433
sI438
Vyours
p434
sI439
Vpalatal
p435
sI440
Vdefinitely
p436
sI441
Vsprachwissenschaft
p437
sI442
Vdos
p438
sI443
Vnineteenth
p439
sI444
Vuptalk
p440
sI445
Vmailing
p441
sI446
Vasie
p442
sI447
Vpidgins
p443
sI448
Vconference-5
p444
sI449
V1143
p445
sI450
Vnominalization
p446
sI451
Vlabels
p447
sI452
Vsexist
p448
sI453
Vsyntax
p449
sI454
Vtelri
p450
sI455
Visfc
p451
sI456
Vmake
p452
sI457
Vpick
p453
sI458
Vairlines
p454
sI459
Vuninflected
p455
sI460
Vvenezuela
p456
sI461
Vterminologie
p457
sI462
Vdebts
p458
sI463
V11116
p459
sI464
Vkassel
p460
sI465
V543
p461
sI466
Vtheme
p462
sI467
Vgreenberg
p463
sI468
Vrich
p464
sI469
Vannounce
p465
sI470
Vocr
p466
sI471
Vcfps
p467
sI472
Vreconstruction
p468
sI473
Viatl
p469
sI474
V10
p470
sI475
Vde
p471
sI476
Vvowels
p472
sI477
Vicslp
p473
sI478
Vgogo
p474
sI479
Vapple-iss
p475
sI480
Veurogp
p476
sI481
V764
p477
sI482
Vnegated
p478
sI483
Vreport
p479
sI484
Vtoolbox
p480
sI485
Vdu
p481
sI486
Vdr
p482
sI487
Vearn
p483
sI488
Vtextbooks
p484
sI489
Vidioms
p485
sI490
Vtranslating
p486
sI491
Vmidamerica
p487
sI492
Vmethod
p488
sI493
Vbad
p489
sI494
V417
p490
sI495
Vexclamations
p491
sI496
Vems
p492
sI497
V413
p493
sI498
Vrelease
p494
sI499
Vflutter
p495
sI500
Vlinguist
p496
sI501
Vautomatic
p497
sI502
Vebicc
p498
sI503
Vrespond
p499
sI504
Vleasing
p500
sI505
Vreference
p501
sI506
Vspecialist
p502
sI507
Vicla
p503
sI508
Vaustralia
p504
sI509
Vprototypical
p505
sI510
Vtechniques
p506
sI511
Vbrazil
p507
sI512
V03
p508
sI513
Vattitudes
p509
sI514
V06
p510
sI515
V04
p511
sI516
Vlots
p512
sI517
Vaway
p513
sI518
Virs
p514
sI519
Vrings
p515
sI520
Vshaved
p516
sI521
Vartificial
p517
sI522
Vprince
p518
sI523
Vvoyeur
p519
sI524
Vr
sI525
Vpay-no
p520
sI526
Vmuc
p521
sI527
V12ichl
p522
sI528
Vconceptual
p523
sI529
Vauthor
p524
sI530
Vapproach
p525
sI531
Vdiscovery
p526
sI532
Vwe
p527
sI533
Vterms
p528
sI534
Vwo
p529
sI535
Vweak
p530
sI536
Vwh
p531
sI537
Vsoutheast
p532
sI538
Vcut
p533
sI539
Vws
p534
sI540
Vhuang
p535
sI541
V387
p536
sI542
Vnews
p537
sI543
Vdebt
p538
sI544
V34th
p539
sI545
Vliposuction
p540
sI546
Vrightward
p541
sI547
Vila
p542
sI548
Vcountry
p543
sI549
V1079
p544
sI550
Vagainst
p545
sI551
Vhamada
p546
sI552
Vunc
p547
sI553
Vgames
p548
sI554
Viron
p549
sI555
Vlogic
p550
sI556
Vnameserver
p551
sI557
Vadapted
p552
sI558
Vasked
p553
sI559
Vcon
p554
sI560
Vsocio-linguistics
p555
sI561
Vtone
p556
sI562
Vhad
p557
sI563
Vgopher
p558
sI564
V2nd
p559
sI565
Vtons
p560
sI566
Vfulbright
p561
sI567
Vbasque
p562
sI568
Vtilburg
p563
sI569
V100
p564
sI570
Vconference
p565
sI571
Vkoyra
p566
sI572
Vengines
p567
sI573
Vsource
p568
sI574
Vmicrocap
p569
sI575
Vbeen
p570
sI576
V.
sI577
Vadvert
p571
sI578
Vinterest
p572
sI579
Vbasic
p573
sI580
Vtutorials
p574
sI581
Vflexible
p575
sI582
Vlovely
p576
sI583
Vcorrection
p577
sI584
Vwebsite
p578
sI585
Vdry
p579
sI586
Vlife
p580
sI587
Vprosperous
p581
sI588
Veastern
p582
sI589
Vpacling
p583
sI590
V900
p584
sI591
Vsigir98
p585
sI592
Vcircumcision
p586
sI593
Vsycophants
p587
sI594
Vcuny
p588
sI595
Vchild
p589
sI596
Vaffixes
p590
sI597
V167
p591
sI598
V161
p592
sI599
Vcartoons
p593
sI600
Vapplied
p594
sI601
Vopenings
p595
sI602
Vsumerologists
p596
sI603
Vsynchronic
p597
sI604
Vsampson
p598
sI605
Vslt
p599
sI606
Vlctl
p600
sI607
Vkentucky
p601
sI608
Vn
sI609
Vdept
p602
sI610
Vapocryphal
p603
sI611
Vteachers
p604
sI612
Vsle
p605
sI613
Vlabphon6
p606
sI614
Vsla
p607
sI615
Vcont
p608
sI616
Vconcordancer
p609
sI617
Vconv
p610
sI618
Vmexico
p611
sI619
Vdiscourses
p612
sI620
Vseparatism
p613
sI621
Vis
p614
sI622
Vlatvian
p615
sI623
Vit
p616
sI624
Viv
p617
sI625
Vhpsg97
p618
sI626
Vclin
p619
sI627
Vgrammars
p620
sI628
Vmarco
p621
sI629
Vil
p622
sI630
Vconf
p623
sI631
Vin
p624
sI632
Vcomparative
p625
sI633
Vfarsi
p626
sI634
Vie
p627
sI635
Vid
p628
sI636
Vif
p629
sI637
Valasa
p630
sI638
Vhong
p631
sI639
Vspecialization
p632
sI640
Vintrasentential
p633
sI641
Vcredit
p634
sI642
Vpragma99
p635
sI643
Vpunctuation
p636
sI644
Vwound
p637
sI645
Vbella
p638
sI646
Vany
p639
sI647
Vsplit
p640
sI648
Vsuccess
p641
sI649
Vpre-school
p642
sI650
Veuropean
p643
sI651
Vindependent
p644
sI652
Vskyrocket
p645
sI653
V1sg
p646
sI654
Vwelsh
p647
sI655
Vnic
p648
sI656
Vhana
p649
sI657
V97-98
p650
sI658
Vclosings
p651
sI659
Vspeakers
p652
sI660
Vrain
p653
sI661
Vhand
p654
sI662
Vsapir-whorf
p655
sI663
Vdocuments
p656
sI664
Vcharacters
p657
sI665
Vgerman-english
p658
sI666
Vhans
p659
sI667
Vopportunity
p660
sI668
Vaisb
p661
sI669
Vliteratures
p662
sI670
Vkept
p663
sI671
Vslrf
p664
sI672
Vintrusion
p665
sI673
Vprograms
p666
sI674
Vhispanic
p667
sI675
Vsavings
p668
sI676
Vcontact
p669
sI677
Vgreatest
p670
sI678
Vquantitative
p671
sI679
Vthe
p672
sI680
V800
p673
sI681
Vinvestments
p674
sI682
Vkinship
p675
sI683
Vconsciousness
p676
sI684
Vsentence
p677
sI685
Vxv
p678
sI686
Vinterrogatives
p679
sI687
Videas
p680
sI688
Vstandardisation
p681
sI689
Vranlp
p682
sI690
Vthanks
p683
sI691
Vhuman
p684
sI692
Vyet
p685
sI693
Vproofing
p686
sI694
Vlasso
p687
sI695
Vatip
p688
sI696
Vdialogues
p689
sI697
Vaa29536
p690
sI698
Vendangered
p691
sI699
Vcornell
p692
sI700
Vcharacter
p693
sI701
Veasy
p694
sI702
Vfares
p695
sI703
Veast
p696
sI704
Vamazonian
p697
sI705
Vdesire
p698
sI706
Vusable
p699
sI707
Vmaya
p700
sI708
Vadvances
p701
sI709
Vpossible
p702
sI710
Vfast
p703
sI711
Vcultural
p704
sI712
Vbackground
p705
sI713
Vsilverman
p706
sI714
Vtense-aspect
p707
sI715
Vunique
p708
sI716
Vadvanced
p709
sI717
Vcognitive
p710
sI718
Vgenerated
p711
sI719
Vtsch
p712
sI720
Vgift
p713
sI721
V55
p714
sI722
V57
p715
sI723
Vperforming
p716
sI724
V50
p717
sI725
V52
p718
sI726
Vspecific
p719
sI727
Voaxaca
p720
sI728
Vflaps
p721
sI729
Vwebentrepreneurs
p722
sI730
Valgonquian
p723
sI731
Vesrc
p724
sI732
Vportuguese
p725
sI733
Vwww
p726
sI734
Vpostpositions
p727
sI735
Vold
p728
sI736
Vkorea
p729
sI737
Vlectures
p730
sI738
Vlocatives
p731
sI739
Vintern
p732
sI740
Vpenutian
p733
sI741
Vdear
p734
sI742
Vpain
p735
sI743
Vadvertise
p736
sI744
Vmazel
p737
sI745
Vaustronesian
p738
sI746
Vembodied
p739
sI747
Vsociology
p740
sI748
Vhumor
p741
sI749
Vclash
p742
sI750
Vfor
p743
sI751
Vicl
p744
sI752
Vcolloque
p745
sI753
Vschilling
p746
sI754
Vcomments
p747
sI755
V429
p748
sI756
Vtrack
p749
sI757
Vlg
p750
sI758
V421
p751
sI759
V420
p752
sI760
Vchristmas
p753
sI761
Vparticipation
p754
sI762
Vslavic
p755
sI763
Vbold
p756
sI764
Vbaltics
p757
sI765
Vdental
p758
sI766
Vconformation
p759
sI767
Vinnateness
p760
sI768
Vplc
p761
sI769
Vcoswl
p762
sI770
Vsinica
p763
sI771
Vpost
p764
sI772
Vcocosda-97
p765
sI773
Vemail-secrets
p766
sI774
Vnewspapers
p767
sI775
Vmonths
p768
sI776
Vintercultural
p769
sI777
Vo
sI778
Vsycophant
p770
sI779
Vfromkin
p771
sI780
Vpaclic
p772
sI781
Vplus
p773
sI782
Vislands
p774
sI783
Vsept
p775
sI784
Vconsulting
p776
sI785
Vpublishing
p777
sI786
Vshenandoah
p778
sI787
Vamericanist
p779
sI788
Vparsing
p780
sI789
Vdown
p781
sI790
Vfreshman
p782
sI791
Vright
p783
sI792
Vamsterdam
p784
sI793
Vmass
p785
sI794
Vanaphora
p786
sI795
Vtami
p787
sI796
Vaccordo
p788
sI797
Vsupport
p789
sI798
Vinitial
p790
sI799
Vhypermedia
p791
sI800
Vnova
p792
sI801
Vavail
p793
sI802
Vdong
p794
sI803
Vclinical
p795
sI804
Veditor
p796
sI805
Vmusic
p797
sI806
Vwas
p798
sI807
Vlagb
p799
sI808
Vsynthesis
p800
sI809
Vhead
p801
sI810
Vlistserv
p802
sI811
Vfqtfsqvb
p803
sI812
Vform
p804
sI813
Voffer
p805
sI814
Vbecoming
p806
sI815
Vdifferences
p807
sI816
Vforever
p808
sI817
Vspeedracer
p809
sI818
Vfeminine
p810
sI819
Vincorporation
p811
sI820
Vbengali
p812
sI821
Vstand
p813
sI822
Vdoctorants
p814
sI823
V221
p815
sI824
Vweek
p816
sI825
Vdialectology
p817
sI826
Vsilliness
p818
sI827
Vversions
p819
sI828
Vinside
p820
sI829
Veuralex
p821
sI830
Vtrends
p822
sI831
Vtell
p823
sI832
Vretire
p824
sI833
Vmth
p825
sI834
Vcreolistics
p826
sI835
Vmarburg
p827
sI836
V28th
p828
sI837
Vtheorizing
p829
sI838
Vbulgarian
p830
sI839
Vtextbook
p831
sI840
Vphoneme
p832
sI841
Vsaltwater
p833
sI842
Vperez
p834
sI843
Vgenderless
p835
sI844
Vcheck
p836
sI845
Vphysical
p837
sI846
Vtesl
p838
sI847
Vmarking
p839
sI848
Vnl
p840
sI849
Vno
p841
sI850
Vcommercials
p842
sI851
Vwhen
p843
sI852
Vproceedings
p844
sI853
Vreality
p845
sI854
Vgrammatical
p846
sI855
Vinterested
p847
sI856
Vtutorial
p848
sI857
Vholding
p849
sI858
Vpapers
p850
sI859
Vnp
p851
sI860
Vns
p852
sI861
Vlinguistnet
p853
sI862
V's
p854
sI863
Vzu3
p855
sI864
Vmodels
p856
sI865
Vdies
p857
sI866
Vdatabases
p858
sI867
Vupdate
p859
sI868
Vsyldavian
p860
sI869
V'd
p861
sI870
Voncall
p862
sI871
Vreplacement
p863
sI872
Vhittite
p864
sI873
V82936699
p865
sI874
Vmdia
p866
sI875
Vgasla
p867
sI876
Vsacks
p868
sI877
Vmodals
p869
sI878
Vconnecticut
p870
sI879
Vren
p871
sI880
Vfunctionalism
p872
sI881
Vtime
p873
sI882
Vserious
p874
sI883
Vn2
p875
sI884
V376
p876
sI885
Vnewbie
p877
sI886
Vrom
p878
sI887
Vannoncement
p879
sI888
Vreviewers
p880
sI889
Vadjs
p881
sI890
Vpeople
p882
sI891
Vmainz
p883
sI892
Vllt
p884
sI893
Vleads
p885
sI894
Vmanager
p886
sI895
Vkiddin
p887
sI896
V/
sI897
Vcomputation
p888
sI898
Vmorphology
p889
sI899
Vchair
p890
sI900
V93
p891
sI901
V92
p892
sI902
Vdisorders
p893
sI903
Velizabeth
p894
sI904
Vflash
p895
sI905
Veditors
p896
sI906
Vblocking
p897
sI907
V0
sI908
Vfinally
p898
sI909
Vumich
p899
sI910
V810
p900
sI911
Vkolloquium
p901
sI912
Vsouthwest
p902
sI913
Vdivision
p903
sI914
Vmyles
p904
sI915
Vslash
p905
sI916
Vpisin
p906
sI917
Vfrequencies
p907
sI918
Vbilingualism
p908
sI919
Vepia
p909
sI920
Vcook
p910
sI921
Vgenitive
p911
sI922
Vsubcategorization
p912
sI923
Vcool
p913
sI924
Vramstedt
p914
sI925
Vmc
p915
sI926
Vlevel
p916
sI927
Vdid
p917
sI928
V12th
p918
sI929
Vposts
p919
sI930
Vspecials
p920
sI931
Vitem
p921
sI932
V427
p922
sI933
Vespanol
p923
sI934
Vquick
p924
sI935
Vpostdoctoral
p925
sI936
Vdiv
p926
sI937
Vperceptual
p927
sI938
Vhaceks
p928
sI939
Vrevolution
p929
sI940
Vregret
p930
sI941
Vpsycholinguistics
p931
sI942
Vquantifiers
p932
sI943
Vsigh
p933
sI944
Vdiscover
p934
sI945
Vsign
p935
sI946
Vatomism
p936
sI947
Vcontrastive
p937
sI948
Vcurrent
p938
sI949
Vannouncment
p939
sI950
Vhaskins
p940
sI951
Von-glides
p941
sI952
Vprofessur
p942
sI953
Vreply
p943
sI954
Vfalling
p944
sI955
Vappeal
p945
sI956
Vconsolidations
p946
sI957
V1237
p947
sI958
Vwail
p948
sI959
Vmarketing
p949
sI960
Vconcepts
p950
sI961
Vfrench
p951
sI962
Vunderstanding
p952
sI963
Vwater
p953
sI964
Vdrug
p954
sI965
Vlangages
p955
sI966
Vaddress
p956
sI967
Vdandruff
p957
sI968
V[
sI969
Vteacher
p958
sI970
Vchange
p959
sI971
Vtempo-aspettuale
p960
sI972
Vreformatting
p961
sI973
Vref
p962
sI974
Vchomskyan
p963
sI975
Vcanadian
p964
sI976
Vinstitute
p965
sI977
Vdirt
p966
sI978
Vtrial
p967
sI979
Vcomputereinsatz
p968
sI980
Vsimultaneous
p969
sI981
Vfranklin
p970
sI982
Vetymo-dicts
p971
sI983
Vstudies
p972
sI984
Vmontreal
p973
sI985
Vmacintosh
p974
sI986
Vipa
p975
sI987
Vlove
p976
sI988
Vhumour
p977
sI989
Vextra
p978
sI990
Vexpletive
p979
sI991
Vlogical
p980
sI992
Vxenical
p981
sI993
Vprehistory
p982
sI994
V1st
p983
sI995
Vpropositional
p984
sI996
Vmarket
p985
sI997
Varief
p986
sI998
Vwealth
p987
sI999
Vworking
p988
sI1000
Vbrighter
p989
sI1001
V0500
p990
sI1002
Vmsu
p991
sI1003
Vvisit
p992
sI1004
Vfrance
p993
sI1005
Vlive
p994
sI1006
Vteeth
p995
sI1007
Vconservation
p996
sI1008
Vaustralian
p997
sI1009
Vangels
p998
sI1010
Vtheoretical
p999
sI1011
Vdiagrams
p1000
sI1012
V``
p1001
sI1013
Vmarkedness
p1002
sI1014
Vsessions
p1003
sI1015
Vclub
p1004
sI1016
Vneurophysiology
p1005
sI1017
Va-12
p1006
sI1018
Vcurriculum
p1007
sI1019
Vassimilation
p1008
sI1020
V550
p1009
sI1021
Vvisual
p1010
sI1022
Vappel
p1011
sI1023
Vaccept
p1012
sI1024
Vparticipiale
p1013
sI1025
Veffort
p1014
sI1026
Vinsights
p1015
sI1027
Vautumn
p1016
sI1028
Vmigrants
p1017
sI1029
Vcurrency
p1018
sI1030
Vjulius
p1019
sI1031
Vroscoe
p1020
sI1032
Vchomsky
p1021
sI1033
Vmodified
p1022
sI1034
Vreviews
p1023
sI1035
Vnoveau
p1024
sI1036
Vsaussure
p1025
sI1037
Vcan
p1026
sI1038
V9th
p1027
sI1039
Vcal
p1028
sI1040
Vfollowing
p1029
sI1041
Vmaking
p1030
sI1042
Vmodifier
p1031
sI1043
Vroundtable
p1032
sI1044
Vlexicogrammar
p1033
sI1045
Vspy
p1034
sI1046
Vkyo
p1035
sI1047
Vstream
p1036
sI1048
Vdecember
p1037
sI1049
Vagent
p1038
sI1050
Vsample
p1039
sI1051
Vdebt-free
p1040
sI1052
Vrefine
p1041
sI1053
Vnek
p1042
sI1054
Vallowed
p1043
sI1055
Vhappy
p1044
sI1056
Vcounting
p1045
sI1057
Vpaulston
p1046
sI1058
Veuralex96
p1047
sI1059
Vproductive
p1048
sI1060
Vrequirements
p1049
sI1061
Vwinter
p1050
sI1062
Vdiscussion
p1051
sI1063
Vmagazine
p1052
sI1064
V1
sI1065
Vetymological
p1053
sI1066
Vfourth
p1054
sI1067
Voptimal
p1055
sI1068
Vspeaks
p1056
sI1069
Vparameter
p1057
sI1070
Vlehrstuhl
p1058
sI1071
V146
p1059
sI1072
Vmap
p1060
sI1073
Vproduct
p1061
sI1074
Vmar
p1062
sI1075
Vmodal
p1063
sI1076
Vcsl
p1064
sI1077
Vmay
p1065
sI1078
Vmax
p1066
sI1079
Vsouthern
p1067
sI1080
Vapplications
p1068
sI1081
Vmac
p1069
sI1082
V4th
p1070
sI1083
Veverall
p1071
sI1084
Vdate
p1072
sI1085
Vsociolinguistics
p1073
sI1086
Vendgame
p1074
sI1087
Vdata
p1075
sI1088
Vannotation
p1076
sI1089
Vman
p1077
sI1090
Vclassroom
p1078
sI1091
Vstress
p1079
sI1092
Vnatural
p1080
sI1093
Vvarieties
p1081
sI1094
V6th
p1082
sI1095
Veng
p1083
sI1096
Vborrowing
p1084
sI1097
Vst
p1085
sI1098
Vq
sI1099
Vfrancais
p1086
sI1100
Vburmese
p1087
sI1101
Vso
p1088
sI1102
Vkaramojong
p1089
sI1103
Vtalc
p1090
sI1104
Vafrican
p1091
sI1105
Vrepresentation
p1092
sI1106
Vyouthese
p1093
sI1107
Vtaln
p1094
sI1108
Vtalk
p1095
sI1109
Vtwendial
p1096
sI1110
Vcelao
p1097
sI1111
Vtagged
p1098
sI1112
Vestuary
p1099
sI1113
Vusc
p1100
sI1114
Vtts
p1101
sI1115
Vconstituents
p1102
sI1116
Vorthographies
p1103
sI1117
Vkong
p1104
sI1118
Vcourse
p1105
sI1119
Vtagger
p1106
sI1120
Vstatistical
p1107
sI1121
Vpromote
p1108
sI1122
Vronde
p1109
sI1123
Vjie
p1110
sI1124
Vgroup
p1111
sI1125
Vformerly
p1112
sI1126
Vswadesh
p1113
sI1127
Vorganisation
p1114
sI1128
Vamazing
p1115
sI1129
Vattraction
p1116
sI1130
V939
p1117
sI1131
Vlisting
p1118
sI1132
V933
p1119
sI1133
Vmail
p1120
sI1134
Vircs
p1121
sI1135
Vtexas
p1122
sI1136
Vhappened
p1123
sI1137
Vcorrespondence
p1124
sI1138
Vcentenary
p1125
sI1139
Vfinance
p1126
sI1140
Vdisseminate
p1127
sI1141
Vohio-state
p1128
sI1142
Vqs
p1129
sI1143
Vindigenous
p1130
sI1144
Vbisca-98
p1131
sI1145
Vannounced
p1132
sI1146
Vconquer
p1133
sI1147
Vsubscribers
p1134
sI1148
Vhalf
p1135
sI1149
Vnot
p1136
sI1150
Vnov
p1137
sI1151
Vnow
p1138
sI1152
V1958
p1139
sI1153
Vdevelopments
p1140
sI1154
Vgroningen
p1141
sI1155
Vinversion
p1142
sI1156
Vname
p1143
sI1157
Vsophomore
p1144
sI1158
Vpenpals
p1145
sI1159
Vjanuary
p1146
sI1160
V7310
p1147
sI1161
Vrock
p1148
sI1162
Vsmtp
p1149
sI1163
V826
p1150
sI1164
V823
p1151
sI1165
Vel
p1152
sI1166
Vdomain
p1153
sI1167
Ven
p1154
sI1168
Vkruse
p1155
sI1169
Vcyberspace
p1156
sI1170
Vee
p1157
sI1171
Ved
p1158
sI1172
Vrevised
p1159
sI1173
Vea
p1160
sI1174
Vstieber
p1161
sI1175
Vconventions
p1162
sI1176
Vpersian
p1163
sI1177
V1484
p1164
sI1178
Veu
p1165
sI1179
Vet
p1166
sI1180
Vkant
p1167
sI1181
Vceth
p1168
sI1182
Vfu
p1169
sI1183
V797
p1170
sI1184
V793
p1171
sI1185
V792
p1172
sI1186
V3rd
p1173
sI1187
Vspace
p1174
sI1188
Vprofit
p1175
sI1189
Vbls
p1176
sI1190
V798
p1177
sI1191
Vlooking
p1178
sI1192
Vnominal
p1179
sI1193
Vsibilant
p1180
sI1194
Vcom
p1181
sI1195
Vwccfl
p1182
sI1196
Vdutch
p1183
sI1197
Vcorrect
p1184
sI1198
Vtheory
p1185
sI1199
Vplm
p1186
sI1200
V1995
p1187
sI1201
Vqueries
p1188
sI1202
Vdivergence
p1189
sI1203
Vrecordings
p1190
sI1204
Vdependencies
p1191
sI1205
Vcalifornia
p1192
sI1206
Vnmrh
p1193
sI1207
Vorg
p1194
sI1208
Vcreoles
p1195
sI1209
Vshinri
p1196
sI1210
Vcard
p1197
sI1211
Vcare
p1198
sI1212
Vtraining
p1199
sI1213
Vlanguage
p1200
sI1214
Vyup
p1201
sI1215
Vprogramming
p1202
sI1216
Vbritish
p1203
sI1217
Vhypnosis
p1204
sI1218
Vplace
p1205
sI1219
Vinvitation
p1206
sI1220
Vpromotion
p1207
sI1221
Vchildhood
p1208
sI1222
Vsumiko
p1209
sI1223
Vfirst
p1210
sI1224
Vromanic
p1211
sI1225
Vadpositional
p1212
sI1226
V1225
p1213
sI1227
Vxi
p1214
sI1228
V1221
p1215
sI1229
Vroelofs
p1216
sI1230
Vstudentship
p1217
sI1231
Vlegislation
p1218
sI1232
Vwollic
p1219
sI1233
Vsymbolic
p1220
sI1234
Vone
p1221
sI1235
Vlat
p1222
sI1236
Vlong
p1223
sI1237
Vperiodical
p1224
sI1238
Vspanish
p1225
sI1239
Vgenerative
p1226
sI1240
Vsounds
p1227
sI1241
Vmorphosyntax
p1228
sI1242
Vgeorge
p1229
sI1243
Vscatton
p1230
sI1244
Vial
p1231
sI1245
Vjeonju
p1232
sI1246
Vphonetics
p1233
sI1247
Vamlap
p1234
sI1248
Vanderson
p1235
sI1249
Vfm
p1236
sI1250
Vanyone
p1237
sI1251
Vreturns
p1238
sI1252
V2
sI1253
Vdraft
p1239
sI1254
Varticles
p1240
sI1255
Vasllrp
p1241
sI1256
Vlegally
p1242
sI1257
Vstructures
p1243
sI1258
Vspeaking
p1244
sI1259
Vgives
p1245
sI1260
Vexploring
p1246
sI1261
Vwebnet
p1247
sI1262
Vthat
p1248
sI1263
Vrevue
p1249
sI1264
Vmoscow
p1250
sI1265
Vcontinuous
p1251
sI1266
Vspoken
p1252
sI1267
Vtorrego
p1253
sI1268
Varround
p1254
sI1269
Vtuttle
p1255
sI1270
Vkeio
p1256
sI1271
Vthai
p1257
sI1272
Vcopy
p1258
sI1273
Vrepresenting
p1259
sI1274
Vthan
p1260
sI1275
Vsemantics
p1261
sI1276
Vmetalangage
p1262
sI1277
V11
p1263
sI1278
Vwide
p1264
sI1279
V13
p1265
sI1280
V12
p1266
sI1281
V15
p1267
sI1282
V14
p1268
sI1283
V16
p1269
sI1284
V19
p1270
sI1285
Vfuture
p1271
sI1286
Vcards
p1272
sI1287
Vproofread
p1273
sI1288
Vbrowser
p1274
sI1289
Vand
p1275
sI1290
Vsao
p1276
sI1291
Vsan
p1277
sI1292
Vbolognesi
p1278
sI1293
Vsac
p1279
sI1294
Vtopics
p1280
sI1295
Vargument
p1281
sI1296
Vvoices
p1282
sI1297
V13th
p1283
sI1298
Vanu
p1284
sI1299
Vrecursos
p1285
sI1300
Vallen
p1286
sI1301
Vmodality
p1287
sI1302
Vicoll
p1288
sI1303
Vcomputationally
p1289
sI1304
Voffering
p1290
sI1305
Vchangpei
p1291
sI1306
Vtranscription
p1292
sI1307
Vforeigner
p1293
sI1308
Vconsortium
p1294
sI1309
Vsemcom
p1295
sI1310
Vsciences
p1296
sI1311
Videal
p1297
sI1312
Vtake
p1298
sI1313
Vonline
p1299
sI1314
Vperformance
p1300
sI1315
Vverb-particles
p1301
sI1316
Vimpairment
p1302
sI1317
Vswitching
p1303
sI1318
Vultimate
p1304
sI1319
Vinstanly
p1305
sI1320
V200
p1306
sI1321
Vimperatives
p1307
sI1322
Vmultiple
p1308
sI1323
Vsyllable
p1309
sI1324
Vkeeps
p1310
sI1325
Vpaid
p1311
sI1326
Vbeta
p1312
sI1327
Vtract
p1313
sI1328
Vremarks
p1314
sI1329
Vevaluator
p1315
sI1330
Vamerica
p1316
sI1331
V]
sI1332
Vlatex
p1317
sI1333
Vecai
p1318
sI1334
Vsalk
p1319
sI1335
Vrefunds
p1320
sI1336
V31st
p1321
sI1337
Vautosegmental
p1322
sI1338
Vsale
p1323
sI1339
Vprofessional
p1324
sI1340
Vsalt
p1325
sI1341
Vfiling
p1326
sI1342
Vlipolalia
p1327
sI1343
Vgrepping
p1328
sI1344
Vnlp
p1329
sI1345
Vshor
p1330
sI1346
Vlexicon
p1331
sI1347
Vgerman
p1332
sI1348
Vantipassive
p1333
sI1349
Vworkshops
p1334
sI1350
Vperce
p1335
sI1351
Vcontemporary
p1336
sI1352
Vrussian
p1337
sI1353
Vcomputationally-intensive
p1338
sI1354
Vnlg
p1339
sI1355
Vxxvii
p1340
sI1356
Vfifth
p1341
sI1357
Vground
p1342
sI1358
V2525
p1343
sI1359
Vboundaries
p1344
sI1360
Vslow
p1345
sI1361
Vfhcg-98
p1346
sI1362
Vtitle
p1347
sI1363
Vromanian
p1348
sI1364
Vdick
p1349
sI1365
Vwritten
p1350
sI1366
Vanalytic
p1351
sI1367
Vonly
p1352
sI1368
Vgoing
p1353
sI1369
Vblack
p1354
sI1370
Vheinrich
p1355
sI1371
Vcarolina
p1356
sI1372
Vinformatique
p1357
sI1373
Vviva
p1358
sI1374
Vhungarian
p1359
sI1375
Vget
p1360
sI1376
Vassistant
p1361
sI1377
Vmorphological
p1362
sI1378
Vrmmla
p1363
sI1379
Vlagerwerf
p1364
sI1380
Vcgsw
p1365
sI1381
Vnels
p1366
sI1382
Vconjunction
p1367
sI1383
Vmanuscripts
p1368
sI1384
Vssc
p1369
sI1385
Vnystesol
p1370
sI1386
Vclosure
p1371
sI1387
Vregarding
p1372
sI1388
Vresource
p1373
sI1389
Vxxxnet
p1374
sI1390
Vmorphophonemics
p1375
sI1391
Vsummary
p1376
sI1392
Voverworked
p1377
sI1393
Vjokes
p1378
sI1394
Vresourcs
p1379
sI1395
Vleur
p1380
sI1396
Vesslli98
p1381
sI1397
Vscott
p1382
sI1398
V923
p1383
sI1399
V4971
p1384
sI1400
Vlearn
p1385
sI1401
Vcapitalfm
p1386
sI1402
Vfellowships
p1387
sI1403
Vlangacker
p1388
sI1404
Vrelative
p1389
sI1405
Vcollege
p1390
sI1406
Vexistence
p1391
sI1407
Vmitxelena
p1392
sI1408
Vsurgery
p1393
sI1409
Vpostdoc
p1394
sI1410
Vunderpaid
p1395
sI1411
Veuropeans
p1396
sI1412
Visraeli
p1397
sI1413
Vresults
p1398
sI1414
V836
p1399
sI1415
Vcompounds
p1400
sI1416
Vmanaging
p1401
sI1417
Vharvey
p1402
sI1418
Vreview
p1403
sI1419
Vlexical
p1404
sI1420
Vsites
p1405
sI1421
Vmaterials
p1406
sI1422
Vhist
p1407
sI1423
V3
sI1424
Vbetween
p1408
sI1425
Vmandarin
p1409
sI1426
Vreading
p1410
sI1427
Vacross
p1411
sI1428
V3cde
p1412
sI1429
Vaffordable
p1413
sI1430
Vnotice
p1414
sI1431
Vjobs
p1415
sI1432
Vaugust
p1416
sI1433
Vcomp
p1417
sI1434
Vtut
p1418
sI1435
Vcheap
p1419
sI1436
Vrevealed
p1420
sI1437
Vawards
p1421
sI1438
Varmenian
p1422
sI1439
Vjk
p1423
sI1440
Vje
p1424
sI1441
Vcome
p1425
sI1442
Vtue
p1426
sI1443
Vcoupons
p1427
sI1444
Vdates
p1428
sI1445
Vacquiring
p1429
sI1446
V22
p1430
sI1447
V783
p1431
sI1448
Vintonational
p1432
sI1449
Vrhodes
p1433
sI1450
Vcars
p1434
sI1451
Vdeduction
p1435
sI1452
Vs
sI1453
Vdated
p1436
sI1454
Vprecoling
p1437
sI1455
Vsemitic
p1438
sI1456
Vathapaskan
p1439
sI1457
Viascl
p1440
sI1458
Vpilsudski
p1441
sI1459
Vfiltering
p1442
sI1460
Vdiachronic
p1443
sI1461
Voverview
p1444
sI1462
Vdislocations
p1445
sI1463
V60
p1446
sI1464
Vclite1
p1447
sI1465
Vgrants
p1448
sI1466
Vclaw98
p1449
sI1467
Vassertions
p1450
sI1468
Vlearning
p1451
sI1469
Varticle
p1452
sI1470
V68
p1453
sI1471
Vboas
p1454
sI1472
Vadults
p1455
sI1473
Vsave
p1456
sI1474
Vhattori
p1457
sI1475
Vwest
p1458
sI1476
Vcomputing
p1459
sI1477
Vucla
p1460
sI1478
Vevolutionary
p1461
sI1479
Vworkshop
p1462
sI1480
Vjudging
p1463
sI1481
Vlinguistic
p1464
sI1482
V111000
p1465
sI1483
V500
p1466
sI1484
V501
p1467
sI1485
Vshopping
p1468
sI1486
Vwebpage
p1469
sI1487
Velvis
p1470
sI1488
Vcausatives
p1471
sI1489
Vchao
p1472
sI1490
Vclassicalphilology
p1473
sI1491
Voptimality
p1474
sI1492
Vcascadilla
p1475
sI1493
Vinstant
p1476
sI1494
Vhardcore
p1477
sI1495
Vscobbie
p1478
sI1496
Vrealities
p1479
sI1497
Vthose
p1480
sI1498
V^
sI1499
Vcase
p1481
sI1500
Vprocesses
p1482
sI1501
Vthese
p1483
sI1502
Vconsultant
p1484
sI1503
Vsingle
p1485
sI1504
Vrhymes
p1486
sI1505
Vn't
p1487
sI1506
V1107
p1488
sI1507
Vwarning
p1489
sI1508
V1100
p1490
sI1509
Vmany
p1491
sI1510
Vsituation
p1492
sI1511
Vconstituency
p1493
sI1512
V408
p1494
sI1513
V1459
p1495
sI1514
V1108
p1496
sI1515
Vpolgardi
p1497
sI1516
Vconferences
p1498
sI1517
Vmandeville
p1499
sI1518
Vtelephone
p1500
sI1519
Vsleeping
p1501
sI1520
Vials
p1502
sI1521
Vbias
p1503
sI1522
Vlasso-27
p1504
sI1523
Vbeaver
p1505
sI1524
Vtechnology
p1506
sI1525
Vwordnet
p1507
sI1526
Vsummerschool
p1508
sI1527
Vbinary
p1509
sI1528
Vdifferent
p1510
sI1529
V381
p1511
sI1530
Vpullum
p1512
sI1531
Vapril
p1513
sI1532
Vmedia
p1514
sI1533
Vdeseret
p1515
sI1534
Vsame
p1516
sI1535
Vrochebrune
p1517
sI1536
Vconsumer
p1518
sI1537
Vwilhelm
p1519
sI1538
Vspeech
p1520
sI1539
Vreminder
p1521
sI1540
Vdocument
p1522
sI1541
Vevents
p1523
sI1542
Vstatus
p1524
sI1543
Vextended
p1525
sI1544
Vsingapore
p1526
sI1545
Vdrives
p1527
sI1546
Vdriven
p1528
sI1547
Vpersons
p1529
sI1548
Vharris
p1530
sI1549
Vvowel
p1531
sI1550
V%
sI1551
Vccall
p1532
sI1552
Vmohawk
p1533
sI1553
Vcoling
p1534
sI1554
Vshared
p1535
sI1555
Vmacro
p1536
sI1556
Vmelcuk
p1537
sI1557
V32nd
p1538
sI1558
Vccs
p1539
sI1559
Vinvites
p1540
sI1560
Vwithout
p1541
sI1561
Vvery
p1542
sI1562
Vgenie
p1543
sI1563
Vlaboratories
p1544
sI1564
Vsummer
p1545
sI1565
Vnoam
p1546
sI1566
Vphoentics
p1547
sI1567
Vmo2
p1548
sI1568
Vvaluable
p1549
sI1569
Vinofficial
p1550
sI1570
Vgreetings
p1551
sI1571
Vaspect
p1552
sI1572
Vpolish
p1553
sI1573
Vspeed
p1554
sI1574
Vpassives
p1555
sI1575
Vcn
p1556
sI1576
Vannouncement
p1557
sI1577
Vdoctoral
p1558
sI1578
Vfeminist
p1559
sI1579
Vthinking
p1560
sI1580
V4
sI1581
Vsamples
p1561
sI1582
Vstruck
p1562
sI1583
Vross
p1563
sI1584
Vstyles
p1564
sI1585
Vpredication
p1565
sI1586
Vaspects
p1566
sI1587
Vstudentships
p1567
sI1588
Vesslli-99
p1568
sI1589
Vesslli-98
p1569
sI1590
Vrules
p1570
sI1591
Vrepetitions
p1571
sI1592
Vearly
p1572
sI1593
Vdepartment
p1573
sI1594
Vsumm
p1574
sI1595
Vmoo
p1575
sI1596
Vmon
p1576
sI1597
Vdirectieven
p1577
sI1598
Vsymbolism
p1578
sI1599
Vusing
p1579
sI1600
Vaccepted
p1580
sI1601
Vparticle
p1581
sI1602
Videntifying
p1582
sI1603
Vcollective
p1583
sI1604
Vpreference
p1584
sI1605
Vserver
p1585
sI1606
Vt
sI1607
Vclaw
p1586
sI1608
Vdets
p1587
sI1609
Vclasses
p1588
sI1610
Vwalloon
p1589
sI1611
Vmulder
p1590
sI1612
Vverbal
p1591
sI1613
Vlecturership
p1592
sI1614
Vconditional
p1593
sI1615
Vcompetition
p1594
sI1616
Vchonju
p1595
sI1617
Vanglicization
p1596
sI1618
V7979
p1597
sI1619
Vkings
p1598
sI1620
Vadjuncts
p1599
sI1621
Vcomposers
p1600
sI1622
Vouts
p1601
sI1623
Vmood
p1602
sI1624
Vmicro
p1603
sI1625
Vsudan
p1604
sI1626
Vvariationist
p1605
sI1627
Vlegal
p1606
sI1628
Vcritical
p1607
sI1629
V917
p1608
sI1630
Vcompulsion
p1609
sI1631
Vaccessing
p1610
sI1632
Vluuk
p1611
sI1633
Vund
p1612
sI1634
Vpower
p1613
sI1635
Vquit
p1614
sI1636
Vinternship
p1615
sI1637
Vsixth
p1616
sI1638
Vsymp
p1617
sI1639
Vacoustic
p1618
sI1640
Vthailand
p1619
sI1641
Vafrikaans
p1620
sI1642
Vtesol
p1621
sI1643
V_
sI1644
Vcomplementation
p1622
sI1645
Von
p1623
sI1646
Vy2k
p1624
sI1647
Vcentral
p1625
sI1648
V841
p1626
sI1649
Vof
p1627
sI1650
Vsri
p1628
sI1651
Vchiphon
p1629
sI1652
Vacm
p1630
sI1653
Vacl
p1631
sI1654
Vacq
p1632
sI1655
Vvedder
p1633
sI1656
Vairline
p1634
sI1657
Vmixed
p1635
sI1658
Vov
p1636
sI1659
Vskytop
p1637
sI1660
Vot
p1638
sI1661
Vor
p1639
sI1662
Vmetaphors
p1640
sI1663
Vop
p1641
sI1664
Vvi
p1642
sI1665
Vporsche
p1643
sI1666
Vcommunication
p1644
sI1667
Vstromswold
p1645
sI1668
Vvacation
p1646
sI1669
Vreferences
p1647
sI1670
Vparties
p1648
sI1671
Voperator
p1649
sI1672
Vfinancial
p1650
sI1673
Vtip
p1651
sI1674
Vyour
p1652
sI1675
Vempathetic
p1653
sI1676
Vlogics
p1654
sI1677
Vforwarded
p1655
sI1678
Vher
p1656
sI1679
Vthere
p1657
sI1680
Vician
p1658
sI1681
Vshanghaihua
p1659
sI1682
Vstealth
p1660
sI1683
Vitalia
p1661
sI1684
Vlow
p1662
sI1685
Vbrazilian
p1663
sI1686
Vpoliteness
p1664
sI1687
Vcultures
p1665
sI1688
Vysuolvpv
p1666
sI1689
Viambic
p1667
sI1690
Vcomplete
p1668
sI1691
Vspider
p1669
sI1692
Vlaine
p1670
sI1693
Velimination
p1671
sI1694
Vtechnologies
p1672
sI1695
Vsposs
p1673
sI1696
Vwith
p1674
sI1697
Vhottest
p1675
sI1698
Vwholes
p1676
sI1699
Vfaster
p1677
sI1700
Vembedded
p1678
sI1701
Vlexicographers
p1679
sI1702
Vwholesale
p1680
sI1703
Vlanguaes
p1681
sI1704
Vreduplicative
p1682
sI1705
Vinternationale
p1683
sI1706
Vpolitically
p1684
sI1707
Vcategorial
p1685
sI1708
V396
p1686
sI1709
Vbaal
p1687
sI1710
V1208
p1688
sI1711
Vvideos
p1689
sI1712
Vbarthel
p1690
sI1713
Vmispased
p1691
sI1714
Vpseudo
p1692
sI1715
Vaccents
p1693
sI1716
Vcitation
p1694
sI1717
Vdhumbadji
p1695
sI1718
Vfellow
p1696
sI1719
Vrapide
p1697
sI1720
Vas
p1698
sI1721
Vintro
p1699
sI1722
Vat
p1700
sI1723
Vfollow-up
p1701
sI1724
Vay
p1702
sI1725
Vmoves
p1703
sI1726
Vtechnicia
p1704
sI1727
Vleroux
p1705
sI1728
Vfilm
p1706
sI1729
Vice
p1707
sI1730
Vagain
p1708
sI1731
Vgenres
p1709
sI1732
Vheather
p1710
sI1733
Vjengl
p1711
sI1734
Vdeserve
p1712
sI1735
Vstorage
p1713
sI1736
Vgraduate
p1714
sI1737
Vigg
p1715
sI1738
Vfield
p1716
sI1739
V1113
p1717
sI1740
V5
sI1741
Vtmi95
p1718
sI1742
Vspatial
p1719
sI1743
V1119
p1720
sI1744
Vannouncements
p1721
sI1745
Vyou
p1722
sI1746
V1448
p1723
sI1747
Vopacity
p1724
sI1748
Vrequested
p1725
sI1749
Veurope
p1726
sI1750
Vcongress
p1727
sI1751
Vuncollected
p1728
sI1752
Vstudents
p1729
sI1753
Vlexicographer
p1730
sI1754
Vberman
p1731
sI1755
Vslant
p1732
sI1756
Vimportant
p1733
sI1757
Vfresh
p1734
sI1758
Vqueensland
p1735
sI1759
Vcongreso
p1736
sI1760
Vstocks
p1737
sI1761
Vslang
p1738
sI1762
Vbuilding
p1739
sI1763
Vthematic
p1740
sI1764
Vremote
p1741
sI1765
Vpre-final
p1742
sI1766
Vcalls
p1743
sI1767
Vhaving
p1744
sI1768
Vlacl98
p1745
sI1769
Vu
sI1770
Vbehavioral
p1746
sI1771
Vdirectory
p1747
sI1772
Vcontext-99
p1748
sI1773
Vresolution
p1749
sI1774
Voriginal
p1750
sI1775
Vlangues
p1751
sI1776
Vdemo
p1752
sI1777
Vgalicismos
p1753
sI1778
Vall
p1754
sI1779
Vsemantic
p1755
sI1780
Vforget
p1756
sI1781
Vchinese
p1757
sI1782
Venterprizes
p1758
sI1783
Vlacl
p1759
sI1784
Vseals
p1760
sI1785
Vdisc
p1761
sI1786
Vdeadline
p1762
sI1787
Vsensei
p1763
sI1788
Valt
p1764
sI1789
Vdeixis
p1765
sI1790
Vchildren
p1766
sI1791
Vsynthetic
p1767
sI1792
Vequipment
p1768
sI1793
Vausterlitz
p1769
sI1794
Vdescrambler
p1770
sI1795
Vtx
p1771
sI1796
Vre
p1772
sI1797
Vtv
p1773
sI1798
V60852
p1774
sI1799
Vts
p1775
sI1800
Vopportunities
p1776
sI1801
Vpreprint
p1777
sI1802
Vto
p1778
sI1803
Vhwaet
p1779
sI1804
Vprogram
p1780
sI1805
Vwml
p1781
sI1806
Vilsl
p1782
sI1807
Vta
p1783
sI1808
Vweeks
p1784
sI1809
Vactivities
p1785
sI1810
Vkhmer
p1786
sI1811
Vesther
p1787
sI1812
Vpremium
p1788
sI1813
Vjensen
p1789
sI1814
Vconfidential
p1790
sI1815
Vvoicing
p1791
sI1816
Vtranslations
p1792
sI1817
Vfat
p1793
sI1818
Vfocus
p1794
sI1819
Vverb
p1795
sI1820
Vinterpreting
p1796
sI1821
Vfall
p1797
sI1822
Vlaser
p1798
sI1823
V24th
p1799
sI1824
Vbubbler
p1800
sI1825
V`
sI1826
Vpre
p1801
sI1827
Vlinguists
p1802
sI1828
Vcable
p1803
sI1829
Vlisp
p1804
sI1830
Vwsh
p1805
sI1831
Vlist
p1806
sI1832
Vphonology
p1807
sI1833
Vautoantonyms
p1808
sI1834
Vsmall
p1809
sI1835
Vstudy
p1810
sI1836
Vprogramme
p1811
sI1837
Vtei
p1812
sI1838
V199
p1813
sI1839
Vickl
p1814
sI1840
Vunpublished
p1815
sI1841
Vgrasshopper
p1816
sI1842
V191
p1817
sI1843
V192
p1818
sI1844
Vtex
p1819
sI1845
Vrate
p1820
sI1846
Vtitles
p1821
sI1847
Vdesign
p1822
sI1848
Vperspective
p1823
sI1849
Vpass
p1824
sI1850
Vlink
p1825
sI1851
Vausschreibung
p1826
sI1852
Vter
p1827
sI1853
Vsituated
p1828
sI1854
Vdissertation
p1829
sI1855
Vwhat
p1830
sI1856
Vsuo
p1831
sI1857
Vdisintegration
p1832
sI1858
Vsum
p1833
sI1859
Vassociate
p1834
sI1860
Vlearner
p1835
sI1861
V165505
p1836
sI1862
Vpublic
p1837
sI1863
Vversion
p1838
sI1864
Vnonreferential
p1839
sI1865
Vsur
p1840
sI1866
Vcase-marked
p1841
sI1867
Vacknowledgments
p1842
sI1868
Vmovement
p1843
sI1869
Vasiatic
p1844
sI1870
V104554
p1845
sI1871
Vpolicies
p1846
sI1872
Vtags
p1847
sI1873
Vma
p1848
sI1874
Vempower
p1849
sI1875
V1101
p1850
sI1876
Vanswers
p1851
sI1877
Vleeds
p1852
sI1878
Vandrews
p1853
sI1879
Vberkeley
p1854
sI1880
Vlegend
p1855
sI1881
Vpublisher
p1856
sI1882
Vsearch
p1857
sI1883
Vbible
p1858
sI1884
Vmeulen
p1859
sI1885
Vfwd
p1860
sI1886
Vvietnamese
p1861
sI1887
Vexperience
p1862
sI1888
Ve-texts
p1863
sI1889
Vadjectives
p1864
sI1890
Vatelier
p1865
sI1891
Vbreakdown
p1866
sI1892
Vcssp97
p1867
sI1893
Vperso
p1868
sI1894
Vsocial
p1869
sI1895
Vaction
p1870
sI1896
Vluck
p1871
sI1897
Varmey
p1872
sI1898
Vfamily
p1873
sI1899
Vphonemicity
p1874
sI1900
Vvii
p1875
sI1901
Vafrica
p1876
sI1902
Vcosmetic
p1877
sI1903
Vtexts
p1878
sI1904
Vvip
p1879
sI1905
Varbeitstagung
p1880
sI1906
Vnyankore
p1881
sI1907
Vvd
p1882
sI1908
Vmistress
p1883
sI1909
Vintensive
p1884
sI1910
Veye
p1885
sI1911
Vtwd
p1886
sI1912
Varcling
p1887
sI1913
Vtwo
p1888
sI1914
V6
sI1915
Vamta-98
p1889
sI1916
Vgoettingen
p1890
sI1917
Vmore
p1891
sI1918
Vteen
p1892
sI1919
Visrael
p1893
sI1920
Vscotia
p1894
sI1921
Vinfoseek
p1895
sI1922
Vimmersion
p1896
sI1923
Vcompany
p1897
sI1924
Vcorrected
p1898
sI1925
Vsite
p1899
sI1926
Vvp
p1900
sI1927
Vworldwide
p1901
sI1928
Vscience
p1902
sI1929
Vder
p1903
sI1930
Vdes
p1904
sI1931
Vsyntaxis
p1905
sI1932
Vdev
p1906
sI1933
Vsent
p1907
sI1934
Vden
p1908
sI1935
Vv
sI1936
Vstrategies
p1909
sI1937
Vdec
p1910
sI1938
Vspontaneous
p1911
sI1939
Vmalc
p1912
sI1940
Vhistory
p1913
sI1941
Vcomputers
p1914
sI1942
Vshare
p1915
sI1943
Vpro
p1916
sI1944
Vstates
p1917
sI1945
Vicgi-98
p1918
sI1946
Vjornadas
p1919
sI1947
Vaffricates
p1920
sI1948
Vnumbers
p1921
sI1949
Vsense
p1922
sI1950
Vphrase
p1923
sI1951
Vspecies
p1924
sI1952
Vbiography
p1925
sI1953
V!
sI1954
Vinformation
p1926
sI1955
Vneeds
p1927
sI1956
V1053
p1928
sI1957
Vprocessors
p1929
sI1958
V1059
p1930
sI1959
Vacts
p1931
sI1960
Vnwav
p1932
sI1961
Vmaps
p1933
sI1962
Vearnings
p1934
sI1963
Vlancker
p1935
sI1964
Vtanlps
p1936
sI1965
Vweisgerber
p1937
sI1966
V410-4332
p1938
sI1967
Vft
p1939
sI1968
Vseoul
p1940
sI1969
Vadvice
p1941
sI1970
Vderived
p1942
sI1971
V1276
p1943
sI1972
Vcatalog
p1944
sI1973
Vassemblers
p1945
sI1974
Valster
p1946
sI1975
Vfi
p1947
sI1976
Vlanka
p1948
sI1977
Vresponse
p1949
sI1978
Va
sI1979
Vfeminine-he
p1950
sI1980
Vrandomised
p1951
sI1981
Vregister
p1952
sI1982
Vovernight
p1953
sI1983
Vdragon
p1954
sI1984
V1470
p1955
sI1985
Vfundamental
p1956
sI1986
Vpay
p1957
sI1987
Vxxx
p1958
sI1988
Vdream
p1959
sI1989
Vretrieval
p1960
sI1990
V1304
p1961
sI1991
V1305
p1962
sI1992
Vhelp
p1963
sI1993
V77273
p1964
sI1994
Vseptember
p1965
sI1995
Vtaxonomy
p1966
sI1996
Vhypertext
p1967
sI1997
Vattitude
p1968
sI1998
Vpaper
p1969
sI1999
Vthrough
p1970
sI2000
Vsigns
p1971
sI2001
Vurdu
p1972
sI2002
Vmilwaukee
p1973
sI2003
Vwayana
p1974
sI2004
Vits
p1975
sI2005
Vdeveloper
p1976
sI2006
V50000
p1977
sI2007
V26
p1978
sI2008
V27
p1979
sI2009
V20
p1980
sI2010
V21
p1981
sI2011
Varian
p1982
sI2012
V23
p1983
sI2013
Vonsets
p1984
sI2014
Vcalsvxtn
p1985
sI2015
V28
p1986
sI2016
V29
p1987
sI2017
Vchangement
p1988
sI2018
Vfilip
p1989
sI2019
Vparts
p1990
sI2020
Vargentino
p1991
sI2021
Vsystems
p1992
sI2022
Vannual
p1993
sI2023
Vpenn
p1994
sI2024
Vdocdes98
p1995
sI2025
Vince
p1996
sI2026
V1f81
p1997
sI2027
Vgood
p1998
sI2028
Vreturn
p1999
sI2029
Vseeking
p2000
sI2030
V12828
p2001
sI2031
Vaphasia
p2002
sI2032
Vparty
p2003
sI2033
Voxford
p2004
sI2034
Vlifeplan
p2005
sI2035
Vyu
p2006
sI2036
Vassociation
p2007
sI2037
Vmoncton
p2008
sI2038
Vproducts
p2009
sI2039
Vdecimal
p2010
sI2040
Vphilology
p2011
sI2041
Vcourses
p2012
sI2042
Vcute
p2013
sI2043
Vpositions
p2014
sI2044
Vcgsw10
p2015
sI2045
Vshocking
p2016
sI2046
Vcahiers
p2017
sI2047
Vgrounding-representations
p2018
sI2048
Vheavy
p2019
sI2049
Vreactions
p2020
sI2050
Vmental
p2021
sI2051
Vweight
p2022
sI2052
Vgeneration
p2023
sI2053
Vproposals
p2024
sI2054
Vhard
p2025
sI2055
Videa
p2026
sI2056
Vcancels
p2027
sI2057
Vmeasurement
p2028
sI2058
Vbeyond
p2029
sI2059
Vwkshp
p2030
sI2060
Vevent
p2031
sI2061
Vreally
p2032
sI2062
Vernie
p2033
sI2063
Vp
sI2064
Vhilp
p2034
sI2065
Vrobert
p2035
sI2066
Viulc
p2036
sI2067
Vresearch
p2037
sI2068
Vparticipants
p2038
sI2069
Vhealth
p2039
sI2070
V7
sI2071
Vlexicography
p2040
sI2072
Vprint
p2041
sI2073
Vcompounding
p2042
sI2074
Vevaluation
p2043
sI2075
Vaborigen
p2044
sI2076
Vwisconsin
p2045
sI2077
Vbelief
p2046
sI2078
Vsemiotic
p2047
sI2079
Vdressler
p2048
sI2080
Vyale
p2049
sI2081
V0100
p2050
sI2082
Vadvertsing
p2051
sI2083
Vbase
p2052
sI2084
Vgiveaway
p2053
sI2085
Vask
p2054
sI2086
Vteach
p2055
sI2087
Vautomation
p2056
sI2088
Vbeginning
p2057
sI2089
Vasl
p2058
sI2090
Vdirector
p2059
sI2091
Vfeb
p2060
sI2092
Vbenefits
p2061
sI2093
Veventuality
p2062
sI2094
Vbulletproof
p2063
sI2095
Vjust
p2064
sI2096
Vfinland
p2065
sI2097
Vtocharian
p2066
sI2098
Vlingual
p2067
sI2099
Vamericas
p2068
sI2100
Vamerican
p2069
sI2101
Vcomputerm
p2070
sI2102
Vw
sI2103
Vshibilant
p2071
sI2104
Vshareware
p2072
sI2105
Vmajor
p2073
sI2106
Vprobus
p2074
sI2107
Vsimply
p2075
sI2108
Vgirls
p2076
sI2109
Vcelex
p2077
sI2110
Vmisc
p2078
sI2111
Vnumber
p2079
sI2112
Vfancy
p2080
sI2113
Vtimroth
p2081
sI2114
Vcsdl
p2082
sI2115
V600
p2083
sI2116
Vest-ce
p2084
sI2117
Vmiss
p2085
sI2118
Vinvariance
p2086
sI2119
Vguess
p2087
sI2120
Vheads
p2088
sI2121
Vtok
p2089
sI2122
Vintroduction
p2090
sI2123
V5th
p2091
sI2124
Vnomo
p2092
sI2125
Vobligatory
p2093
sI2126
Vtwente
p2094
sI2127
V185
p2095
sI2128
Vrates
p2096
sI2129
V189
p2097
sI2130
Vtoo
p2098
sI2131
Vsumary
p2099
sI2132
Voption
p2100
sI2133
Vpara
p2101
sI2134
Vhotel
p2102
sI2135
Vceltic
p2103
sI2136
Visolating
p2104
sI2137
Vpart
p2105
sI2138
Vnotification
p2106
sI2139
Vnorms
p2107
sI2140
Vprodigious
p2108
sI2141
Vtranslation
p2109
sI2142
Vgrace
p2110
sI2143
Vexplodes
p2111
sI2144
Vcenter
p2112
sI2145
Vking
p2113
sI2146
Vkind
p2114
sI2147
Vb
sI2148
Vaaa
p2115
sI2149
Vhomophones
p2116
sI2150
Viranian
p2117
sI2151
Vdouble
p2118
sI2152
Vinstruction
p2119
sI2153
Vdans
p2120
sI2154
Vvocal
p2121
sI2155
Vscandinavian
p2122
sI2156
Vyouth
p2123
sI2157
Vaiml
p2124
sI2158
Vpamela
p2125
sI2159
Vmarriage
p2126
sI2160
Vmetathesis
p2127
sI2161
Viceis
p2128
sI2162
Vepicenes
p2129
sI2163
Vtongues
p2130
sI2164
V882
p2131
sI2165
Vinsertion
p2132
sI2166
Vstorytelling
p2133
sI2167
Vmicrosynergy
p2134
sI2168
Vfootnote
p2135
sI2169
Vromatzyh
p2136
sI2170
Vphilippine
p2137
sI2171
Vaffirmative
p2138
sI2172
Vselling
p2139
sI2173
Vgala
p2140
sI2174
Vsentences
p2141
sI2175
Vgwoyeu
p2142
sI2176
Veureka
p2143
sI2177
Vconstructions
p2144
sI2178
Vrelationship
p2145
sI2179
Vtrip
p2146
sI2180
Vdiscounts
p2147
sI2181
Vexposedwhat
p2148
sI2182
Vlit
p2149
sI2183
Vsteal
p2150
sI2184
Vefl
p2151
sI2185
Vbuild
p2152
sI2186
Vanalogy
p2153
sI2187
Vorton
p2154
sI2188
Vfinding
p2155
sI2189
V775
p2156
sI2190
V774
p2157
sI2191
Vtowards
p2158
sI2192
Velectric
p2159
sI2193
Vquote
p2160
sI2194
Vmultilingual
p2161
sI2195
Vquota
p2162
sI2196
V7100
p2163
sI2197
Vmost
p2164
sI2198
Vvirus
p2165
sI2199
Vassoc
p2166
sI2200
Vplan
p2167
sI2201
Vwatt
p2168
sI2202
Vseasons
p2169
sI2203
Vkay
p2170
sI2204
Vprobabilistic
p2171
sI2205
Vapproved
p2172
sI2206
V1043
p2173
sI2207
Vwaengler
p2174
sI2208
V1047
p2175
sI2209
V1044
p2176
sI2210
Vwindows
p2177
sI2211
V1049
p2178
sI2212
Vkr
p2179
sI2213
Vzhou1
p2180
sI2214
Voptical
p2181
sI2215
Vdata-sources
p2182
sI2216
Vclean
p2183
sI2217
Vapres
p2184
sI2218
Vphysics
p2185
sI2219
Vmicrosoft
p2186
sI2220
Vchairwoman
p2187
sI2221
Vthomas
p2188
sI2222
Vgold
p2189
sI2223
V217
p2190
sI2224
V25-27
p2191
sI2225
V664
p2192
sI2226
Vaccommodations
p2193
sI2227
V1265
p2194
sI2228
Vsession
p2195
sI2229
Valert
p2196
sI2230
Vacceptability
p2197
sI2231
Vcarefully
p2198
sI2232
Vjireem
p2199
sI2233
Vfont
p2200
sI2234
Vfind
p2201
sI2235
Vuniversitaet
p2202
sI2236
Vimpact
p2203
sI2237
V524
p2204
sI2238
Viaupe
p2205
sI2239
Vnorthern
p2206
sI2240
Vbilingual
p2207
sI2241
Vjustice
p2208
sI2242
Vkroch
p2209
sI2243
Vcolloq
p2210
sI2244
Vviagra
p2211
sI2245
Vquer
p2212
sI2246
V1468
p2213
sI2247
Vmoney
p2214
sI2248
V8
sI2249
Vcircle
p2215
sI2250
Vinsurance
p2216
sI2251
Viee
p2217
sI2252
V1462
p2218
sI2253
Vhis
p2219
sI2254
Vdependent
p2220
sI2255
Vecdl98
p2221
sI2256
Vbanned
p2222
sI2257
Vcapital
p2223
sI2258
Vinformants
p2224
sI2259
Vfamous
p2225
sI2260
Vshow-ers
p2226
sI2261
Vecai-98
p2227
sI2262
Vsapir
p2228
sI2263
Vadcs
p2229
sI2264
Vinternational
p2230
sI2265
Vduring
p2231
sI2266
Vhil
p2232
sI2267
Vtypos
p2233
sI2268
Vprogressive
p2234
sI2269
Vmetaling
p2235
sI2270
Viccs-95
p2236
sI2271
Vmillenium
p2237
sI2272
Vinvestigate
p2238
sI2273
Vwhitening
p2239
sI2274
Vcommon
p2240
sI2275
Vrecommendations
p2241
sI2276
Vx
sI2277
Vrestaurants
p2242
sI2278
Vset
p2243
sI2279
Vn-ary
p2244
sI2280
Vintelligence
p2245
sI2281
Vprague
p2246
sI2282
Vbiannual
p2247
sI2283
Vsex
p2248
sI2284
Vculture
p2249
sI2285
Vgeoff
p2250
sI2286
Vsed
p2251
sI2287
Vsec
p2252
sI2288
Vare
p2253
sI2289
Vsea
p2254
sI2290
Vthayer
p2255
sI2291
Vsem
p2256
sI2292
Vnations
p2257
sI2293
Vcssi
p2258
sI2294
Vanalog
p2259
sI2295
Vbarn
p2260
sI2296
Vseminars
p2261
sI2297
V#
sI2298
Vgoldmine
p2262
sI2299
Vexpert
p2263
sI2300
Vguinea
p2264
sI2301
Vwow
p2265
sI2302
Vplease
p2266
sI2303
Vhollander
p2267
sI2304
Vwor
p2268
sI2305
Vlibraries
p2269
sI2306
Vsociolinguistic
p2270
sI2307
Vverbs
p2271
sI2308
Vvarious
p2272
sI2309
Venvelopes
p2273
sI2310
Vanaphor
p2274
sI2311
V15th
p2275
sI2312
Vavailable
p2276
sI2313
Vadv
p2277
sI2314
Vlatin
p2278
sI2315
Vcatalogs
p2279
sI2316
Vcreating
p2280
sI2317
Vweb
p2281
sI2318
Vcimca
p2282
sI2319
Vattention
p2283
sI2320
Vfirth
p2284
sI2321
Vinterface
p2285
sI2322
Vconsole
p2286
sI2323
Vcityu
p2287
sI2324
Vboth
p2288
sI2325
Vc
sI2326
Vlast
p2289
sI2327
Vdesparately
p2290
sI2328
Vmega
p2291
sI2329
Vcarnie
p2292
sI2330
Vonlyhottest
p2293
sI2331
Vevolvable
p2294
sI2332
Vvilem
p2295
sI2333
Vpdp
p2296
sI2334
Vobjects
p2297
sI2335
Vanthropoid
p2298
sI2336
Vcontext
p2299
sI2337
Vafar
p2300
sI2338
Vexperimental
p2301
sI2339
Vawali
p2302
sI2340
Vjeff
p2303
sI2341
Vtypological
p2304
sI2342
Vvoyage
p2305
sI2343
Vloan
p2306
sI2344
Vdeposit
p2307
sI2345
Vwhatever
p2308
sI2346
V404
p2309
sI2347
Vagents
p2310
sI2348
Vscottish
p2311
sI2349
Vlangs
p2312
sI2350
Vicehl
p2313
sI2351
Vperspectives
p2314
sI2352
Vpt
p2315
sI2353
Vmonthly
p2316
sI2354
Vcreate
p2317
sI2355
Vpolitical
p2318
sI2356
Vdue
p2319
sI2357
Va-linguist
p2320
sI2358
Vpc
p2321
sI2359
Vsecret
p2322
sI2360
Vcitations
p2323
sI2361
Vmaintenance
p2324
sI2362
Vcollected
p2325
sI2363
Vph
p2326
sI2364
Vmeeting
p2327
sI2365
Vfhcg98
p2328
sI2366
Vsaarbruecken
p2329
sI2367
Vdialogue
p2330
sI2368
Vkitahara
p2331
sI2369
Vtranformational
p2332
sI2370
V39
p2333
sI2371
Vracer
p2334
sI2372
Vopposites
p2335
sI2373
Vinstructor
p2336
sI2374
Vmla
p2337
sI2375
Vclassifications
p2338
sI2376
Vlook
p2339
sI2377
Vjudicial
p2340
sI2378
Vcorpora
p2341
sI2379
Vmlm
p2342
sI2380
Vbiographies
p2343
sI2381
Vwhile
p2344
sI2382
Vdominio
p2345
sI2383
Vformats
p2346
sI2384
Vmitchell
p2347
sI2385
Vdesigning
p2348
sI2386
Vprolog
p2349
sI2387
Vnasalisation
p2350
sI2388
Vcasino
p2351
sI2389
Vportugal
p2352
sI2390
Vorthography
p2353
sI2391
Vvon
p2354
sI2392
Vbinding
p2355
sI2393
Vcontex
p2356
sI2394
Vimperialism
p2357
sI2395
Vsharkey
p2358
sI2396
Vfinalists
p2359
sI2397
Vrid
p2360
sI2398
Vcampidanian
p2361
sI2399
Vtenses
p2362
sI2400
Vopen
p2363
sI2401
Vgrant
p2364
sI2402
Vtolkienian
p2365
sI2403
Vgovernment
p2366
sI2404
Vsardinian
p2367
sI2405
V870
p2368
sI2406
Vread
p2369
sI2407
Vdiscourse
p2370
sI2408
Vcontents
p2371
sI2409
Vdeletion
p2372
sI2410
V9
sI2411
Vestes
p2373
sI2412
Vconflict
p2374
sI2413
Vdevelopment
p2375
sI2414
Vliterature
p2376
sI2415
Vtemporary
p2377
sI2416
Vself-opposites
p2378
sI2417
Vassignment
p2379
sI2418
Vsolicited
p2380
sI2419
V000
p2381
sI2420
Vuses
p2382
sI2421
Vuser
p2383
sI2422
Vlouis
p2384
sI2423
Vrecent
p2385
sI2424
Vdecsrambler
p2386
sI2425
Vdatabase
p2387
sI2426
Vals-98
p2388
sI2427
Vschindler
p2389
sI2428
Vanalysis
p2390
sI2429
Vpicks
p2391
sI2430
Vnordic
p2392
sI2431
Vlingusitic
p2393
sI2432
Vldc
p2394
sI2433
Vjudgments
p2395
sI2434
Vcliticization
p2396
sI2435
Vturkic
p2397
sI2436
Vquestions
p2398
sI2437
Vworld
p2399
sI2438
Vad
p2400
sI2439
Vinference
p2401
sI2440
Vtaiwan
p2402
sI2441
Vafro
p2403
sI2442
Vsummaries
p2404
sI2443
Vletting
p2405
sI2444
Vtables
p2406
sI2445
Vicelandic
p2407
sI2446
V$
sI2447
V1078
p2408
sI2448
Vreaders
p2409
sI2449
Vworkers
p2410
sI2450
Vguaranteed
p2411
sI2451
V1070
p2412
sI2452
V1071
p2413
sI2453
Vsignals
p2414
sI2454
Vprepositions
p2415
sI2455
Vhomeland
p2416
sI2456
Vcash
p2417
sI2457
Vrelevance
p2418
sI2458
Vcuk
p2419
sI2459
Vheidelberg
p2420
sI2460
Vchess
p2421
sI2461
V1094
p2422
sI2462
Vindonesian
p2423
sI2463
Vsiouan
p2424
sI2464
Vmarch
p2425
sI2465
Vbig
p2426
sI2466
Vfieldwork
p2427
sI2467
V1098
p2428
sI2468
Vcatalan
p2429
sI2469
Vgame
p2430
sI2470
Valias
p2431
sI2471
Vclitic
p2432
sI2472
Vculturally
p2433
sI2473
Vagfl
p2434
sI2474
Vbit
p2435
sI2475
Vformal
p2436
sI2476
Vd
sI2477
Vsemi
p2437
sI2478
Vfollows
p2438
sI2479
Vmessage
p2439
sI2480
Vpounds
p2440
sI2481
Vignore
p2441
sI2482
Vmultilingua
p2442
sI2483
Vdurham
p2443
sI2484
Vtranslators
p2444
sI2485
Vcontinua
p2445
sI2486
V1414
p2446
sI2487
Vterminology
p2447
sI2488
Vunesco
p2448
sI2489
Vecology
p2449
sI2490
Vmethods
p2450
sI2491
Vspring
p2451
sI2492
Vsome
p2452
sI2493
Vphone
p2453
sI2494
Vaisb-95
p2454
sI2495
Vamharic
p2455
sI2496
Vurgent
p2456
sI2497
Vijb
p2457
sI2498
Vdefinites
p2458
sI2499
Vnewsletter
p2459
sI2500
Vhaagen
p2460
sI2501
Vpet
p2461
sI2502
Vfile
p2462
sI2503
Vintegration
p2463
sI2504
Vper
p2464
sI2505
Vplanck
p2465
sI2506
Vreligion
p2466
sI2507
V1254
p2467
sI2508
Vearlybird
p2468
sI2509
V1250
p2469
sI2510
V1251
p2470
sI2511
Vellipsis
p2471
sI2512
Vbedoel
p2472
sI2513
Vneurosciences
p2473
sI2514
V300
p2474
sI2515
Vprocessing
p2475
sI2516
Vagreement
p2476
sI2517
Vdeliverables
p2477
sI2518
Vnels-29
p2478
sI2519
Vusd
p2479
sI2520
Vvol-5
p2480
sI2521
Vsanta
p2481
sI2522
Vbecome
p2482
sI2523
Vmetaphor
p2483
sI2524
Vtaboo
p2484
sI2525
Vby
p2485
sI2526
Vanything
p2486
sI2527
Vconstraint
p2487
sI2528
Vbraille
p2488
sI2529
Vhoncoop
p2489
sI2530
Vsimulation
p2490
sI2531
Vmelbourne
p2491
sI2532
Vacquistion
p2492
sI2533
Vbgs
p2493
sI2534
Vdialog
p2494
sI2535
Vsocioling
p2495
sI2536
Vzellig
p2496
sI2537
Vclassics
p2497
sI2538
Vgenre
p2498
sI2539
Vsilence
p2499
sI2540
Vseeing
p2500
sI2541
Vcomputational
p2501
sI2542
Vreal
p2502
sI2543
Val
p2503
sI2544
Vintl
p2504
sI2545
Vwithin
p2505
sI2546
Vnsf
p2506
sI2547
Vservers
p2507
sI2548
Vservices
p2508
sI2549
Vbecause
p2509
sI2550
Vadverbs
p2510
sI2551
Vohio
p2511
sI2552
Vframes
p2512
sI2553
Vnegation
p2513
sI2554
Veskimo
p2514
sI2555
Vphonological
p2515
sI2556
Vpre-conference
p2516
sI2557
Vquestion
p2517
sI2558
Vtextual
p2518
sI2559
Vsyllabus
p2519
sI2560
Vcamera
p2520
sI2561
Vfasl
p2521
sI2562
Vdissertations
p2522
sI2563
V:
sI2564
Vvienna
p2523
sI2565
Van
p2524
sI2566
Vanywhere
p2525
sI2567
Vsearching
p2526
sI2568
Vatlantic
p2527
sI2569
Vpacific
p2528
sI2570
V22043
p2529
sI2571
Vling
p2530
sI2572
Vline
p2531
sI2573
Vraising
p2532
sI2574
Vsingular-they
p2533
sI2575
Vinfo
p2534
sI2576
Vrefinancing
p2535
sI2577
Vneurolinguistics
p2536
sI2578
Vstumbling
p2537
sI2579
Vlinguistique
p2538
sI2580
Vup
p2539
sI2581
Vus
p2540
sI2582
Vtoday
p2541
sI2583
Vuk
p2542
sI2584
Vua
p2543
sI2585
Vclear
p2544
sI2586
Vpsoriasis
p2545
sI2587
Vconstant
p2546
sI2588
Vcurs
p2547
sI2589
Vm
sI2590
Vparser
p2548
sI2591
Vinfluence
p2549
sI2592
Viccip
p2550
sI2593
Vdoesn
p2551
sI2594
Vquantification
p2552
sI2595
Vengineering
p2553
sI2596
Vportugese
p2554
sI2597
Vlexemes
p2555
sI2598
Vhuron
p2556
sI2599
Vyearbook
p2557
sI2600
V959
p2558
sI2601
Vcodes
p2559
sI2602
Vparadox
p2560
sI2603
Vgranada
p2561
sI2604
Vhumanities
p2562
sI2605
Vpart-time
p2563
sI2606
Vsunshine
p2564
sI2607
Vgry
p2565
sI2608
Vnat
p2566
sI2609
Vincome
p2567
sI2610
Vpronouns
p2568
sI2611
Vreflections
p2569
sI2612
Vusers
p2570
sI2613
Vcreditline
p2571
sI2614
Vkansas
p2572
sI2615
Vproblems
p2573
sI2616
Vsamla
p2574
sI2617
Vnaccl-11
p2575
sI2618
Vmalay
p2576
sI2619
Vmeaning
p2577
sI2620
V859
p2578
sI2621
Vreservation
p2579
sI2622
Vbibliographies
p2580
sI2623
Vtislr
p2581
sI2624
Vdesert
p2582
sI2625
Vstructure
p2583
sI2626
Visfc95
p2584
sI2627
Vlang
p2585
sI2628
Vsoundex
p2586
sI2629
Ve
sI2630
Vdepts
p2587
sI2631
Vhokan
p2588
sI2632
Vrequired
p2589
sI2633
Vorbit
p2590
sI2634
Vadvertisment
p2591
sI2635
Vbulletin
p2592
sI2636
V2000
p2593
sI2637
Vsummit
p2594
sI2638
Vacl-95
p2595
sI2639
Vnarrative
p2596
sI2640
Vacl-99
p2597
sI2641
Vjoining
p2598
sI2642
Vhello
p2599
sI2643
Vcode
p2600
sI2644
Vgp
p2601
sI2645
Vsales
p2602
sI2646
Vnynorsk
p2603
sI2647
Venseignement
p2604
sI2648
Vwordperfect
p2605
sI2649
Vrifra
p2606
sI2650
Vnunn
p2607
sI2651
Vgroceries
p2608
sI2652
Vgang
p2609
sI2653
Vedt
p2610
sI2654
Vedu
p2611
sI2655
Vgo
p2612
sI2656
Vquery
p2613
sI2657
Vcontributions
p2614
sI2658
Vissues
p2615
sI2659
Vsinthesizer
p2616
sI2660
Vturkish
p2617
sI2661
Vhispanistas
p2618
sI2662
Vdescription
p2619
sI2663
Vbestock
p2620
sI2664
Vyoung
p2621
sI2665
Vsend
p2622
sI2666
Vsuits
p2623
sI2667
Vlanguages
p2624
sI2668
Vciting
p2625
sI2669
Vmaryland
p2626
sI2670
Vwomen
p2627
sI2671
Vgb
p2628
sI2672
Vpostings
p2629
sI2673
Vresources
p2630
sI2674
Vhicss
p2631
sI2675
Vwasteland
p2632
sI2676
Vskinlaser
p2633
sI2677
Vacreage
p2634
sI2678
Vmelchuk
p2635
sI2679
Vishikawa
p2636
sI2680
Vcoston
p2637
sI2681
Vijcai95
p2638
sI2682
Vmixing
p2639
sI2683
Vijcai99
p2640
sI2684
Vcontinued
p2641
sI2685
Vai
p2642
sI2686
Vtri
p2643
sI2687
Vliterary
p2644
sI2688
Vgender
p2645
sI2689
Vboguraev
p2646
sI2690
Veve
p2647
sI2691
Vtry
p2648
sI2692
Vminimizing
p2649
sI2693
Vkit
p2650
sI2694
Vcar
p2651
sI2695
V1086
p2652
sI2696
V1083
p2653
sI2697
V1082
p2654
sI2698
V1080
p2655
sI2699
Vsexism
p2656
sI2700
Vquaker
p2657
sI2701
V1088
p2658
sI2702
Vsumerian
p2659
sI2703
Vvideo
p2660
sI2704
Vicsc
p2661
sI2705
Vdownload
p2662
sI2706
Vodd
p2663
sI2707
Vcfp
p2664
sI2708
Vscientific
p2665
sI2709
Vuniversities
p2666
sI2710
Vbusiness
p2667
sI2711
Vbertinetto
p2668
sI2712
Vchicago
p2669
sI2713
Vassisted
p2670
sI2714
Vmultimedia
p2671
sI2715
Vijglsa
p2672
sI2716
V732-942
p2673
sI2717
Vaccess
p2674
sI2718
Vpaying
p2675
sI2719
V19th
p2676
sI2720
Vindian
p2677
sI2721
Vtwlt
p2678
sI2722
Vpristine
p2679
sI2723
V;
sI2724
V1404
p2680
sI2725
Vbody
p2681
sI2726
Vhypothesis
p2682
sI2727
Vlee
p2683
sI2728
Vdegree
p2684
sI2729
Vjakobson
p2685
sI2730
Vjudges
p2686
sI2731
V1333
p2687
sI2732
Vsinn
p2688
sI2733
Vles
p2689
sI2734
Vlet
p2690
sI2735
Vseparation
p2691
sI2736
Vprolamat
p2692
sI2737
Vgreat
p2693
sI2738
Vkornfilt
p2694
sI2739
Vunsencored
p2695
sI2740
Vformalizing
p2696
sI2741
Vtechnical
p2697
sI2742
V32
p2698
sI2743
V31
p2699
sI2744
V30
p2700
sI2745
V36
p2701
sI2746
V35
p2702
sI2747
V1240
p2703
sI2748
Vlrec
p2704
sI2749
Vsurvey
p2705
sI2750
Vromanization
p2706
sI2751
Vresidents
p2707
sI2752
Vgene
p2708
sI2753
Vmaker
p2709
sI2754
Vwinkler
p2710
sI2755
Vaddresses
p2711
sI2756
Vmontpellier
p2712
sI2757
Vwin
p2713
sI2758
Vjuries
p2714
sI2759
Vcalbe
p2715
sI2760
Vboolean
p2716
sI2761
Vnames
p2717
sI2762
V16-17
p2718
sI2763
Vtools
p2719
sI2764
Vcausal
p2720
sI2765
Vape
p2721
sI2766
Vuse
p2722
sI2767
Vjournees
p2723
sI2768
Vfrom
p2724
sI2769
Vexcursions
p2725
sI2770
Vcertificate
p2726
sI2771
V&
sI2772
Vnext
p2727
sI2773
Vkpelle
p2728
sI2774
Vrocling
p2729
sI2775
Vtiming
p2730
sI2776
Vdoubling
p2731
sI2777
Vwecol
p2732
sI2778
Vconfs
p2733
sI2779
Vmathesius
p2734
sI2780
Vsymposia
p2735
sI2781
Vostertag
p2736
sI2782
Vsocitey
p2737
sI2783
Vreissued
p2738
sI2784
Viia
p2739
sI2785
Vlabelled
p2740
sI2786
Vbaby
p2741
sI2787
Viii
p2742
sI2788
V1467
p2743
sI2789
Vsubscription
p2744
sI2790
Vutexas
p2745
sI2791
Vtsd98
p2746
sI2792
Vanimals
p2747
sI2793
Vannouncing
p2748
sI2794
Vf
sI2795
Vthis
p2749
sI2796
Vchallenge
p2750
sI2797
Vthinning
p2751
sI2798
Vnon-human
p2752
sI2799
Vceliac
p2753
sI2800
Vpublications
p2754
sI2801
Vfreedom
p2755
sI2802
Vsonghay
p2756
sI2803
Vpedagogy
p2757
sI2804
Vanthropological
p2758
sI2805
Vcontrol
p2759
sI2806
Vdo
p2760
sI2807
Vprocess
p2761
sI2808
Vclausal
p2762
sI2809
Vtax
p2763
sI2810
Vpurposes
p2764
sI2811
Vpromotional
p2765
sI2812
Vhigh
p2766
sI2813
Vintuitions
p2767
sI2814
Vtag
p2768
sI2815
Vcomputaional
p2769
sI2816
Vslip
p2770
sI2817
Vtal
p2771
sI2818
Vtai
p2772
sI2819
Vnative
p2773
sI2820
Vgrammaire
p2774
sI2821
Vunited
p2775
sI2822
Vbedeutung
p2776
sI2823
Vinaugural
p2777
sI2824
Vdelay
p2778
sI2825
Vlanguaging
p2779
sI2826
Vanimal
p2780
sI2827
Vfrontiers
p2781
sI2828
Voulipo
p2782
sI2829
Vferdinand
p2783
sI2830
Vintelligent
p2784
sI2831
Vproven
p2785
sI2832
Vtypewriter
p2786
sI2833
Vprofile
p2787
sI2834
Velvish
p2788
sI2835
Vblocks
p2789
sI2836
Vseries
p2790
sI2837
Vstop
p2791
sI2838
V9113
p2792
sI2839
Vphilosophy
p2793
sI2840
Vcollection
p2794
sI2841
Vrays
p2795
sI2842
Vinst
p2796
sI2843
Vcoling-acl98
p2797
sI2844
Vtongue
p2798
sI2845
V12-14
p2799
sI2846
Vambiguous
p2800
sI2847
Vgurt
p2801
sI2848
Vlight
p2802
sI2849
Vlines
p2803
sI2850
V943
p2804
sI2851
Vflege
p2805
sI2852
Vprovisional
p2806
sI2853
Vscoop
p2807
sI2854
Vencyclopedia
p2808
sI2855
Vnancy
p2809
sI2856
Vtenure
p2810
sI2857
Valtavista
p2811
sI2858
Vamta
p2812
sI2859
Vdirecte
p2813
sI2860
Vtropics
p2814
sI2861
Vsecol
p2815
sI2862
Vvmc
p2816
sI2863
Vpoetry
p2817
sI2864
V133
p2818
sI2865
V132
p2819
sI2866
V131
p2820
sI2867
V130
p2821
sI2868
V137
p2822
sI2869
V136
p2823
sI2870
Vreferencing
p2824
sI2871
V139
p2825
sI2872
Vdeictic
p2826
sI2873
Vlinguistics
p2827
sI2874
Vld
p2828
sI2875
Vtsm
p2829
sI2876
Vcollocations
p2830
sI2877
Vla
p2831
sI2878
Vvoiceless
p2832
sI2879
Vtsd
p2833
sI2880
Vlabov
p2834
sI2881
Vage
p2835
sI2882
Vmailin
p2836
sI2883
Vlinguistica
p2837
sI2884
Vchoose
p2838
sI2885
Vlp
p2839
sI2886
Vmillions
p2840
sI2887
V<
sI2888
Vlx
p2841
sI2889
Vdag
p2842
sI2890
Vdescriptive
p2843
sI2891
Vauto
p2844
sI2892
Vmaterial
p2845
sI2893
Vindexing
p2846
sI2894
V300usd
p2847
sI2895
Vday
p2848
sI2896
Vwp
p2849
sI2897
Vliteracy
p2850
sI2898
Vsalford
p2851
sI2899
Vminimalist
p2852
sI2900
Vmasters
p2853
sI2901
Vscitech
p2854
sI2902
Vuniversity
p2855
sI2903
Vnfl
p2856
sI2904
Vlatvia
p2857
sI2905
Vl2
p2858
sI2906
Vfsmnlp
p2859
sI2907
Vl1
p2860
sI2908
Vphonetic
p2861
sI2909
Vuil-ots
p2862
sI2910
Vcircular
p2863
sI2911
V4488
p2864
sI2912
V|
sI2913
Vinterlinguas
p2865
sI2914
Vlfg
p2866
sI2915
Vedinburgh
p2867
sI2916
Vsociety
p2868
sI2917
Vbooks
p2869
sI2918
Vour
p2870
sI2919
Vadlu
p2871
sI2920
Vpatch
p2872
sI2921
Vspecial
p2873
sI2922
Vout
p2874
sI2923
V'
sI2924
Ventertainment
p2875
sI2925
Vsigphon98
p2876
sI2926
Vreq
p2877
sI2927
Vmediated
p2878
sI2928
Voriental
p2879
sI2929
Vsignstream
p2880
sI2930
Vbangani
p2881
sI2931
Vdialectal
p2882
sI2932
Vmath
p2883
sI2933
Vcoola
p2884
sI2934
Vharold
p2885
sI2935
Vdictionary
p2886
sI2936
Vinteractions
p2887
sI2937
Vdelegates
p2888
sI2938
Vbleaching
p2889
sI2939
Vtemps
p2890
sI2940
Vapproaches
p2891
sI2941
Vque
p2892
sI2942
Vfranz
p2893
sI2943
Vadl5
p2894
sI2944
Vprincess
p2895
sI2945
Vscary
p2896
sI2946
Vinteraction
p2897
sI2947
V1433
p2898
sI2948
Vg
sI2949
Vexplanations
p2899
sI2950
Vcould
p2900
sI2951
Vput
p2901
sI2952
Vmembership
p2902
sI2953
Vkeep
p2903
sI2954
Vconversation
p2904
sI2955
Vlength
p2905
sI2956
Vworkbook
p2906
sI2957
Vfatigue
p2907
sI2958
Vaustin
p2908
sI2959
Vsubliminally
p2909
sI2960
Vsouth
p2910
sI2961
Vpraxis
p2911
sI2962
Vnon-linguists
p2912
sI2963
Vpublier
p2913
sI2964
Vreflexive
p2914
sI2965
Vcomparatives
p2915
sI2966
Vconferrence
p2916
sI2967
Vpgm
p2917
sI2968
V1344
p2918
sI2969
Vnoun
p2919
sI2970
Vhey
p2920
sI2971
Vcontragram
p2921
sI2972
Vimprovements
p2922
sI2973
Vsubmit
p2923
sI2974
Vrepresentations
p2924
sI2975
Vowner
p2925
sI2976
V9875
p2926
sI2977
Vpkdd
p2927
sI2978
Vgradable
p2928
sI2979
Vancient
p2929
sI2980
Vbakhtin
p2930
sI2981
Vpublication
p2931
sI2982
Vpalindromes
p2932
sI2983
Vunknown
p2933
sI2984
Vaccent
p2934
sI2985
Vsystem
p2935
sI2986
Vrelations
p2936
sI2987
Vinsitute
p2937
sI2988
Vtheir
p2938
sI2989
V1500
p2939
sI2990
Vary
p2940
sI2991
Vracist
p2941
sI2992
Vfinal
p2942
sI2993
Vpolarity
p2943
sI2994
Vpostgraduate
p2944
sI2995
Vminute
p2945
sI2996
Vlists
p2946
sI2997
Vcredibility
p2947
sI2998
Vromanizations
p2948
sI2999
Visb2
p2949
sI3000
Vintonation
p2950
sI3001
Vjuly
p2951
sI3002
Vthematisation
p2952
sI3003
Vukjx
p2953
sI3004
Vteflin98
p2954
sI3005
Vphonesex
p2955
sI3006
Vsee
p2956
sI3007
Vtommy
p2957
sI3008
Vmusement
p2958
sI3009
Vmultilinguality
p2959
sI3010
Vsexxx
p2960
sI3011
Vabstracts
p2961
sI3012
Vbet
p2962
sI3013
Vdescriptions
p2963
sI3014
Vwebmining
p2964
sI3015
Vichl
p2965
sI3016
Vtonight
p2966
sI3017
Vmongolian
p2967
sI3018
Vhave
p2968
sI3019
Vneed
p2969
sI3020
V389
p2970
sI3021
Vturn
p2971
sI3022
Vdemonstration
p2972
sI3023
Vissue
p2973
sI3024
Vhow-to
p2974
sI3025
Vlatins
p2975
sI3026
V30740
p2976
sI3027
Vuniversite
p2977
sI3028
Vanglo
p2978
sI3029
Vpolarization
p2979
sI3030
Vforbidden
p2980
sI3031
Vbest
p2981
sI3032
Vfetish
p2982
sI3033
Vkorean
p2983
sI3034
V=
sI3035
Vmit
p2984
sI3036
Vsoas
p2985
sI3037
Vaccuracy
p2986
sI3038
Vlecturer
p2987
sI3039
Vmasta
p2988
sI3040
Vemnlp
p2989
sI3041
Vantigua
p2990
sI3042
Vaxiomatic
p2991
sI3043
Voceanic
p2992
sI3044
Vwho
p2993
sI3045
Vbronislaw
p2994
sI3046
Vawk
p2995
sI3047
Vpreliminary
p2996
sI3048
Vdialectologists
p2997
sI3049
Vcomparison
p2998
sI3050
Vsegment
p2999
sI3051
Vdelivery
p3000
sI3052
Vurl
p3001
sI3053
Vrequest
p3002
sI3054
Vperceiving
p3003
sI3055
Vgesture
p3004
sI3056
Vramanzo
p3005
sI3057
Vindo
p3006
sI3058
V08
p3007
sI3059
Vhpsg
p3008
sI3060
Vselection
p3009
sI3061
Vnostratic
p3010
sI3062
Vtolkien
p3011
sI3063
Vtext
p3012
sI3064
Vvacancy
p3013
sI3065
Vplanning
p3014
sI3066
Vmanchester
p3015
sI3067
Vsycopahnt
p3016
sI3068
Vma-tesol
p3017
sI3069
Vpasse
p3018
sI3070
Vadvertisement
p3019
sI3071
Vlowlands
p3020
sI3072
Vtaps
p3021
sI3073
Vear
p3022
sI3074
Vbased
p3023
sI3075
Vknowledge
p3024
sI3076
Vfuer
p3025
sI3077
V(
sI3078
Vlsa
p3026
sI3079
Vvaria
p3027
sI3080
Vbrighten
p3028
sI3081
Vcd-rom
p3029
sI3082
Vsign-singing
p3030
sI3083
Vtape
p3031
sI3084
Vcommunist
p3032
sI3085
Vpartially
p3033
sI3086
Vmove
p3034
sI3087
Vcuba
p3035
sI3088
Vbeat
p3036
sI3089
Vlucky
p3037
sI3090
Vmaritime
p3038
sI3091
Vcomutational
p3039
sI3092
Vjoint
p3040
sI3093
Vwords
p3041
sI3094
V128
p3042
sI3095
V129
p3043
sI3096
Vindirecte
p3044
sI3097
Vyears
p3045
sI3098
Vlitterature
p3046
sI3099
V913-383
p3047
sI3100
Vsymbols
p3048
sI3101
Vevolution
p3049
sI3102
V1023
p3050
sI3103
Vh
sI3104
Vcalling
p3051
sI3105
V80924609220
p3052
sI3106
Vbannock
p3053
sI3107
Vshe
p3054
sI3108
V96-97
p3055
sI3109
Vglosses
p3056
sI3110
Vgrad
p3057
sI3111
Vview
p3058
sI3112
Vconsonants
p3059
sI3113
Vfricative
p3060
sI3114
Vfreinds
p3061
sI3115
Vnational
p3062
sI3116
Vcruise
p3063
sI3117
Vbiz
p3064
sI3118
Vedition
p3065
sI3119
Vcomputer
p3066
sI3120
Viscll3
p3067
sI3121
Vprocedings
p3068
sI3122
Vresponses
p3069
sI3123
Vunlimited
p3070
sI3124
Vcloses
p3071
sI3125
Vhas
p3072
sI3126
Vlectureship
p3073
sI3127
Vaugias
p3074
sI3128
Vworshop
p3075
sI3129
Vgrammaticalization
p3076
sI3130
Vmacros
p3077
sI3131
Vstate
p3078
sI3132
Videntification
p3079
sI3133
Vclosed
p3080
sI3134
Vemail
p3081
sI3135
Vluo
p3082
sI3136
Vkeynote
p3083
sI3137
Vability
p3084
sI3138
Vopening
p3085
sI3139
Vstrides
p3086
sI3140
Vjob
p3087
sI3141
Vvijver
p3088
sI3142
Vmerry
p3089
sI3143
Vamer
p3090
sI3144
Vpragmatics
p3091
sI3145
Vthank
p3092
sI3146
Vtls
p3093
sI3147
Vinterpretations
p3094
sI3148
Vempathy
p3095
sI3149
Vhebrew
p3096
sI3150
Vrime
p3097
sI3151
Vinvited
p3098
sI3152
Vrecorders
p3099
sI3153
Vgalore
p3100
sI3154
Vetc
p3101
sI3155
Vuniformitarianism
p3102
sI3156
Vfigures
p3103
sI3157
Vluganda
p3104
sI3158
Vsection
p3105
sI3159
Vdarker
p3106
sI3160
Varticulatory
p3107
sI3161
Vgldv
p3108
sI3162
V386
p3109
sI3163
Vcl
p3110
sI3164
Vcc
p3111
sI3165
Vcimql
p3112
sI3166
Vmarketplace
p3113
sI3167
Vcd
p3114
sI3168
Vpalc97
p3115
sI3169
Vuce
p3116
sI3170
Vcx
p3117
sI3171
Vsequences
p3118
sI3172
Vtable
p3119
sI3173
Vundergraduate
p3120
sI3174
Vuci
p3121
sI3175
Vnonfinite
p3122
sI3176
Vpoem
p3123
sI3177
Vprovinces
p3124
sI3178
Vaddition
p3125
sI3179
Vcvir
p3126
sI3180
Vholidays
p3127
sI3181
V1205
p3128
sI3182
Vgenetic
p3129
sI3183
Vyan
p3130
sI3184
Vhindi
p3131
sI3185
Vgent
p3132
sI3186
Vproposal
p3133
sI3187
V>
sI3188
V1358
p3134
sI3189
Vdiversity
p3135
sI3190
Vcommutes
p3136
sI3191
Vcomparata
p3137
sI3192
Vbulk
p3138
sI3193
Vpolicy
p3139
sI3194
Vtense
p3140
sI3195
Vbull
p3141
sI3196
Vlgs
p3142
sI3197
Vgeneral
p3143
sI3198
Vspain
p3144
sI3199
Vmulti
p3145
sI3200
Vholiday
p3146
sI3201
Vwatch
p3147
sI3202
Vungrammatical
p3148
sI3203
Vstructuralist
p3149
sI3204
Vappearance
p3150
sI3205
Vbritain
p3151
sI3206
Vwill
p3152
sI3207
Vlanuage
p3153
sI3208
Vnon-surgical
p3154
sI3209
Vnwlc
p3155
sI3210
Vescol
p3156
sI3211
Vrevisited
p3157
sI3212
Vinstantly
p3158
sI3213
V~
sI3214
Vstuffing
p3159
sI3215
Vpdt
p3160
sI3216
Vepenthesis
p3161
sI3217
Vaw
p3162
sI3218
Vdissent
p3163
sI3219
Vrefs
p3164
sI3220
Vluso
p3165
sI3221
Vnon
p3166
sI3222
Vvo
p3167
sI3223
Vhardware
p3168
sI3224
Vdonnellan
p3169
sI3225
Vvs
p3170
sI3226
Varabic
p3171
sI3227
Vforeign
p3172
sI3228
Vwhorf
p3173
sI3229
Vsecrets
p3174
sI3230
Vobituary
p3175
sI3231
Viada
p3176
sI3232
Vicgl
p3177
sI3233
V)
sI3234
Vcross
p3178
sI3235
Vromance
p3179
sI3236
Vecml
p3180
sI3237
Vspeaker
p3181
sI3238
Vdigital
p3182
sI3239
Vcolloquium
p3183
sI3240
Vfinite
p3184
sI3241
Vplurilinguisme
p3185
sI3242
Vhttp
p3186
sI3243
Vmassaro
p3187
sI3244
Vmutual
p3188
sI3245
Vsaami
p3189
sI3246
Vphd
p3190
sI3247
Vv2
p3191
sI3248
Vstudent
p3192
sI3249
Vpoznan
p3193
sI3250
Vjudgment
p3194
sI3251
Vscholars
p3195
sI3252
Videntity
p3196
sI3253
Vtucker
p3197
sI3254
Vconcordance
p3198
sI3255
Voff
p3199
sI3256
Veamt
p3200
sI3257
Vippe
p3201
sI3258
Vneural
p3202
sI3259
Vi
sI3260
Vfreshest
p3203
sI3261
Vwell
p3204
sI3262
Vpatterns
p3205
sI3263
Vutrecht
p3206
sI3264
V351
p3207
sI3265
Venglish
p3208
sI3266
Vposition
p3209
sI3267
Vacademia
p3210
sI3268
Vaudio
p3211
sI3269
Vlatest
p3212
sI3270
Vneologisms
p3213
sI3271
Vstores
p3214
sI3272
Vnicknames
p3215
sI3273
Vmadam
p3216
sI3274
Vwealthy
p3217
sI3275
Vbloomfield
p3218
sI3276
Vcoling-acl
p3219
sI3277
Vsources
p3220
sI3278
Vinterim
p3221
sI3279
Vvirtual
p3222
sI3280
Venterprise
p3223
sI3281
Vmths
p3224
sI3282
Vpaul
p3225
sI3283
V41
p3226
sI3284
Vcoordination
p3227
sI3285
Vclipper
p3228
sI3286
Vallgemeine
p3229
sI3287
Vboersma
p3230
sI3288
Vbibliography
p3231
sI3289
Vads
p3232
sI3290
V399
p3233
sI3291
V1110
p3234
sI3292
Vpoint
p3235
sI3293
Vsky
p3236
sI3294
Vrecommending
p3237
sI3295
Vbook
p3238
sI3296
Vsweet
p3239
sI3297
Vusage
p3240
sI3298
V280
p3241
sI3299
Vadl
p3242
sI3300
V282
p3243
sI3301
Vsber
p3244
sI3302
Vgmt
p3245
sI3303
Vwont
p3246
sI3304
Vrspas
p3247
sI3305
Vworlds
p3248
sI3306
Vchecking
p3249
sI3307
Vfyi
p3250
sI3308
Vutah
p3251
sI3309
Vterm
p3252
sI3310
Vfive
p3253
sI3311
Vknow
p3254
sI3312
Vfacial
p3255
sI3313
Vpress
p3256
sI3314
Vimmediately
p3257
sI3315
Vpassword
p3258
sI3316
Vpier
p3259
sI3317
Vloss
p3260
sI3318
Vlike
p3261
sI3319
Vlost
p3262
sI3320
Vpronominal
p3263
sI3321
Vdictionaries
p3264
sI3322
Vkaren
p3265
sI3323
Vkuala
p3266
sI3324
Vjames
p3267
sI3325
Vadjoining
p3268
sI3326
Vworks
p3269
sI3327
Vpage
p3270
sI3328
Vitalian
p3271
sI3329
Vaccessible
p3272
sI3330
V988
p3273
sI3331
Vleuven
p3274
sI3332
Vclassical
p3275
sI3333
V980
p3276
sI3334
Vlinguistically
p3277
sI3335
Vdiscours
p3278
sI3336
Vlibrary
p3279
sI3337
Vhair
p3280
sI3338
Vconnectives
p3281
sI3339
Vrecommendation
p3282
sI3340
Vproper
p3283
sI3341
Vhome
p3284
sI3342
Vintuition
p3285
sI3343
Vrecognition
p3286
sI3344
Vvso
p3287
sI3345
Vest
p3288
sI3346
Vvocabulary
p3289
sI3347
Vcognition
p3290
sI3348
Vgoedemans
p3291
sI3349
Vdelaware
p3292
sI3350
Vpashto
p3293
sI3351
Vmarkers
p3294
sI3352
V14th
p3295
sI3353
Ve-mail
p3296
sI3354
Vdoes
p3297
sI3355
Vjoin
p3298
sI3356
Vmutation
p3299
sI3357
Veconomical
p3300
sI3358
Vsweepstakes
p3301
sI3359
Vesl
p3302
sI3360
Vfanny
p3303
sI3361
V?
sI3362
Vmedieval
p3304
sI3363
Vschedule
p3305
sI3364
Vjournal
p3306
sI3365
Vhost
p3307
sI3366
Vyuen
p3308
sI3367
Vinstinct
p3309
sI3368
Vloans
p3310
sI3369
Vpanel
p3311
sI3370
Vabout
p3312
sI3371
Vbills
p3313
sI3372
Vextension
p3314
sI3373
Vgemination
p3315
sI3374
Vdependency
p3316
sI3375
Vaddendum
p3317
sI3376
Vconstraints
p3318
sI3377
Vtome
p3319
sI3378
Vsoftware
p3320
sI3379
Vown
p3321
sI3380
Vwilderness
p3322
sI3381
Vquichua
p3323
sI3382
Vfunctional
p3324
sI3383
Vthief
p3325
sI3384
Vregistration
p3326
sI3385
Vclosing
p3327
sI3386
Vuniversals
p3328
sI3387
Vvan
p3329
sI3388
Vfriends
p3330
sI3389
V*
sI3390
Vindoeuropean
p3331
sI3391
V8820
p3332
sI3392
Vtalc98
p3333
sI3393
Vtroubling
p3334
sI3394
Vfunction
p3335
sI3395
Vbuy
p3336
sI3396
Vnorth
p3337
sI3397
Vtina
p3338
sI3398
Vbut
p3339
sI3399
Vvolume
p3340
sI3400
Vhk
p3341
sI3401
Vhi
p3342
sI3402
Vautomated
p3343
sI3403
Vconvergence
p3344
sI3404
Vbe
p3345
sI3405
Vha
p3346
sI3406
Vpresuppositions
p3347
sI3407
Vhe
p3348
sI3408
Vmade
p3349
sI3409
Vtemp
p3350
sI3410
Vj
sI3411
Vhosting
p3351
sI3412
Vdunque
p3352
sI3413
Vrecord
p3353
sI3414
Vfrequency
p3354
sI3415
Vdistribution
p3355
sI3416
Vinformational
p3356
sI3417
Vwac4
p3357
sI3418
Vunfolding
p3358
sI3419
Virish
p3359
sI3420
Vbudiman
p3360
sI3421
Vint
p3361
sI3422
Vuniversal
p3362
sI3423
Vyear
p3363
sI3424
Vpie
p3364
sI3425
Vpig
p3365
sI3426
Vmultimodal
p3366
sI3427
Vppsn
p3367
sI3428
Vind
p3368
sI3429
Veducation
p3369
sI3430
Videntities
p3370
sI3431
Vinc
p3371
sI3432
Vdiego
p3372
sI3433
Vfunctions
p3373
sI3434
Vincredible
p3374
sI3435
V44
p3375
sI3436
Vaquariums
p3376
sI3437
V40
p3377
sI3438
Villinois
p3378
sI3439
Vother
p3379
sI3440
Vdetails
p3380
sI3441
Vicsnl
p3381
sI3442
Vscil
p3382
sI3443
Vcanada
p3383
sI3444
Vjunk
p3384
sI3445
Vselim
p3385
sI3446
Vadresse
p3386
sI3447
Vjune
p3387
sI3448
Vvariation
p3388
sI3449
Vchance
p3389
sI3450
Vmankind
p3390
sI3451
Vretroflex
p3391
sI3452
Vlinguistisches
p3392
sI3453
Vdave
p3393
sI3454
Vrule
p3394
sI3455
Vdomani
p3395
sI3456
Vsyllabi
p3396
sI3457
V4a
p3397
sI3458
Vdefend
p3398
sI3459
V8th
p3399
sI3460
S'UNK'
p3400
s.