(dp1
I0
S'zero'
p2
sI1
Vstock
p3
sI2
Vlimited
p4
sI3
Vmid-continental
p5
sI4
Vpardon
p6
sI5
Vsaver
p7
sI6
Vdynamic
p8
sI7
Vnottingham
p9
sI8
Vasian
p10
sI9
Vfuturesignals
p11
sI10
Vsci
p12
sI11
Vbuccalization
p13
sI12
Vsurf
p14
sI13
Vincrease
p15
sI14
Vreplacements
p16
sI15
Vchinese
p17
sI16
Vecdl
p18
sI17
Vorthographies
p19
sI18
Vaum
p20
sI19
Vcreated
p21
sI20
Vaisb96
p22
sI21
Vvoted
p23
sI22
Vevolvable
p24
sI23
Vteaching
p25
sI24
Vsorry
p26
sI25
Vwelcome
p27
sI26
Vworth
p28
sI27
Vxth
p29
sI28
V@
sI29
Vupdated
p30
sI30
Vrisk
p31
sI31
Varboreal
p32
sI32
Vfeminist
p33
sI33
Vneg0
p34
sI34
Vdutch
p35
sI35
Vdell
p36
sI36
Vevery
p37
sI37
Vupdates
p38
sI38
Vlecture
p39
sI39
Vseals
p40
sI40
Vtagging
p41
sI41
Vschool
p42
sI42
Vbangani
p43
sI43
Vprize
p44
sI44
Vinvestigator
p45
sI45
Vreduplication
p46
sI46
Vvelar
p47
sI47
Vvoyeur
p48
sI48
Vslt
p49
sI49
Vclite
p50
sI50
Vdisc
p51
sI51
Vmath
p52
sI52
Vkonvens98
p53
sI53
Vrun-on
p54
sI54
Venjoy
p55
sI55
Vbill
p56
sI56
Vpragmatic
p57
sI57
Vconcise
p58
sI58
Vlistserve
p59
sI59
Vcapitalisation
p60
sI60
Vtwlt14
p61
sI61
Vrodman
p62
sI62
V007
p63
sI63
Vjapanese
p64
sI64
Vhorn
p65
sI65
Vsecond
p66
sI66
Vborrowings
p67
sI67
V7th
p68
sI68
Vboyland
p69
sI69
Valt
p70
sI70
Vsociolinguist
p71
sI71
Veven
p72
sI72
Verrors
p73
sI73
Vpreferences
p74
sI74
V+
sI75
Vasia
p75
sI76
Vnez
p76
sI77
Vchechen
p77
sI78
Vreconstruction
p78
sI79
Vdesigning
p79
sI80
Vnew
p80
sI81
Vnet
p81
sI82
Vever
p82
sI83
Vexclamations
p83
sI84
Vspecialist
p84
sI85
Vmillion
p85
sI86
Vnotions
p86
sI87
Vmel
p87
sI88
Vnever
p88
sI89
Vhere
p89
sI90
Vhundreds
p90
sI91
Vanthropology
p91
sI92
V108
p92
sI93
Vchina
p93
sI94
Vpath
p94
sI95
V100
p95
sI96
Vmey
p96
sI97
Vconversational
p97
sI98
Vwaseda
p98
sI99
Vhunting
p99
sI100
Vforum
p100
sI101
Vk
sI102
Vreports
p101
sI103
Vhansa
p102
sI104
Vgenerala
p103
sI105
Vanalysts
p104
sI106
Vgls
p105
sI107
Vchanges
p106
sI108
Vkbcs-98
p107
sI109
Vmutual
p108
sI110
Vcriticism
p109
sI111
Vclassification
p110
sI112
Vdiscontinuous
p111
sI113
Vnatural
p112
sI114
Vpsychological
p113
sI115
Vippe
p114
sI116
Vtotal
p115
sI117
Vuniv
p116
sI118
Vplot
p117
sI119
Vlaryngeal
p118
sI120
Vcriminals
p119
sI121
Vjetai
p120
sI122
Vwould
p121
sI123
Vhualapai
p122
sI124
Vchamito
p123
sI125
Vnegative
p124
sI126
Vmitwpl
p125
sI127
Vdistributing
p126
sI128
Veuralex96
p127
sI129
Vcall
p128
sI130
Vstrike
p129
sI131
Vpreview
p130
sI132
Vcald
p131
sI133
Vtell
p132
sI134
V1000
p133
sI135
Vinquiry
p134
sI136
Vposting
p135
sI137
Vsenseval
p136
sI138
Vsuccessful
p137
sI139
Vmotors
p138
sI140
Vunder
p139
sI141
V212-6587900
p140
sI142
V99
p141
sI143
V98
p142
sI144
Vberlin
p143
sI145
Vinteraction
p144
sI146
Vadult
p145
sI147
V90
p146
sI148
Vhole
p147
sI149
Vhold
p148
sI150
V95
p149
sI151
V94
p150
sI152
V97
p151
sI153
V96
p152
sI154
Vme
p153
sI155
Vhpsg97
p154
sI156
Vdgfs
p155
sI157
Vword
p156
sI158
Vmc
p157
sI159
Vpwpl
p158
sI160
V1999
p159
sI161
V1998
p160
sI162
Vwork
p161
sI163
Vgrammars
p162
sI164
Vtheories
p163
sI165
Vmt
p164
sI166
Vtagalog
p165
sI167
Vconcepts
p166
sI168
Vernest
p167
sI169
Vmy
p168
sI170
Vexample
p169
sI171
Vproverbio
p170
sI172
Vaaas
p171
sI173
Voqth
p172
sI174
Viawe
p173
sI175
Vpreserving
p174
sI176
Vindia
p175
sI177
Vfax
p176
sI178
Vcomputereinsatz
p177
sI179
Vcurrency
p178
sI180
Vstrengthen
p179
sI181
Vwant
p180
sI182
Vcantonese
p181
sI183
Vaaai
p182
sI184
Vattract
p183
sI185
Vaaal
p184
sI186
Vhoe
p185
sI187
Vend
p186
sI188
Vsyntactic
p187
sI189
Vtravel
p188
sI190
Vjochem
p189
sI191
Vfeature
p190
sI192
V1196
p191
sI193
Vmachine
p192
sI194
Vhow
p193
sI195
Vamazing
p194
sI196
Vpossessives
p195
sI197
Vanswer
p196
sI198
Vsymposium
p197
sI199
Vwolfram
p198
sI200
Vseelangs
p199
sI201
Vdialect
p200
sI202
Vhonored
p201
sI203
Vdescription
p202
sI204
Vtextlinguistics
p203
sI205
Vafter
p204
sI206
Vlab
p205
sI207
Vmcwop
p206
sI208
Vwrong
p207
sI209
Vfracas
p208
sI210
Vlat
p209
sI211
Vsalsa
p210
sI212
Vlaw
p211
sI213
Vparallel
p212
sI214
Vtypes
p213
sI215
Vpurchase
p214
sI216
V1281
p215
sI217
Vthird
p216
sI218
Vseduce
p217
sI219
Vthink
p218
sI220
Vgreek
p219
sI221
Vcomplexity
p220
sI222
Vgreen
p221
sI223
Vkarcevskij
p222
sI224
Vasie
p223
sI225
Vdemocratic
p224
sI226
Vorder
p225
sI227
Vrestriction
p226
sI228
Voffice
p227
sI229
Vover
p228
sI230
Vlinguistlist
p229
sI231
V1225
p230
sI232
Vorientale
p231
sI233
Vxi
p232
sI234
Vlondon
p233
sI235
Vjapan
p234
sI236
Vbefore
p235
sI237
Vsciences
p236
sI238
Vlocklear
p237
sI239
Vamericana
p238
sI240
Vpersonal
p239
sI241
Vfix
p240
sI242
Vmultidisciplinary
p241
sI243
V,
sI244
Vwriting
p242
sI245
Vbetter
p243
sI246
V1370
p244
sI247
V405
p245
sI248
V404
p246
sI249
V403
p247
sI250
V402
p248
sI251
V400
p249
sI252
Vpustejovsky
p250
sI253
Vcree
p251
sI254
V408
p252
sI255
Vversus
p253
sI256
Vthem
p254
sI257
Vinternationa
p255
sI258
Vinterdisciplinary
p256
sI259
Vschwenter
p257
sI260
Vfig
p258
sI261
Vdiachronica
p259
sI262
Vbreak
p260
sI263
Veducating
p261
sI264
Veffects
p262
sI265
Vthey
p263
sI266
Vschools
p264
sI267
Vyourself
p265
sI268
Velsnet
p266
sI269
Vsmoking
p267
sI270
Vmacswan
p268
sI271
Vgermanic
p269
sI272
Vnetherlands
p270
sI273
Vgrammar
p271
sI274
Vfonts
p272
sI275
Vl
sI276
Vrocks
p273
sI277
V378
p274
sI278
Veacl
p275
sI279
Veach
p276
sI280
V370
p277
sI281
V375
p278
sI282
Vside
p279
sI283
V376
p280
sI284
Vconsolidate
p281
sI285
Vtheworld
p282
sI286
Vfinancial
p283
sI287
Vconcord
p284
sI288
Vdiana
p285
sI289
Vcmc
p286
sI290
Vprinciples
p287
sI291
Vemnlp3
p288
sI292
Vgates
p289
sI293
V396
p290
sI294
V395
p291
sI295
Vcombining
p292
sI296
V399
p293
sI297
Vtypology
p294
sI298
Vlarge
p295
sI299
Vnetwork
p296
sI300
Vhellenistic
p297
sI301
Vlangue
p298
sI302
Vdialects
p299
sI303
Vtried
p300
sI304
Vmayan
p301
sI305
Vfellows
p302
sI306
Vcontent
p303
sI307
Vfellowship
p304
sI308
Vrf
p305
sI309
Vfreshest
p306
sI310
Vbanning
p307
sI311
Vgot
p308
sI312
Vscatton
p309
sI313
Vcreole
p310
sI314
Vfoundation
p311
sI315
Varizona
p312
sI316
Vdatasources
p313
sI317
Vassociate
p314
sI318
Veisteddfodau
p315
sI319
Vthreatened
p316
sI320
Vfree
p317
sI321
Vstandard
p318
sI322
Vmanagement
p319
sI323
Vesslli
p320
sI324
Vwanted
p321
sI325
V249
p322
sI326
Vcertified
p323
sI327
Vihardunaldiak
p324
sI328
Vnorwegian
p325
sI329
V17-19
p326
sI330
Vcorrectness
p327
sI331
Vdays
p328
sI332
Vsintassi
p329
sI333
V293
p330
sI334
Vinvestment
p331
sI335
Vsegments
p332
sI336
Vfascino
p333
sI337
Vsmokers
p334
sI338
Vcorrections
p335
sI339
Valster
p336
sI340
Vprogramme
p337
sI341
Vuralic
p338
sI342
Vcaught
p339
sI343
Vindustrial
p340
sI344
Vfeatures
p341
sI345
Vthereon
p342
sI346
Vresearcher
p343
sI347
Vez
p344
sI348
Vhearing
p345
sI349
Vproduction
p346
sI350
Vphilosophical
p347
sI351
Vstylistics
p348
sI352
V176
p349
sI353
Vesperanto
p350
sI354
Velectronic
p351
sI355
Vijhcs
p352
sI356
Vservice
p353
sI357
Vtop
p354
sI358
Vtov
p355
sI359
Vfiction
p356
sI360
Vtok
p357
sI361
Vtromsoe
p358
sI362
V1b
p359
sI363
Vmaster
p360
sI364
Vlisted
p361
sI365
Vxiv
p362
sI366
Vworlds
p363
sI367
Vtoc
p364
sI368
Vcorpus
p365
sI369
Vjohn
p366
sI370
Vpaclic12
p367
sI371
Vpaclic10
p368
sI372
Vgeneve
p369
sI373
Vgeneva
p370
sI374
Vserve
p371
sI375
Vdirect
p372
sI376
Vcilca
p373
sI377
Vchairwoman
p374
sI378
Vcorpuys
p375
sI379
Vhelen
p376
sI380
Vtranslingual
p377
sI381
Vtex
p378
sI382
Viwcs
p379
sI383
Vaditjondro
p380
sI384
Vforensic
p381
sI385
Vtree
p382
sI386
Vzero
p383
sI387
Vnations
p384
sI388
Vseminars
p385
sI389
Vbigrams
p386
sI390
Vclasses
p387
sI391
Vhistorical
p388
sI392
Vflorida
p389
sI393
V10th
p390
sI394
Vdiachrony
p391
sI395
Vhayo
p392
sI396
Vacquisition
p393
sI397
Vperspective
p394
sI398
Vmini
p395
sI399
Vsecrets
p396
sI400
Valaa
p397
sI401
Vkiyoshi
p398
sI402
Vdisambiguation
p399
sI403
Vmodern
p400
sI404
Vmind
p401
sI405
Vmine
p402
sI406
Vglass
p403
sI407
Vparsers
p404
sI408
Vsocio
p405
sI409
Vrap
p406
sI410
Vseen
p407
sI411
Vseminar
p408
sI412
Vin-aid
p409
sI413
Vhispanic
p410
sI414
V-
sI415
Vsnow
p411
sI416
Vlacl98
p412
sI417
Vdialectologists
p413
sI418
Vcontact
p414
sI419
Vchess
p415
sI420
Vparis
p416
sI421
Vlayoffs
p417
sI422
Vlexicogrammar
p418
sI423
Vthough
p419
sI424
Vobject
p420
sI425
Vtranslator
p421
sI426
Vgermany
p422
sI427
Vletter
p423
sI428
Vhacek
p424
sI429
Vphonological
p425
sI430
Vglot
p426
sI431
Vthe
p427
sI432
Vlexis
p428
sI433
Vglow
p429
sI434
Vzealand
p430
sI435
Vreleased
p431
sI436
Vijsl
p432
sI437
Vmedical
p433
sI438
Vm
sI439
Vchiini
p434
sI440
Vyours
p435
sI441
Vsuo
p436
sI442
Vdefinitely
p437
sI443
Vsprachwissenschaft
p438
sI444
Vdos
p439
sI445
Vnineteenth
p440
sI446
Vuptalk
p441
sI447
Vmailing
p442
sI448
Vsection
p443
sI449
Vpidgins
p444
sI450
Vconference-5
p445
sI451
V1143
p446
sI452
Vnominalization
p447
sI453
Vlabels
p448
sI454
Vsexist
p449
sI455
Vsyntax
p450
sI456
Vsexism
p451
sI457
Visfc
p452
sI458
Vmake
p453
sI459
Vpick
p454
sI460
Vairlines
p455
sI461
Vuninflected
p456
sI462
Vsubmit
p457
sI463
Vterminologie
p458
sI464
Vdebts
p459
sI465
Vconsole
p460
sI466
Vkassel
p461
sI467
V543
p462
sI468
Vtheme
p463
sI469
Vgreenberg
p464
sI470
Vrich
p465
sI471
Vannounce
p466
sI472
Vocr
p467
sI473
Vcfps
p468
sI474
Vcheng
p469
sI475
Viatl
p470
sI476
Vwide
p471
sI477
Vde
p472
sI478
Vvowels
p473
sI479
V13
p474
sI480
Vgogo
p475
sI481
Vapple-iss
p476
sI482
Valtavista
p477
sI483
Vturkic
p478
sI484
Vnegated
p479
sI485
Vreport
p480
sI486
Vinstructor
p481
sI487
Vdu
p482
sI488
Vdr
p483
sI489
Vearn
p484
sI490
Vtextbooks
p485
sI491
Vidioms
p486
sI492
Vmidamerica
p487
sI493
Vacknowledgments
p488
sI494
Vbad
p489
sI495
V417
p490
sI496
Vinternships
p491
sI497
Vems
p492
sI498
V413
p493
sI499
Vrelease
p494
sI500
Vflutter
p495
sI501
Vlinguist
p496
sI502
Vexplanations
p497
sI503
Vebicc
p498
sI504
Vrespond
p499
sI505
Vleasing
p500
sI506
Vreference
p501
sI507
Vicla
p502
sI508
Vprototypical
p503
sI509
Vtechniques
p504
sI510
Vbrazil
p505
sI511
Vvoyage
p506
sI512
Vattitudes
p507
sI513
V06
p508
sI514
V04
p509
sI515
Vlots
p510
sI516
V08
p511
sI517
Virs
p512
sI518
Vrings
p513
sI519
Vshaved
p514
sI520
Vartificial
p515
sI521
Vbaal
p516
sI522
Vsign-singing
p517
sI523
Vmuc
p518
sI524
V12ichl
p519
sI525
Vconceptual
p520
sI526
Vauthor
p521
sI527
Vapproach
p522
sI528
Vdiscovery
p523
sI529
Vwe
p524
sI530
Vterms
p525
sI531
V128
p526
sI532
Vweak
p527
sI533
Vwh
p528
sI534
V381
p529
sI535
Vicelandic
p530
sI536
Vws
p531
sI537
V386
p532
sI538
Vwp
p533
sI539
Vnews
p534
sI540
Vostertag
p535
sI541
V34th
p536
sI542
Vliposuction
p537
sI543
Vrightward
p538
sI544
Vila
p539
sI545
Vcountry
p540
sI546
Vdisseminate
p541
sI547
Vagainst
p542
sI548
Vhamada
p543
sI549
Vunc
p544
sI550
Vcolloquium
p545
sI551
Viron
p546
sI552
Vlogic
p547
sI553
Vintensive
p548
sI554
Vadapted
p549
sI555
Vasked
p550
sI556
Vcon
p551
sI557
Vand
p552
sI558
Vtone
p553
sI559
Vhad
p554
sI560
Vgopher
p555
sI561
V2nd
p556
sI562
Vtons
p557
sI563
Vlinguistically
p558
sI564
Vtilburg
p559
sI565
Vstudia
p560
sI566
Vconference
p561
sI567
Vkoyra
p562
sI568
Vengines
p563
sI569
Vsource
p564
sI570
V60852
p565
sI571
Vbeen
p566
sI572
V.
sI573
Vadvert
p567
sI574
Vinterest
p568
sI575
Vbasic
p569
sI576
Vtutorials
p570
sI577
Vshinri
p571
sI578
Vlovely
p572
sI579
Vtopics
p573
sI580
Vwebsite
p574
sI581
Vdry
p575
sI582
Vlife
p576
sI583
Vprosperous
p577
sI584
Veastern
p578
sI585
Vpacling
p579
sI586
V900
p580
sI587
Vsigir98
p581
sI588
Vrelevance
p582
sI589
Vsycophants
p583
sI590
Vcuny
p584
sI591
Vchild
p585
sI592
Vaffixes
p586
sI593
V167
p587
sI594
V161
p588
sI595
Vapplied
p589
sI596
Veast
p590
sI597
Vsumerologists
p591
sI598
Vsynchronic
p592
sI599
Vsampson
p593
sI600
Vtang
p594
sI601
Vlctl
p595
sI602
Vkentucky
p596
sI603
Vn
sI604
Vdept
p597
sI605
Vapocryphal
p598
sI606
Vteachers
p599
sI607
Vsle
p600
sI608
Vlabphon6
p601
sI609
Vsla
p602
sI610
Vprovisional
p603
sI611
Vcont
p604
sI612
Vconcordancer
p605
sI613
Vconv
p606
sI614
Vmexico
p607
sI615
Vdiscourses
p608
sI616
Vseparatism
p609
sI617
Vis
p610
sI618
Vit
p611
sI619
Viv
p612
sI620
Vii
p613
sI621
Vneed
p614
sI622
Vik
p615
sI623
Vmarco
p616
sI624
Vil
p617
sI625
Vconf
p618
sI626
Vin
p619
sI627
Vcomparative
p620
sI628
Vfarsi
p621
sI629
Vie
p622
sI630
Vid
p623
sI631
Vif
p624
sI632
Valasa
p625
sI633
Vhong
p626
sI634
Vspecialization
p627
sI635
Vintrasentential
p628
sI636
Vcredit
p629
sI637
Vpragma99
p630
sI638
Vpunctuation
p631
sI639
Vwound
p632
sI640
Vbella
p633
sI641
Vmodality
p634
sI642
Vaction
p635
sI643
Vcoola
p636
sI644
Vsuccess
p637
sI645
Vfieldwork
p638
sI646
Veuropean
p639
sI647
Vindependent
p640
sI648
Vskyrocket
p641
sI649
Vwelsh
p642
sI650
Vnic
p643
sI651
Vhana
p644
sI652
V97-98
p645
sI653
Vclosings
p646
sI654
Vicoll
p647
sI655
Vrain
p648
sI656
Vhand
p649
sI657
Vsapir-whorf
p650
sI658
Vcharacters
p651
sI659
Vgerman-english
p652
sI660
Vhans
p653
sI661
Vopportunity
p654
sI662
Vaisb
p655
sI663
Vliteratures
p656
sI664
Vkept
p657
sI665
Vslrf
p658
sI666
Vintrusion
p659
sI667
Vprograms
p660
sI668
Vchangpei
p661
sI669
Vacademic
p662
sI670
Vsavings
p663
sI671
Vacademia
p664
sI672
Vgreatest
p665
sI673
Vquantitative
p666
sI674
Valabama
p667
sI675
V800
p668
sI676
Vinvestments
p669
sI677
Vkinship
p670
sI678
Vconsciousness
p671
sI679
Vsentence
p672
sI680
Vxv
p673
sI681
Vinterrogatives
p674
sI682
Videas
p675
sI683
Vstandardisation
p676
sI684
Vranlp
p677
sI685
Vaugias
p678
sI686
Vthanks
p679
sI687
Vhuman
p680
sI688
Vyet
p681
sI689
Vproofing
p682
sI690
Vlasso
p683
sI691
Vatip
p684
sI692
Vdialogues
p685
sI693
Vaa29536
p686
sI694
Vendangered
p687
sI695
Vcornell
p688
sI696
Vcharacter
p689
sI697
Veasy
p690
sI698
V31
p691
sI699
Vfares
p692
sI700
Vopenings
p693
sI701
Vamazonian
p694
sI702
Vdesire
p695
sI703
Vusable
p696
sI704
Vmaya
p697
sI705
Vadvances
p698
sI706
Vpossible
p699
sI707
Vfast
p700
sI708
Vcultural
p701
sI709
Vbackground
p702
sI710
Vsilverman
p703
sI711
Vtense-aspect
p704
sI712
Vunique
p705
sI713
Vadvanced
p706
sI714
Vcognitive
p707
sI715
Vchiphon
p708
sI716
Vsemi
p709
sI717
Vgift
p710
sI718
V55
p711
sI719
V57
p712
sI720
Vpostpositions
p713
sI721
Vlocatives
p714
sI722
V52
p715
sI723
Vspecific
p716
sI724
Voaxaca
p717
sI725
Vflaps
p718
sI726
Vwebentrepreneurs
p719
sI727
Valgonquian
p720
sI728
Vesrc
p721
sI729
Vportuguese
p722
sI730
Vwww
p723
sI731
Vperforming
p724
sI732
Vold
p725
sI733
Vpeople
p726
sI734
Vkiddin
p727
sI735
V50
p728
sI736
Vintern
p729
sI737
Vpenutian
p730
sI738
Vnmrh
p731
sI739
Vdear
p732
sI740
Vpain
p733
sI741
Vadvertise
p734
sI742
Vmazel
p735
sI743
Vaustronesian
p736
sI744
Vzu3
p737
sI745
Vsociology
p738
sI746
Vhumor
p739
sI747
Vclash
p740
sI748
Vfor
p741
sI749
Vicl
p742
sI750
Vcolloque
p743
sI751
Vschilling
p744
sI752
V/
sI753
V429
p745
sI754
Vsyllable
p746
sI755
Vlg
p747
sI756
V421
p748
sI757
V420
p749
sI758
Vchristmas
p750
sI759
V427
p751
sI760
Vslavic
p752
sI761
Vbold
p753
sI762
Vbaltics
p754
sI763
Vdental
p755
sI764
Vconformation
p756
sI765
Vinnateness
p757
sI766
Vplc
p758
sI767
Vcoswl
p759
sI768
Vsinica
p760
sI769
Vpost
p761
sI770
Vcocosda-97
p762
sI771
Vemail-secrets
p763
sI772
Vnewspapers
p764
sI773
Vmonths
p765
sI774
Vintercultural
p766
sI775
Vo
sI776
Vsycophant
p767
sI777
Vfromkin
p768
sI778
Vpaclic
p769
sI779
Vplus
p770
sI780
Vislands
p771
sI781
Vsept
p772
sI782
Vconsulting
p773
sI783
Vpublishing
p774
sI784
Vformerly
p775
sI785
Vamericanist
p776
sI786
Vparsing
p777
sI787
Vdown
p778
sI788
Vfreshman
p779
sI789
Vright
p780
sI790
Vamsterdam
p781
sI791
Vanaphora
p782
sI792
Vtami
p783
sI793
Vaccordo
p784
sI794
Vsupport
p785
sI795
Vinitial
p786
sI796
Vlegislation
p787
sI797
Vnova
p788
sI798
Vavail
p789
sI799
Vdong
p790
sI800
Vconservation
p791
sI801
Veditor
p792
sI802
Vmusic
p793
sI803
Vwas
p794
sI804
Vlagb
p795
sI805
Vsynthesis
p796
sI806
Vhead
p797
sI807
Vlistserv
p798
sI808
Vfqtfsqvb
p799
sI809
Voffering
p800
sI810
Voffer
p801
sI811
Vtaboo
p802
sI812
Vbecoming
p803
sI813
Vdifferences
p804
sI814
Vforever
p805
sI815
Vspeedracer
p806
sI816
Vfeminine
p807
sI817
Vincorporation
p808
sI818
Vbengali
p809
sI819
Vstand
p810
sI820
Vfirth
p811
sI821
V221
p812
sI822
Vweek
p813
sI823
Vdialectology
p814
sI824
Vsilliness
p815
sI825
Vversions
p816
sI826
Vharmony
p817
sI827
Vinside
p818
sI828
Veuralex
p819
sI829
Vijb
p820
sI830
Vuntil
p821
sI831
Vmth
p822
sI832
Vcreolistics
p823
sI833
Vmarburg
p824
sI834
Vdefinites
p825
sI835
Vcomputing
p826
sI836
Vbulgarian
p827
sI837
Vtextbook
p828
sI838
Vphoneme
p829
sI839
Vsaltwater
p830
sI840
Vbantu
p831
sI841
Vperez
p832
sI842
Vgenderless
p833
sI843
Vhypnosis
p834
sI844
Vcheck
p835
sI845
Vphysical
p836
sI846
Vtesl
p837
sI847
Vmarking
p838
sI848
Vnl
p839
sI849
Vno
p840
sI850
Vcommercials
p841
sI851
Vwhen
p842
sI852
Vproceedings
p843
sI853
Vreality
p844
sI854
Vnon-linguists
p845
sI855
Vinterested
p846
sI856
Vtutorial
p847
sI857
Vstudentships
p848
sI858
Vdigital
p849
sI859
Vnp
p850
sI860
Vns
p851
sI861
Vlinguistnet
p852
sI862
V's
p853
sI863
Vembodied
p854
sI864
Vmodels
p855
sI865
Vdies
p856
sI866
Vramanzo
p857
sI867
Vupdate
p858
sI868
Vsyldavian
p859
sI869
V'd
p860
sI870
Voncall
p861
sI871
Vreplacement
p862
sI872
Vhittite
p863
sI873
V82936699
p864
sI874
Vmdia
p865
sI875
Vgasla
p866
sI876
Vreduplicative
p867
sI877
Vpseudo
p868
sI878
Vconnecticut
p869
sI879
Vfunctionalism
p870
sI880
Vtime
p871
sI881
Vserious
p872
sI882
Vn2
p873
sI883
Vnewbie
p874
sI884
Vrom
p875
sI885
Vannoncement
p876
sI886
Vreviewers
p877
sI887
Vadjs
p878
sI888
Vfocus
p879
sI889
Vllt
p880
sI890
Vleads
p881
sI891
Vmanager
p882
sI892
Vlexicon
p883
sI893
Vice
p884
sI894
Vcomputation
p885
sI895
Vmorphology
p886
sI896
Vpoetry
p887
sI897
Vchair
p888
sI898
V93
p889
sI899
V92
p890
sI900
Vdisorders
p891
sI901
Velizabeth
p892
sI902
Vflash
p893
sI903
Veditors
p894
sI904
Vblocking
p895
sI905
V0
sI906
Vfinally
p896
sI907
Vumich
p897
sI908
V810
p898
sI909
Vkolloquium
p899
sI910
Vsouthwest
p900
sI911
Vdivision
p901
sI912
Vmyles
p902
sI913
V1250
p903
sI914
Vpisin
p904
sI915
Vfrequencies
p905
sI916
Vbilingualism
p906
sI917
Vwo
p907
sI918
Vepia
p908
sI919
Vcook
p909
sI920
Vgenitive
p910
sI921
Vsubcategorization
p911
sI922
Vcool
p912
sI923
Vramstedt
p913
sI924
V1997
p914
sI925
Vlevel
p915
sI926
Vdid
p916
sI927
V12th
p917
sI928
Vproposals
p918
sI929
Vspecials
p919
sI930
Vitem
p920
sI931
Vparticipation
p921
sI932
Vespanol
p922
sI933
Vquick
p923
sI934
Vmanchester
p924
sI935
Vdiv
p925
sI936
Vperceptual
p926
sI937
Vhaceks
p927
sI938
Vrevolution
p928
sI939
Vregret
p929
sI940
Vpsycholinguistics
p930
sI941
Vquantifiers
p931
sI942
Vsigh
p932
sI943
Vdiscover
p933
sI944
Vsign
p934
sI945
Vatomism
p935
sI946
Vcontrastive
p936
sI947
V524
p937
sI948
Vannouncment
p938
sI949
Vhaskins
p939
sI950
Von-glides
p940
sI951
Vprofessur
p941
sI952
Vinternational
p942
sI953
Vfalling
p943
sI954
Vappeal
p944
sI955
Vconsolidations
p945
sI956
V1237
p946
sI957
Vwail
p947
sI958
Vmarketing
p948
sI959
Vv
sI960
Vfrench
p949
sI961
Vunderstanding
p950
sI962
Vwater
p951
sI963
Vdrug
p952
sI964
Vlangages
p953
sI965
Vaddress
p954
sI966
Vdandruff
p955
sI967
V[
sI968
Vteacher
p956
sI969
Vchange
p957
sI970
Vtempo-aspettuale
p958
sI971
Vreformatting
p959
sI972
Vchomskyan
p960
sI973
Vcanadian
p961
sI974
Vinstitute
p962
sI975
Vtrial
p963
sI976
Vsimultaneous
p964
sI977
Vfranklin
p965
sI978
Vetymo-dicts
p966
sI979
Vstudies
p967
sI980
Vmontreal
p968
sI981
Vmacintosh
p969
sI982
Vipa
p970
sI983
V1sg
p971
sI984
Vhumour
p972
sI985
Vextra
p973
sI986
Vexpletive
p974
sI987
Vlogical
p975
sI988
Vxenical
p976
sI989
Vdurham
p977
sI990
Vcentenary
p978
sI991
V1st
p979
sI992
Vplanck
p980
sI993
Vmarket
p981
sI994
Varief
p982
sI995
Vwealth
p983
sI996
Vworking
p984
sI997
Vbrighter
p985
sI998
V0500
p986
sI999
Vmsu
p987
sI1000
Vvisit
p988
sI1001
Vfrance
p989
sI1002
Vlive
p990
sI1003
Vteeth
p991
sI1004
Vaustralian
p992
sI1005
Vangels
p993
sI1006
Vial
p994
sI1007
Vdiagrams
p995
sI1008
V``
p996
sI1009
Vmarkedness
p997
sI1010
Vtts
p998
sI1011
Vsessions
p999
sI1012
Vclub
p1000
sI1013
Vneurophysiology
p1001
sI1014
Vcurriculum
p1002
sI1015
Vassimilation
p1003
sI1016
V550
p1004
sI1017
Vvisual
p1005
sI1018
Vappel
p1006
sI1019
Vaccept
p1007
sI1020
Vparticipiale
p1008
sI1021
Vhispanistas
p1009
sI1022
Vinsights
p1010
sI1023
Vbisfai
p1011
sI1024
Vmigrants
p1012
sI1025
Va-12
p1013
sI1026
Vjulius
p1014
sI1027
Vroscoe
p1015
sI1028
Vconstraint
p1016
sI1029
Vmodified
p1017
sI1030
Vreviews
p1018
sI1031
Vnoveau
p1019
sI1032
Vsaussure
p1020
sI1033
Vcan
p1021
sI1034
V9th
p1022
sI1035
Vjakobson
p1023
sI1036
Vfollowing
p1024
sI1037
Vmaking
p1025
sI1038
Vmodifier
p1026
sI1039
Vroundtable
p1027
sI1040
Vshow-ers
p1028
sI1041
Vspy
p1029
sI1042
Vkyo
p1030
sI1043
Vstream
p1031
sI1044
Vdecember
p1032
sI1045
Vagent
p1033
sI1046
Vsample
p1034
sI1047
Vdebt-free
p1035
sI1048
Vrefine
p1036
sI1049
Vnek
p1037
sI1050
Vallowed
p1038
sI1051
Vcounting
p1039
sI1052
Vpaulston
p1040
sI1053
Vproductive
p1041
sI1054
Vrequirements
p1042
sI1055
Vwinter
p1043
sI1056
Vdiscussion
p1044
sI1057
Vmagazine
p1045
sI1058
V1
sI1059
Vetymological
p1046
sI1060
Vfourth
p1047
sI1061
Voptimal
p1048
sI1062
Vspeaks
p1049
sI1063
Vparameter
p1050
sI1064
Vlehrstuhl
p1051
sI1065
V146
p1052
sI1066
Vedinburgh
p1053
sI1067
Vproduct
p1054
sI1068
Vmar
p1055
sI1069
Vvijver
p1056
sI1070
Vdialog
p1057
sI1071
Vinformation
p1058
sI1072
Vmay
p1059
sI1073
Vmax
p1060
sI1074
Vsouthern
p1061
sI1075
Vneeds
p1062
sI1076
Vapplications
p1063
sI1077
Vmac
p1064
sI1078
V4th
p1065
sI1079
Veverall
p1066
sI1080
Vdate
p1067
sI1081
Vsociolinguistics
p1068
sI1082
Vendgame
p1069
sI1083
Vjournals
p1070
sI1084
Vinsitute
p1071
sI1085
Vman
p1072
sI1086
Vclassroom
p1073
sI1087
Vstress
p1074
sI1088
Vnoun
p1075
sI1089
Vvarieties
p1076
sI1090
V6th
p1077
sI1091
Veng
p1078
sI1092
Vborrowing
p1079
sI1093
Vst
p1080
sI1094
Vq
sI1095
Vfrancais
p1081
sI1096
Vburmese
p1082
sI1097
Vso
p1083
sI1098
Vkaramojong
p1084
sI1099
Vtalc
p1085
sI1100
Vafrican
p1086
sI1101
Vrepresentation
p1087
sI1102
Vyouthese
p1088
sI1103
Vtaln
p1089
sI1104
Vtalk
p1090
sI1105
Vtwendial
p1091
sI1106
Vcelao
p1092
sI1107
Vtagged
p1093
sI1108
Vestuary
p1094
sI1109
Vlsa
p1095
sI1110
Vwebpage
p1096
sI1111
Vconstituents
p1097
sI1112
Vkong
p1098
sI1113
Vcourse
p1099
sI1114
Vtagger
p1100
sI1115
Vstatistical
p1101
sI1116
Vpromote
p1102
sI1117
Vronde
p1103
sI1118
Vjie
p1104
sI1119
Vgroup
p1105
sI1120
Vthank
p1106
sI1121
Vswadesh
p1107
sI1122
Vorganisation
p1108
sI1123
Vhot
p1109
sI1124
Vattraction
p1110
sI1125
V939
p1111
sI1126
Vlisting
p1112
sI1127
Vpolicy
p1113
sI1128
Vmail
p1114
sI1129
Vnystesol
p1115
sI1130
Vtexas
p1116
sI1131
Vhappened
p1117
sI1132
Vcorrespondence
p1118
sI1133
Vnon
p1119
sI1134
Vfinance
p1120
sI1135
Vohio-state
p1121
sI1136
Vevolution
p1122
sI1137
Vindigenous
p1123
sI1138
Vbisca-98
p1124
sI1139
Vannounced
p1125
sI1140
Vconquer
p1126
sI1141
Vsubscribers
p1127
sI1142
Vhalf
p1128
sI1143
Vnot
p1129
sI1144
Vnov
p1130
sI1145
Vnow
p1131
sI1146
V1958
p1132
sI1147
Vdevelopments
p1133
sI1148
Vgroningen
p1134
sI1149
Vinversion
p1135
sI1150
Vweisgerber
p1136
sI1151
Vname
p1137
sI1152
Vsophomore
p1138
sI1153
Vpenpals
p1139
sI1154
Vjanuary
p1140
sI1155
V7310
p1141
sI1156
Vrock
p1142
sI1157
Vsmtp
p1143
sI1158
V826
p1144
sI1159
V823
p1145
sI1160
Vel
p1146
sI1161
Vdomain
p1147
sI1162
Ven
p1148
sI1163
Vkruse
p1149
sI1164
Vlatin
p1150
sI1165
Vcyberspace
p1151
sI1166
Vee
p1152
sI1167
Ved
p1153
sI1168
Vrevised
p1154
sI1169
Vea
p1155
sI1170
Vstieber
p1156
sI1171
Vconventions
p1157
sI1172
Vpersian
p1158
sI1173
V1484
p1159
sI1174
Veu
p1160
sI1175
Vet
p1161
sI1176
Vkant
p1162
sI1177
Vceth
p1163
sI1178
Vfu
p1164
sI1179
V797
p1165
sI1180
V793
p1166
sI1181
V792
p1167
sI1182
V3rd
p1168
sI1183
Vspace
p1169
sI1184
Vprofit
p1170
sI1185
Vcancels
p1171
sI1186
V798
p1172
sI1187
Vlooking
p1173
sI1188
Vnominal
p1174
sI1189
Vsibilant
p1175
sI1190
Vwccfl
p1176
sI1191
Vinternet
p1177
sI1192
Vcorrect
p1178
sI1193
Vtheory
p1179
sI1194
Vplm
p1180
sI1195
V1995
p1181
sI1196
V96-97
p1182
sI1197
Vdivergence
p1183
sI1198
Vrecordings
p1184
sI1199
Vdependencies
p1185
sI1200
Vcalifornia
p1186
sI1201
Vglosses
p1187
sI1202
Vorg
p1188
sI1203
Vcreoles
p1189
sI1204
Vcard
p1190
sI1205
Vcare
p1191
sI1206
Vtraining
p1192
sI1207
Vlanguage
p1193
sI1208
Vyup
p1194
sI1209
Vprogramming
p1195
sI1210
Vlately
p1196
sI1211
Vbritish
p1197
sI1212
V4971
p1198
sI1213
Vturn
p1199
sI1214
Vplace
p1200
sI1215
Vinvitation
p1201
sI1216
Vpromotion
p1202
sI1217
Vchildhood
p1203
sI1218
Vsumiko
p1204
sI1219
Vfirst
p1205
sI1220
Vromanic
p1206
sI1221
Vadpositional
p1207
sI1222
Vintuition
p1208
sI1223
Vhenry
p1209
sI1224
V1221
p1210
sI1225
Vroelofs
p1211
sI1226
Vspoken
p1212
sI1227
Vhypermedia
p1213
sI1228
Vwollic
p1214
sI1229
Vsymbolic
p1215
sI1230
Vone
p1216
sI1231
Vpredicates
p1217
sI1232
Vlong
p1218
sI1233
Vperiodical
p1219
sI1234
Vspanish
p1220
sI1235
Vgenerative
p1221
sI1236
Vsounds
p1222
sI1237
Vopen
p1223
sI1238
Vgeorge
p1224
sI1239
Vsize
p1225
sI1240
Vcity
p1226
sI1241
Vjeonju
p1227
sI1242
Vphonetics
p1228
sI1243
Vamlap
p1229
sI1244
Vanderson
p1230
sI1245
Vfm
p1231
sI1246
Vanyone
p1232
sI1247
Vreturns
p1233
sI1248
V2
sI1249
Vdraft
p1234
sI1250
Vconvention
p1235
sI1251
Vasllrp
p1236
sI1252
Vlegally
p1237
sI1253
Vnels-29
p1238
sI1254
Vstructures
p1239
sI1255
Vspeaking
p1240
sI1256
Vgives
p1241
sI1257
Vexploring
p1242
sI1258
Vwebnet
p1243
sI1259
Vthat
p1244
sI1260
Vrevue
p1245
sI1261
Vmoscow
p1246
sI1262
Vcontinuous
p1247
sI1263
Vtorrego
p1248
sI1264
Varround
p1249
sI1265
Vtuttle
p1250
sI1266
Vrandomised
p1251
sI1267
Vthai
p1252
sI1268
Vcopy
p1253
sI1269
Vrepresenting
p1254
sI1270
Vthan
p1255
sI1271
Vsemantics
p1256
sI1272
Vmetalangage
p1257
sI1273
V11
p1258
sI1274
V10
p1259
sI1275
Vicslp
p1260
sI1276
V12
p1261
sI1277
V15
p1262
sI1278
V14
p1263
sI1279
V16
p1264
sI1280
V19
p1265
sI1281
Vr
sI1282
Vcards
p1266
sI1283
Vproofread
p1267
sI1284
Vbrowser
p1268
sI1285
Vpre
p1269
sI1286
Vsao
p1270
sI1287
Vsan
p1271
sI1288
Vbolognesi
p1272
sI1289
Vsac
p1273
sI1290
Vcorrection
p1274
sI1291
Vargument
p1275
sI1292
Vvoices
p1276
sI1293
V13th
p1277
sI1294
Vanu
p1278
sI1295
Vrecursos
p1279
sI1296
Vallen
p1280
sI1297
Vany
p1281
sI1298
Vspeakers
p1282
sI1299
Vcomputationally
p1283
sI1300
Vform
p1284
sI1301
Valias
p1285
sI1302
Vtranscription
p1286
sI1303
Vforeigner
p1287
sI1304
Vconsortium
p1288
sI1305
Vsemcom
p1289
sI1306
Vequipment
p1290
sI1307
Videal
p1291
sI1308
Vtake
p1292
sI1309
Vonline
p1293
sI1310
Vperformance
p1294
sI1311
Veuropeans
p1295
sI1312
Vimpairment
p1296
sI1313
Vswitching
p1297
sI1314
Vultimate
p1298
sI1315
Vinstanly
p1299
sI1316
V200
p1300
sI1317
Vimperatives
p1301
sI1318
Vmultiple
p1302
sI1319
Vtrack
p1303
sI1320
V816-356
p1304
sI1321
Vicsnl
p1305
sI1322
Vpaid
p1306
sI1323
Vbeta
p1307
sI1324
Vtract
p1308
sI1325
Vremarks
p1309
sI1326
Vevaluator
p1310
sI1327
Vamerica
p1311
sI1328
V]
sI1329
Vlatex
p1312
sI1330
Vecai
p1313
sI1331
Vsalk
p1314
sI1332
Vrefunds
p1315
sI1333
V31st
p1316
sI1334
Vautosegmental
p1317
sI1335
Vsale
p1318
sI1336
Vprofessional
p1319
sI1337
Vsalt
p1320
sI1338
Vfiling
p1321
sI1339
Vlipolalia
p1322
sI1340
Vgrepping
p1323
sI1341
Vnlp
p1324
sI1342
Vshor
p1325
sI1343
Vluganda
p1326
sI1344
Vgerman
p1327
sI1345
Vfulbright
p1328
sI1346
Vworkshops
p1329
sI1347
Vperce
p1330
sI1348
Vcontemporary
p1331
sI1349
Vrussian
p1332
sI1350
Vcomputationally-intensive
p1333
sI1351
Vnlg
p1334
sI1352
Vdata
p1335
sI1353
Vxxvii
p1336
sI1354
Vfifth
p1337
sI1355
Vground
p1338
sI1356
V2525
p1339
sI1357
Vboundaries
p1340
sI1358
Vslow
p1341
sI1359
Vfhcg-98
p1342
sI1360
Vtitle
p1343
sI1361
Vromanian
p1344
sI1362
Vunix
p1345
sI1363
Vdick
p1346
sI1364
Vstate
p1347
sI1365
Vdoctorants
p1348
sI1366
Vanalytic
p1349
sI1367
Vonly
p1350
sI1368
Vgoing
p1351
sI1369
Vblack
p1352
sI1370
Vheinrich
p1353
sI1371
Vcarolina
p1354
sI1372
Vinformatique
p1355
sI1373
Vviva
p1356
sI1374
Vhungarian
p1357
sI1375
Vget
p1358
sI1376
Vassistant
p1359
sI1377
Vmorphological
p1360
sI1378
Vrmmla
p1361
sI1379
Vintonation
p1362
sI1380
Vlagerwerf
p1363
sI1381
Vmandarin
p1364
sI1382
Vnels
p1365
sI1383
Vconjunction
p1366
sI1384
Vmanuscripts
p1367
sI1385
Vssc
p1368
sI1386
Vircs
p1369
sI1387
Vclosure
p1370
sI1388
Vregarding
p1371
sI1389
Vresource
p1372
sI1390
Vxxxnet
p1373
sI1391
Vmorphophonemics
p1374
sI1392
Vmon
p1375
sI1393
Vsummary
p1376
sI1394
Voverworked
p1377
sI1395
Vjokes
p1378
sI1396
Vresourcs
p1379
sI1397
Vleur
p1380
sI1398
Vesslli98
p1381
sI1399
Vwatch
p1382
sI1400
Vnameserver
p1383
sI1401
V923
p1384
sI1402
Vcross-cultural
p1385
sI1403
Vcapitalfm
p1386
sI1404
Vsiouan
p1387
sI1405
Vfellowships
p1388
sI1406
Vlangacker
p1389
sI1407
Vrelative
p1390
sI1408
Vcollege
p1391
sI1409
Vmilwaukee
p1392
sI1410
Vmitxelena
p1393
sI1411
Vsurgery
p1394
sI1412
Vpostdoc
p1395
sI1413
Vunderpaid
p1396
sI1414
Vverb-particles
p1397
sI1415
Visraeli
p1398
sI1416
V836
p1399
sI1417
Vcompounds
p1400
sI1418
Vmanaging
p1401
sI1419
Vharvey
p1402
sI1420
Vreview
p1403
sI1421
Vlexical
p1404
sI1422
Vsites
p1405
sI1423
Vmaterials
p1406
sI1424
Vhist
p1407
sI1425
V3
sI1426
Vtea
p1408
sI1427
Vbetween
p1409
sI1428
Vcgsw
p1410
sI1429
Vreading
p1411
sI1430
Vacross
p1412
sI1431
V3cde
p1413
sI1432
Vaffordable
p1414
sI1433
Vnotice
p1415
sI1434
Vjobs
p1416
sI1435
Vaugust
p1417
sI1436
Vcomp
p1418
sI1437
Vtut
p1419
sI1438
Vcheap
p1420
sI1439
Vrevealed
p1421
sI1440
Vawards
p1422
sI1441
Varmenian
p1423
sI1442
Vjk
p1424
sI1443
Varticle
p1425
sI1444
Vcome
p1426
sI1445
Vtue
p1427
sI1446
Vcoupons
p1428
sI1447
Vdates
p1429
sI1448
Vacquiring
p1430
sI1449
V22
p1431
sI1450
V783
p1432
sI1451
Vintonational
p1433
sI1452
Vmany
p1434
sI1453
Vcars
p1435
sI1454
Vdeduction
p1436
sI1455
Vs
sI1456
Vdated
p1437
sI1457
Vsolicited
p1438
sI1458
Vprecoling
p1439
sI1459
Vsemitic
p1440
sI1460
Vathapaskan
p1441
sI1461
Viascl
p1442
sI1462
Vpilsudski
p1443
sI1463
Vfiltering
p1444
sI1464
Vdiachronic
p1445
sI1465
Voverview
p1446
sI1466
Vdislocations
p1447
sI1467
V60
p1448
sI1468
Vclite1
p1449
sI1469
Vgrants
p1450
sI1470
Vclaw98
p1451
sI1471
Vassertions
p1452
sI1472
Vlearning
p1453
sI1473
Vje
p1454
sI1474
V68
p1455
sI1475
Vboas
p1456
sI1476
Vadults
p1457
sI1477
Vsave
p1458
sI1478
Vhattori
p1459
sI1479
Vwest
p1460
sI1480
Vtheorizing
p1461
sI1481
Vconsonants
p1462
sI1482
Vvacation
p1463
sI1483
Vevolutionary
p1464
sI1484
Vworkshop
p1465
sI1485
Vjudging
p1466
sI1486
Vlinguistic
p1467
sI1487
V111000
p1468
sI1488
V500
p1469
sI1489
V501
p1470
sI1490
Vshopping
p1471
sI1491
Velvis
p1472
sI1492
Vcausatives
p1473
sI1493
Vstudentship
p1474
sI1494
Viccip
p1475
sI1495
Vclassicalphilology
p1476
sI1496
Voptimality
p1477
sI1497
Vcascadilla
p1478
sI1498
Vinstant
p1479
sI1499
Vhardcore
p1480
sI1500
Vscobbie
p1481
sI1501
Vrealities
p1482
sI1502
Vthose
p1483
sI1503
V^
sI1504
Vsound
p1484
sI1505
Vprocesses
p1485
sI1506
Vthese
p1486
sI1507
Vconsultant
p1487
sI1508
Vsingle
p1488
sI1509
Vrhymes
p1489
sI1510
Vn't
p1490
sI1511
V1107
p1491
sI1512
Vwarning
p1492
sI1513
Vpolicies
p1493
sI1514
V1101
p1494
sI1515
Vsituation
p1495
sI1516
Vconstituency
p1496
sI1517
V1459
p1497
sI1518
V1108
p1498
sI1519
Vpolgardi
p1499
sI1520
Vconferences
p1500
sI1521
Vmandeville
p1501
sI1522
Vtelephone
p1502
sI1523
Vsleeping
p1503
sI1524
Vials
p1504
sI1525
Vbias
p1505
sI1526
Vlasso-27
p1506
sI1527
Vbeaver
p1507
sI1528
Vtechnology
p1508
sI1529
Vwordnet
p1509
sI1530
Vcomments
p1510
sI1531
Vbinary
p1511
sI1532
Vdifferent
p1512
sI1533
Vpullum
p1513
sI1534
Vapril
p1514
sI1535
Vmedia
p1515
sI1536
Vdeseret
p1516
sI1537
Vsame
p1517
sI1538
Vrochebrune
p1518
sI1539
Vconsumer
p1519
sI1540
Vwilhelm
p1520
sI1541
Vspeech
p1521
sI1542
Vreminder
p1522
sI1543
Vdocument
p1523
sI1544
Vevents
p1524
sI1545
Vstatus
p1525
sI1546
Vextended
p1526
sI1547
Vsingapore
p1527
sI1548
Vdrives
p1528
sI1549
Vdirector
p1529
sI1550
Vpersons
p1530
sI1551
Vharris
p1531
sI1552
Vvowel
p1532
sI1553
V%
sI1554
Vinvariance
p1533
sI1555
Vmohawk
p1534
sI1556
Vcoling
p1535
sI1557
Vmacro
p1536
sI1558
Vmelcuk
p1537
sI1559
V32nd
p1538
sI1560
Vccs
p1539
sI1561
Vinvites
p1540
sI1562
Vilsl
p1541
sI1563
Vwithout
p1542
sI1564
Vvery
p1543
sI1565
Vgenie
p1544
sI1566
Vlaboratories
p1545
sI1567
V217
p1546
sI1568
Via
p1547
sI1569
Vnoam
p1548
sI1570
Vjireem
p1549
sI1571
Vmo2
p1550
sI1572
Vvaluable
p1551
sI1573
Vinofficial
p1552
sI1574
Vgreetings
p1553
sI1575
Vn-ary
p1554
sI1576
Vpolish
p1555
sI1577
Vspeed
p1556
sI1578
Vpassives
p1557
sI1579
Vcn
p1558
sI1580
Vannouncement
p1559
sI1581
Vdoctoral
p1560
sI1582
Vgrammatical
p1561
sI1583
Vthinking
p1562
sI1584
V4
sI1585
Vsamples
p1563
sI1586
Vstruck
p1564
sI1587
Vross
p1565
sI1588
Vnasalisation
p1566
sI1589
Vcimql
p1567
sI1590
Vaspects
p1568
sI1591
Vholding
p1569
sI1592
Vtenses
p1570
sI1593
Vesslli-98
p1571
sI1594
Vrules
p1572
sI1595
Vpapers
p1573
sI1596
Vearly
p1574
sI1597
Vdepartment
p1575
sI1598
Vsumm
p1576
sI1599
Vmoo
p1577
sI1600
Vpreference
p1578
sI1601
Vdirectieven
p1579
sI1602
Vsymbolism
p1580
sI1603
Vworld
p1581
sI1604
Vaccepted
p1582
sI1605
Vparticle
p1583
sI1606
Videntifying
p1584
sI1607
Vcollective
p1585
sI1608
Vserver
p1586
sI1609
Vt
sI1610
Vclaw
p1587
sI1611
Vdets
p1588
sI1612
Vwalloon
p1589
sI1613
Vmulder
p1590
sI1614
Vverbal
p1591
sI1615
Vlecturership
p1592
sI1616
Vconditional
p1593
sI1617
Vcompetition
p1594
sI1618
Vchonju
p1595
sI1619
Vanglicization
p1596
sI1620
V7979
p1597
sI1621
Vtable
p1598
sI1622
Vadjuncts
p1599
sI1623
Vcomposers
p1600
sI1624
Vouts
p1601
sI1625
Vmood
p1602
sI1626
Vmicro
p1603
sI1627
Vsudan
p1604
sI1628
Vvariationist
p1605
sI1629
Vlegal
p1606
sI1630
Vcritical
p1607
sI1631
V917
p1608
sI1632
Vcompulsion
p1609
sI1633
Vaccessing
p1610
sI1634
Vluuk
p1611
sI1635
Vund
p1612
sI1636
Vpower
p1613
sI1637
Vquit
p1614
sI1638
Vinternship
p1615
sI1639
Vsixth
p1616
sI1640
Vsymp
p1617
sI1641
Vacoustic
p1618
sI1642
Vthailand
p1619
sI1643
Vafrikaans
p1620
sI1644
Vtesol
p1621
sI1645
V_
sI1646
Vcomplementation
p1622
sI1647
Vcomparison
p1623
sI1648
Vy2k
p1624
sI1649
Vcentral
p1625
sI1650
Vlfg
p1626
sI1651
V841
p1627
sI1652
Vof
p1628
sI1653
Vsri
p1629
sI1654
Vmeaning
p1630
sI1655
Vacm
p1631
sI1656
Vacl
p1632
sI1657
Vacq
p1633
sI1658
Voulipo
p1634
sI1659
Vairline
p1635
sI1660
Vmixed
p1636
sI1661
Vov
p1637
sI1662
Vskytop
p1638
sI1663
Vot
p1639
sI1664
Vor
p1640
sI1665
Vmetaphors
p1641
sI1666
Vop
p1642
sI1667
Vporsche
p1643
sI1668
Vcommunication
p1644
sI1669
Vstromswold
p1645
sI1670
Vucla
p1646
sI1671
Vreferences
p1647
sI1672
Vparties
p1648
sI1673
Voperator
p1649
sI1674
Vtip
p1650
sI1675
Vyour
p1651
sI1676
Vempathetic
p1652
sI1677
Vlogics
p1653
sI1678
Vforwarded
p1654
sI1679
Vher
p1655
sI1680
Vthere
p1656
sI1681
Vician
p1657
sI1682
Vshanghaihua
p1658
sI1683
Vstealth
p1659
sI1684
Vracist
p1660
sI1685
Vlow
p1661
sI1686
Vbrazilian
p1662
sI1687
Vpoliteness
p1663
sI1688
Vcultures
p1664
sI1689
Vysuolvpv
p1665
sI1690
Viambic
p1666
sI1691
Vcomplete
p1667
sI1692
Vspider
p1668
sI1693
Vlaine
p1669
sI1694
Velimination
p1670
sI1695
Vtechnologies
p1671
sI1696
Vsposs
p1672
sI1697
Vwith
p1673
sI1698
Vhottest
p1674
sI1699
Vwholes
p1675
sI1700
Vfaster
p1676
sI1701
V1023
p1677
sI1702
Vlexicographers
p1678
sI1703
Vwholesale
p1679
sI1704
Vlanguaes
p1680
sI1705
Vsacks
p1681
sI1706
Vinternationale
p1682
sI1707
V>
sI1708
Vage
p1683
sI1709
Vyiddish
p1684
sI1710
Vad
p1685
sI1711
Vvideos
p1686
sI1712
Vbarthel
p1687
sI1713
V1205
p1688
sI1714
Vmodals
p1689
sI1715
Vaccents
p1690
sI1716
Vcitation
p1691
sI1717
Vdhumbadji
p1692
sI1718
Van
p1693
sI1719
Vrapide
p1694
sI1720
Vbritain
p1695
sI1721
Vintro
p1696
sI1722
Vat
p1697
sI1723
Vaw
p1698
sI1724
Vay
p1699
sI1725
Vdiversity
p1700
sI1726
Vmoves
p1701
sI1727
Vtechnicia
p1702
sI1728
Vgeisteswissenschaften
p1703
sI1729
Vfilm
p1704
sI1730
Vbancuri
p1705
sI1731
Vagain
p1706
sI1732
Vgenres
p1707
sI1733
Vheather
p1708
sI1734
Vjengl
p1709
sI1735
Vdeserve
p1710
sI1736
Vstorage
p1711
sI1737
Vgraduate
p1712
sI1738
Vigg
p1713
sI1739
V1110
p1714
sI1740
V1113
p1715
sI1741
V5
sI1742
Vtmi95
p1716
sI1743
Vspatial
p1717
sI1744
V1119
p1718
sI1745
Vannouncements
p1719
sI1746
Vyou
p1720
sI1747
V1448
p1721
sI1748
Vopacity
p1722
sI1749
Vrequested
p1723
sI1750
Veurope
p1724
sI1751
Vvocabulary
p1725
sI1752
Vuncollected
p1726
sI1753
Vstudents
p1727
sI1754
Vlexicographer
p1728
sI1755
Vberman
p1729
sI1756
Vslant
p1730
sI1757
Vimportant
p1731
sI1758
Vacl-99
p1732
sI1759
Vqueensland
p1733
sI1760
Vcongreso
p1734
sI1761
Vstocks
p1735
sI1762
Vslang
p1736
sI1763
Vbuilding
p1737
sI1764
Vthematic
p1738
sI1765
Vremote
p1739
sI1766
Vpre-final
p1740
sI1767
Vcalls
p1741
sI1768
Vhaving
p1742
sI1769
Voriental
p1743
sI1770
Vu
sI1771
Vbehavioral
p1744
sI1772
Vdirectory
p1745
sI1773
Vcontext-99
p1746
sI1774
Vresolution
p1747
sI1775
Voriginal
p1748
sI1776
Vlangues
p1749
sI1777
Vdemo
p1750
sI1778
Vgalicismos
p1751
sI1779
Vall
p1752
sI1780
Vsemantic
p1753
sI1781
Vforget
p1754
sI1782
Vceases
p1755
sI1783
Vmetaphor
p1756
sI1784
Venterprizes
p1757
sI1785
Vlacl
p1758
sI1786
Vmonth
p1759
sI1787
Vsystemic
p1760
sI1788
Vdeadline
p1761
sI1789
Vsensei
p1762
sI1790
Vexpressions
p1763
sI1791
Vdeixis
p1764
sI1792
Vchildren
p1765
sI1793
Vpolarity
p1766
sI1794
Vausterlitz
p1767
sI1795
Vdescrambler
p1768
sI1796
Vtx
p1769
sI1797
Vre
p1770
sI1798
Vtv
p1771
sI1799
V30740
p1772
sI1800
Vts
p1773
sI1801
Vopportunities
p1774
sI1802
Vto
p1775
sI1803
Vhwaet
p1776
sI1804
Vprogram
p1777
sI1805
Vwml
p1778
sI1806
Venseignement
p1779
sI1807
Vta
p1780
sI1808
Vweeks
p1781
sI1809
Vactivities
p1782
sI1810
Vkhmer
p1783
sI1811
Vesther
p1784
sI1812
Vpremium
p1785
sI1813
Vjensen
p1786
sI1814
Vconfidential
p1787
sI1815
Vvoicing
p1788
sI1816
Vtranslations
p1789
sI1817
Vfat
p1790
sI1818
Vresults
p1791
sI1819
Vverb
p1792
sI1820
Vinterpreting
p1793
sI1821
Vfall
p1794
sI1822
V24th
p1795
sI1823
Vbubbler
p1796
sI1824
V`
sI1825
Vlinguists
p1797
sI1826
Vcable
p1798
sI1827
Vlisp
p1799
sI1828
Vvenezuela
p1800
sI1829
Vlist
p1801
sI1830
Vphonology
p1802
sI1831
Vautoantonyms
p1803
sI1832
Vsmall
p1804
sI1833
Vstudy
p1805
sI1834
Vgb
p1806
sI1835
Vtei
p1807
sI1836
V199
p1808
sI1837
Vickl
p1809
sI1838
Vguaranteed
p1810
sI1839
Vgrasshopper
p1811
sI1840
V191
p1812
sI1841
V192
p1813
sI1842
Vtranslating
p1814
sI1843
Vmodal
p1815
sI1844
Vrate
p1816
sI1845
Voptionality
p1817
sI1846
Vdesign
p1818
sI1847
Vquebec
p1819
sI1848
Vpass
p1820
sI1849
Vlink
p1821
sI1850
Vwisconsin
p1822
sI1851
Vter
p1823
sI1852
Vsituated
p1824
sI1853
Vdissertation
p1825
sI1854
Vwhat
p1826
sI1855
Vpalatal
p1827
sI1856
Vcontributions
p1828
sI1857
Vsum
p1829
sI1858
Vdirt
p1830
sI1859
Vlearner
p1831
sI1860
V165505
p1832
sI1861
Vpublic
p1833
sI1862
Vversion
p1834
sI1863
Vnonreferential
p1835
sI1864
Vsur
p1836
sI1865
Vcase-marked
p1837
sI1866
Vmethod
p1838
sI1867
Vmovement
p1839
sI1868
Vasiatic
p1840
sI1869
V104554
p1841
sI1870
V1100
p1842
sI1871
Vtags
p1843
sI1872
Vma
p1844
sI1873
Vempower
p1845
sI1874
Vanswers
p1846
sI1875
Vleeds
p1847
sI1876
Vandrews
p1848
sI1877
Vberkeley
p1849
sI1878
Vlegend
p1850
sI1879
Vpublisher
p1851
sI1880
Vsearch
p1852
sI1881
Vbible
p1853
sI1882
Vmeulen
p1854
sI1883
Vfwd
p1855
sI1884
Vturkish
p1856
sI1885
Vexperience
p1857
sI1886
Ve-texts
p1858
sI1887
Vadjectives
p1859
sI1888
Vatelier
p1860
sI1889
Vbreakdown
p1861
sI1890
Vcssp97
p1862
sI1891
Vperso
p1863
sI1892
Vsocial
p1864
sI1893
Vreal
p1865
sI1894
Vluck
p1866
sI1895
Vdissent
p1867
sI1896
Varmey
p1868
sI1897
Vfamily
p1869
sI1898
Vphonemicity
p1870
sI1899
Vvii
p1871
sI1900
Vafrica
p1872
sI1901
Vcosmetic
p1873
sI1902
Vtexts
p1874
sI1903
Vvip
p1875
sI1904
Varbeitstagung
p1876
sI1905
Vnyankore
p1877
sI1906
Vvd
p1878
sI1907
Vmistress
p1879
sI1908
Vliterary
p1880
sI1909
Veye
p1881
sI1910
Vtwd
p1882
sI1911
Varcling
p1883
sI1912
Vtwo
p1884
sI1913
V6
sI1914
Vamta-98
p1885
sI1915
Vgoettingen
p1886
sI1916
Vmore
p1887
sI1917
Vteen
p1888
sI1918
Visrael
p1889
sI1919
Vscotia
p1890
sI1920
Vinfoseek
p1891
sI1921
Vimmersion
p1892
sI1922
Vreaders
p1893
sI1923
Vcompany
p1894
sI1924
Vcorrected
p1895
sI1925
Vhardware
p1896
sI1926
Vworldwide
p1897
sI1927
Vscience
p1898
sI1928
Vder
p1899
sI1929
Vdes
p1900
sI1930
Vsyntaxis
p1901
sI1931
Vdev
p1902
sI1932
Vsent
p1903
sI1933
Vden
p1904
sI1934
Vlearn
p1905
sI1935
Vstrategies
p1906
sI1936
Vdec
p1907
sI1937
Vspontaneous
p1908
sI1938
Vmalc
p1909
sI1939
Vhistory
p1910
sI1940
Vprehistory
p1911
sI1941
Vshare
p1912
sI1942
Vpro
p1913
sI1943
Vautumn
p1914
sI1944
Vicgi-98
p1915
sI1945
Vjornadas
p1916
sI1946
Vaffricates
p1917
sI1947
Vnumbers
p1918
sI1948
Vsense
p1919
sI1949
Vphrase
p1920
sI1950
Vspecies
p1921
sI1951
Vbiography
p1922
sI1952
V!
sI1953
Vcsl
p1923
sI1954
Vmainz
p1924
sI1955
V1053
p1925
sI1956
Vprocessors
p1926
sI1957
V1059
p1927
sI1958
Vacts
p1928
sI1959
Vnwav
p1929
sI1960
Vmaps
p1930
sI1961
Vearnings
p1931
sI1962
Vlancker
p1932
sI1963
Vtanlps
p1933
sI1964
Vsummerschool
p1934
sI1965
V410-4332
p1935
sI1966
Vft
p1936
sI1967
Vseoul
p1937
sI1968
Vadvice
p1938
sI1969
Vderived
p1939
sI1970
V1276
p1940
sI1971
Vcatalog
p1941
sI1972
Vassemblers
p1942
sI1973
Vfi
p1943
sI1974
Vlanka
p1944
sI1975
Vresponse
p1945
sI1976
Va
sI1977
Vfeminine-he
p1946
sI1978
Vkeio
p1947
sI1979
Vregister
p1948
sI1980
Vovernight
p1949
sI1981
Vdragon
p1950
sI1982
V1470
p1951
sI1983
Vfundamental
p1952
sI1984
Vpay
p1953
sI1985
Vxxx
p1954
sI1986
Vdream
p1955
sI1987
Vretrieval
p1956
sI1988
V1304
p1957
sI1989
V1305
p1958
sI1990
Vhelp
p1959
sI1991
V77273
p1960
sI1992
Vseptember
p1961
sI1993
Vtaxonomy
p1962
sI1994
Vhypertext
p1963
sI1995
Vattitude
p1964
sI1996
Vpaper
p1965
sI1997
Vthrough
p1966
sI1998
Vsigns
p1967
sI1999
Vurdu
p1968
sI2000
Vexistence
p1969
sI2001
Vwayana
p1970
sI2002
Vits
p1971
sI2003
Vdeveloper
p1972
sI2004
V50000
p1973
sI2005
V26
p1974
sI2006
V27
p1975
sI2007
V20
p1976
sI2008
V21
p1977
sI2009
Varian
p1978
sI2010
V23
p1979
sI2011
Vonsets
p1980
sI2012
Vcalsvxtn
p1981
sI2013
V28
p1982
sI2014
V29
p1983
sI2015
Vchangement
p1984
sI2016
Vfilip
p1985
sI2017
Vparts
p1986
sI2018
Vargentino
p1987
sI2019
Vsystems
p1988
sI2020
Vpenn
p1989
sI2021
Vdocdes98
p1990
sI2022
V1f81
p1991
sI2023
Vgood
p1992
sI2024
Vreturn
p1993
sI2025
Vseeking
p1994
sI2026
V12828
p1995
sI2027
Vaphasia
p1996
sI2028
Vparty
p1997
sI2029
Voxford
p1998
sI2030
Vlifeplan
p1999
sI2031
Vyu
p2000
sI2032
Vassociation
p2001
sI2033
Vmoncton
p2002
sI2034
Vproducts
p2003
sI2035
Vdecimal
p2004
sI2036
Vphilology
p2005
sI2037
Vprosody
p2006
sI2038
Vcourses
p2007
sI2039
Vcute
p2008
sI2040
Vgender
p2009
sI2041
Vcgsw10
p2010
sI2042
Vshocking
p2011
sI2043
Vcahiers
p2012
sI2044
Vgrounding-representations
p2013
sI2045
Vheavy
p2014
sI2046
Vreactions
p2015
sI2047
Vmental
p2016
sI2048
Vweight
p2017
sI2049
Vgeneration
p2018
sI2050
Vposts
p2019
sI2051
Vhard
p2020
sI2052
Videa
p2021
sI2053
Vmeasurement
p2022
sI2054
Vbeyond
p2023
sI2055
Vwkshp
p2024
sI2056
Vawali
p2025
sI2057
Vreally
p2026
sI2058
Vernie
p2027
sI2059
Vp
sI2060
Vhilp
p2028
sI2061
Vrobert
p2029
sI2062
Vresearch
p2030
sI2063
Vparticipants
p2031
sI2064
Vhealth
p2032
sI2065
V7
sI2066
Vlexicography
p2033
sI2067
Vprint
p2034
sI2068
Vcompounding
p2035
sI2069
Vissue
p2036
sI2070
Vaborigen
p2037
sI2071
Vausschreibung
p2038
sI2072
Vbelief
p2039
sI2073
Vsemiotic
p2040
sI2074
Vdressler
p2041
sI2075
Vyale
p2042
sI2076
V0100
p2043
sI2077
Vadvertsing
p2044
sI2078
Vbase
p2045
sI2079
Vfinland
p2046
sI2080
Vgiveaway
p2047
sI2081
Vask
p2048
sI2082
Vteach
p2049
sI2083
Vautomation
p2050
sI2084
Vbeginning
p2051
sI2085
Vasl
p2052
sI2086
Vdriven
p2053
sI2087
Vbenefits
p2054
sI2088
Veventuality
p2055
sI2089
Vbulletproof
p2056
sI2090
Vjust
p2057
sI2091
Vcomputers
p2058
sI2092
Vtocharian
p2059
sI2093
Vlingual
p2060
sI2094
Vamericas
p2061
sI2095
Vamerican
p2062
sI2096
Vcomputerm
p2063
sI2097
Vw
sI2098
Vshibilant
p2064
sI2099
Vshareware
p2065
sI2100
Vmajor
p2066
sI2101
Vprobus
p2067
sI2102
Vsimply
p2068
sI2103
Vgirls
p2069
sI2104
Vcelex
p2070
sI2105
Vmisc
p2071
sI2106
Vnumber
p2072
sI2107
Vfancy
p2073
sI2108
Vpoznan
p2074
sI2109
Vcsdl
p2075
sI2110
V600
p2076
sI2111
Vest-ce
p2077
sI2112
Vmiss
p2078
sI2113
Vccall
p2079
sI2114
Vguess
p2080
sI2115
Vheads
p2081
sI2116
Vneeded
p2082
sI2117
Vintroduction
p2083
sI2118
V5th
p2084
sI2119
Vnomo
p2085
sI2120
Vobligatory
p2086
sI2121
Vtwente
p2087
sI2122
V185
p2088
sI2123
Vrates
p2089
sI2124
V189
p2090
sI2125
Vtoo
p2091
sI2126
Vselling
p2092
sI2127
Voption
p2093
sI2128
Vpara
p2094
sI2129
Vsynthetic
p2095
sI2130
Vhotel
p2096
sI2131
Vconcordance
p2097
sI2132
Vpart
p2098
sI2133
Vnotification
p2099
sI2134
Vnorms
p2100
sI2135
Vprodigious
p2101
sI2136
Vtranslation
p2102
sI2137
Vgrace
p2103
sI2138
Vexplodes
p2104
sI2139
Veamt
p2105
sI2140
Vking
p2106
sI2141
Vkind
p2107
sI2142
Vb
sI2143
Vaaa
p2108
sI2144
Vhomophones
p2109
sI2145
Viranian
p2110
sI2146
Vdouble
p2111
sI2147
Vinstruction
p2112
sI2148
Vdans
p2113
sI2149
Vvocal
p2114
sI2150
Vscandinavian
p2115
sI2151
Vyouth
p2116
sI2152
Vaiml
p2117
sI2153
Vstates
p2118
sI2154
Vpamela
p2119
sI2155
Vmarriage
p2120
sI2156
Vmetathesis
p2121
sI2157
Viceis
p2122
sI2158
Vanthropoid
p2123
sI2159
Vtongues
p2124
sI2160
V882
p2125
sI2161
Vicsc
p2126
sI2162
Vstorytelling
p2127
sI2163
Vmicrosynergy
p2128
sI2164
Vfootnote
p2129
sI2165
Vromatzyh
p2130
sI2166
Vphilippine
p2131
sI2167
Vaffirmative
p2132
sI2168
Vgala
p2133
sI2169
Vsentences
p2134
sI2170
Vgwoyeu
p2135
sI2171
Veureka
p2136
sI2172
Vconstructions
p2137
sI2173
Vrelationship
p2138
sI2174
Vtrip
p2139
sI2175
Vdiscounts
p2140
sI2176
Vrime
p2141
sI2177
Vfhcg98
p2142
sI2178
Vlit
p2143
sI2179
Vsteal
p2144
sI2180
Vefl
p2145
sI2181
Vbuild
p2146
sI2182
Vanalogy
p2147
sI2183
Vorton
p2148
sI2184
Vfinding
p2149
sI2185
Vrhodes
p2150
sI2186
V775
p2151
sI2187
V774
p2152
sI2188
Vtowards
p2153
sI2189
Velectric
p2154
sI2190
Vinference
p2155
sI2191
Vquote
p2156
sI2192
Vmultilingual
p2157
sI2193
Vquota
p2158
sI2194
V7100
p2159
sI2195
Vmost
p2160
sI2196
Vvirus
p2161
sI2197
Vassoc
p2162
sI2198
Vplan
p2163
sI2199
Vwatt
p2164
sI2200
Vseasons
p2165
sI2201
Vkay
p2166
sI2202
Vprobabilistic
p2167
sI2203
Vapproved
p2168
sI2204
V1043
p2169
sI2205
Vwaengler
p2170
sI2206
V1047
p2171
sI2207
V1044
p2172
sI2208
Vwindows
p2173
sI2209
V1049
p2174
sI2210
Vkr
p2175
sI2211
Vzhou1
p2176
sI2212
Voptical
p2177
sI2213
Vdata-sources
p2178
sI2214
Vclean
p2179
sI2215
Vapres
p2180
sI2216
Vphysics
p2181
sI2217
Vbulletin
p2182
sI2218
Vwestern
p2183
sI2219
Vthomas
p2184
sI2220
Vgold
p2185
sI2221
Vsummer
p2186
sI2222
V25-27
p2187
sI2223
V664
p2188
sI2224
Vaccommodations
p2189
sI2225
V1265
p2190
sI2226
Vsession
p2191
sI2227
Vacceptability
p2192
sI2228
Vcarefully
p2193
sI2229
Vphoentics
p2194
sI2230
Vfont
p2195
sI2231
Vfind
p2196
sI2232
Vuniversitaet
p2197
sI2233
Vimpact
p2198
sI2234
Vcurrent
p2199
sI2235
Viaupe
p2200
sI2236
Vnorthern
p2201
sI2237
Vjustice
p2202
sI2238
Vkroch
p2203
sI2239
Vlingvistica
p2204
sI2240
Vcolloq
p2205
sI2241
Vviagra
p2206
sI2242
Vquer
p2207
sI2243
V1468
p2208
sI2244
Vmoney
p2209
sI2245
V8
sI2246
V1467
p2210
sI2247
Viee
p2211
sI2248
V1462
p2212
sI2249
Vhis
p2213
sI2250
Vdistance
p2214
sI2251
Vdependent
p2215
sI2252
Vecdl98
p2216
sI2253
Vbanned
p2217
sI2254
Vcapital
p2218
sI2255
Vluo
p2219
sI2256
Vinformants
p2220
sI2257
Vfamous
p2221
sI2258
Vecai-98
p2222
sI2259
Vsapir
p2223
sI2260
Vadcs
p2224
sI2261
Vshared
p2225
sI2262
Vreferencing
p2226
sI2263
Vneurosciences
p2227
sI2264
Vhil
p2228
sI2265
Vtypos
p2229
sI2266
Vprogressive
p2230
sI2267
Vmetaling
p2231
sI2268
Viccs-95
p2232
sI2269
Vmillenium
p2233
sI2270
Vinvestigate
p2234
sI2271
Vwhitening
p2235
sI2272
Vcartoons
p2236
sI2273
Vrecommendations
p2237
sI2274
Vx
sI2275
Vhollander
p2238
sI2276
Vrestaurants
p2239
sI2277
Vset
p2240
sI2278
Vaspect
p2241
sI2279
Vary
p2242
sI2280
Vunpublished
p2243
sI2281
Vbiannual
p2244
sI2282
Vsex
p2245
sI2283
Vculture
p2246
sI2284
Vgeoff
p2247
sI2285
Vpalindromes
p2248
sI2286
Vsec
p2249
sI2287
Vare
p2250
sI2288
Vsea
p2251
sI2289
Vthayer
p2252
sI2290
Vsem
p2253
sI2291
Vtmi-99
p2254
sI2292
Vcssi
p2255
sI2293
Vanalog
p2256
sI2294
Vbarn
p2257
sI2295
Vproject
p2258
sI2296
V#
sI2297
Vevaluation
p2259
sI2298
Vexpert
p2260
sI2299
Vguinea
p2261
sI2300
Vwow
p2262
sI2301
Vplease
p2263
sI2302
Vfsmnlp
p2264
sI2303
Vwor
p2265
sI2304
Vlibraries
p2266
sI2305
Vcase
p2267
sI2306
Vverbs
p2268
sI2307
Vvarious
p2269
sI2308
Vwasteland
p2270
sI2309
Venvelopes
p2271
sI2310
Vanaphor
p2272
sI2311
V15th
p2273
sI2312
Vavailable
p2274
sI2313
Vadv
p2275
sI2314
Vkorea
p2276
sI2315
Vcatalogs
p2277
sI2316
Vresponses
p2278
sI2317
Vweb
p2279
sI2318
Vcimca
p2280
sI2319
Vattention
p2281
sI2320
Vgenre
p2282
sI2321
Vbibliography
p2283
sI2322
Vcityu
p2284
sI2323
Vboth
p2285
sI2324
Vc
sI2325
Vlast
p2286
sI2326
Vdesparately
p2287
sI2327
Vmega
p2288
sI2328
Vlanuage
p2289
sI2329
Vonlyhottest
p2290
sI2330
Vannual
p2291
sI2331
Vevent
p2292
sI2332
Vvilem
p2293
sI2333
Vpdp
p2294
sI2334
Vobjects
p2295
sI2335
Vepicenes
p2296
sI2336
Vcontext
p2297
sI2337
Vreply
p2298
sI2338
Vafar
p2299
sI2339
Vexperimental
p2300
sI2340
Vinsurance
p2301
sI2341
Vpoint
p2302
sI2342
Vtypological
p2303
sI2343
V03
p2304
sI2344
Vsber
p2305
sI2345
Vdeposit
p2306
sI2346
Vwhatever
p2307
sI2347
Vpronominal
p2308
sI2348
Vagents
p2309
sI2349
Vscottish
p2310
sI2350
Vnonfinite
p2311
sI2351
Vlangs
p2312
sI2352
Vicehl
p2313
sI2353
Vperspectives
p2314
sI2354
Vpt
p2315
sI2355
Vmonthly
p2316
sI2356
Vcreate
p2317
sI2357
Vpolitical
p2318
sI2358
Vdue
p2319
sI2359
Va-linguist
p2320
sI2360
Vpc
p2321
sI2361
Vsecret
p2322
sI2362
Vcitations
p2323
sI2363
Vmaintenance
p2324
sI2364
Vcollected
p2325
sI2365
Vclinical
p2326
sI2366
Vph
p2327
sI2367
Vmeeting
p2328
sI2368
Viulc
p2329
sI2369
Vsaarbruecken
p2330
sI2370
Vdialogue
p2331
sI2371
Vkitahara
p2332
sI2372
Vadresse
p2333
sI2373
V39
p2334
sI2374
Vracer
p2335
sI2375
Vopposites
p2336
sI2376
Vsymoposium
p2337
sI2377
Vmla
p2338
sI2378
Vclassifications
p2339
sI2379
Vlook
p2340
sI2380
Vjudicial
p2341
sI2381
Vcorpora
p2342
sI2382
Vmlm
p2343
sI2383
Vbiographies
p2344
sI2384
Vwhile
p2345
sI2385
Vdominio
p2346
sI2386
Vformats
p2347
sI2387
Vmitchell
p2348
sI2388
Vguide
p2349
sI2389
Vprolog
p2350
sI2390
Vstyles
p2351
sI2391
Vcasino
p2352
sI2392
Vportugal
p2353
sI2393
Vorthography
p2354
sI2394
Vvon
p2355
sI2395
Vbinding
p2356
sI2396
Vcontex
p2357
sI2397
Vimperialism
p2358
sI2398
V35
p2359
sI2399
Vfinalists
p2360
sI2400
Vrid
p2361
sI2401
Vcampidanian
p2362
sI2402
Vesslli-99
p2363
sI2403
Vgrant
p2364
sI2404
Vtolkienian
p2365
sI2405
Vgovernment
p2366
sI2406
Vsardinian
p2367
sI2407
V870
p2368
sI2408
Vread
p2369
sI2409
Vdiscourse
p2370
sI2410
Vcontents
p2371
sI2411
Vdeletion
p2372
sI2412
V9
sI2413
Vestes
p2373
sI2414
Vconflict
p2374
sI2415
Vdevelopment
p2375
sI2416
Vliterature
p2376
sI2417
Vtemporary
p2377
sI2418
Vself-opposites
p2378
sI2419
Vassignment
p2379
sI2420
Valert
p2380
sI2421
V000
p2381
sI2422
Vuses
p2382
sI2423
Vuser
p2383
sI2424
Vprague
p2384
sI2425
Vlouis
p2385
sI2426
Vrecent
p2386
sI2427
Vusc
p2387
sI2428
Vdecsrambler
p2388
sI2429
Vdatabase
p2389
sI2430
Vals-98
p2390
sI2431
Vschindler
p2391
sI2432
Vanalysis
p2392
sI2433
Vpicks
p2393
sI2434
Vnordic
p2394
sI2435
Vlingusitic
p2395
sI2436
Vldc
p2396
sI2437
Vjudgments
p2397
sI2438
Vcliticization
p2398
sI2439
V764
p2399
sI2440
Vexposedwhat
p2400
sI2441
Vquestions
p2401
sI2442
Vusing
p2402
sI2443
Vlove
p2403
sI2444
Vtaiwan
p2404
sI2445
Vafro
p2405
sI2446
Vprince
p2406
sI2447
Vletting
p2407
sI2448
Vtables
p2408
sI2449
Vcut
p2409
sI2450
V$
sI2451
V1078
p2410
sI2452
V1079
p2411
sI2453
Vworkers
p2412
sI2454
Vpay-no
p2413
sI2455
V1070
p2414
sI2456
V1071
p2415
sI2457
Vsignals
p2416
sI2458
Vprepositions
p2417
sI2459
Vsubjects
p2418
sI2460
Vhomeland
p2419
sI2461
Vcash
p2420
sI2462
Vcircumcision
p2421
sI2463
Vcuk
p2422
sI2464
Vheidelberg
p2423
sI2465
Vlumpur
p2424
sI2466
V1094
p2425
sI2467
Vindonesian
p2426
sI2468
Vaustralia
p2427
sI2469
Vmarch
p2428
sI2470
Vbig
p2429
sI2471
Vpre-school
p2430
sI2472
V1098
p2431
sI2473
Vcatalan
p2432
sI2474
Vgame
p2433
sI2475
Vclitic
p2434
sI2476
Vculturally
p2435
sI2477
Vagfl
p2436
sI2478
Vbit
p2437
sI2479
Vformal
p2438
sI2480
Vd
sI2481
Vtsch
p2439
sI2482
Vfollows
p2440
sI2483
Vmessage
p2441
sI2484
Vpounds
p2442
sI2485
Vignore
p2443
sI2486
Vmultilingua
p2444
sI2487
Vtranslators
p2445
sI2488
Vcontinua
p2446
sI2489
V1414
p2447
sI2490
Vterminology
p2448
sI2491
Vunesco
p2449
sI2492
Vecology
p2450
sI2493
Vmethods
p2451
sI2494
Vspring
p2452
sI2495
Vsome
p2453
sI2496
Vphone
p2454
sI2497
Vaisb-95
p2455
sI2498
Vamharic
p2456
sI2499
Vurgent
p2457
sI2500
Vtrends
p2458
sI2501
V28th
p2459
sI2502
Vnewsletter
p2460
sI2503
Vvol
p2461
sI2504
Vmorphosyntax
p2462
sI2505
Vpet
p2463
sI2506
Vfile
p2464
sI2507
Vintegration
p2465
sI2508
Vper
p2466
sI2509
Vreligion
p2467
sI2510
V1254
p2468
sI2511
Vearlybird
p2469
sI2512
Vslash
p2470
sI2513
V1251
p2471
sI2514
Vellipsis
p2472
sI2515
Vbedoel
p2473
sI2516
Vbe
p2474
sI2517
V300
p2475
sI2518
Vprocessing
p2476
sI2519
Vagreement
p2477
sI2520
Vdeliverables
p2478
sI2521
Vbu
p2479
sI2522
Vusd
p2480
sI2523
Vvol-5
p2481
sI2524
Vsanta
p2482
sI2525
Vbecome
p2483
sI2526
Vfeb
p2484
sI2527
Vpropositional
p2485
sI2528
Vby
p2486
sI2529
Vanything
p2487
sI2530
Vchomsky
p2488
sI2531
Vbraille
p2489
sI2532
Vhoncoop
p2490
sI2533
Vsimulation
p2491
sI2534
Vmelbourne
p2492
sI2535
Vacquistion
p2493
sI2536
Vbgs
p2494
sI2537
Vlatvian
p2495
sI2538
Vsocioling
p2496
sI2539
Vzellig
p2497
sI2540
Vclassics
p2498
sI2541
Vsilence
p2499
sI2542
Vseeing
p2500
sI2543
Vcomputational
p2501
sI2544
Vintl
p2502
sI2545
Vwithin
p2503
sI2546
Vnsf
p2504
sI2547
Vservers
p2505
sI2548
Vservices
p2506
sI2549
Vleuven
p2507
sI2550
Vadverbs
p2508
sI2551
Vframes
p2509
sI2552
Veskimo
p2510
sI2553
Vutxvms
p2511
sI2554
Vpre-conference
p2512
sI2555
Vquestion
p2513
sI2556
Vtextual
p2514
sI2557
Vsyllabus
p2515
sI2558
Vcamera
p2516
sI2559
Vfasl
p2517
sI2560
Vdissertations
p2518
sI2561
V:
sI2562
Vvienna
p2519
sI2563
Vanywhere
p2520
sI2564
Vthief
p2521
sI2565
Vatlantic
p2522
sI2566
Vpacific
p2523
sI2567
V22043
p2524
sI2568
Vling
p2525
sI2569
Vline
p2526
sI2570
Vraising
p2527
sI2571
Vsingular-they
p2528
sI2572
Vinfo
p2529
sI2573
Vrefinancing
p2530
sI2574
Vneurolinguistics
p2531
sI2575
Vstumbling
p2532
sI2576
Vlinguistique
p2533
sI2577
Vup
p2534
sI2578
Vus
p2535
sI2579
Vtheoretical
p2536
sI2580
Vtoday
p2537
sI2581
Vuk
p2538
sI2582
Vua
p2539
sI2583
Vclear
p2540
sI2584
Vpsoriasis
p2541
sI2585
Vconstant
p2542
sI2586
Vcurs
p2543
sI2587
Vflow
p2544
sI2588
Vparser
p2545
sI2589
Vinfluence
p2546
sI2590
Vchao
p2547
sI2591
Vdoesn
p2548
sI2592
Vquantification
p2549
sI2593
Vengineering
p2550
sI2594
Vsymposia
p2551
sI2595
Vlexemes
p2552
sI2596
Vhuron
p2553
sI2597
Vyearbook
p2554
sI2598
V959
p2555
sI2599
Vcodes
p2556
sI2600
Vparadox
p2557
sI2601
Vgranada
p2558
sI2602
Vhumanities
p2559
sI2603
Vpart-time
p2560
sI2604
Vsunshine
p2561
sI2605
Vgry
p2562
sI2606
Vnat
p2563
sI2607
Vincome
p2564
sI2608
Vpronouns
p2565
sI2609
Vreflections
p2566
sI2610
Vpalc97
p2567
sI2611
Vtitles
p2568
sI2612
Vusers
p2569
sI2613
Vcreditline
p2570
sI2614
Vkansas
p2571
sI2615
Vproblems
p2572
sI2616
Vsamla
p2573
sI2617
Vnaccl-11
p2574
sI2618
Vmalay
p2575
sI2619
Vgenerated
p2576
sI2620
V859
p2577
sI2621
Vreservation
p2578
sI2622
Vbibliographies
p2579
sI2623
Vtislr
p2580
sI2624
Vdesert
p2581
sI2625
Vstructure
p2582
sI2626
Visfc95
p2583
sI2627
Vlang
p2584
sI2628
Vsoundex
p2585
sI2629
Ve
sI2630
Vdepts
p2586
sI2631
Vsheffield
p2587
sI2632
Vrequired
p2588
sI2633
Vorbit
p2589
sI2634
Vadvertisment
p2590
sI2635
Vmicrosoft
p2591
sI2636
Vcomparata
p2592
sI2637
V2000
p2593
sI2638
Vsummit
p2594
sI2639
Vacl-95
p2595
sI2640
Vnarrative
p2596
sI2641
Vfresh
p2597
sI2642
Vjoining
p2598
sI2643
Vhello
p2599
sI2644
Vcode
p2600
sI2645
Vgp
p2601
sI2646
Vsales
p2602
sI2647
Vnynorsk
p2603
sI2648
Vuniformitarianism
p2604
sI2649
Vwordperfect
p2605
sI2650
Vrifra
p2606
sI2651
Vnunn
p2607
sI2652
Vgroceries
p2608
sI2653
Vgang
p2609
sI2654
Vedt
p2610
sI2655
Vedu
p2611
sI2656
Vgo
p2612
sI2657
Vquery
p2613
sI2658
Vdisintegration
p2614
sI2659
Vpedagogy
p2615
sI2660
Vissues
p2616
sI2661
Vsinthesizer
p2617
sI2662
Vvietnamese
p2618
sI2663
Veffort
p2619
sI2664
Vbestock
p2620
sI2665
Vyoung
p2621
sI2666
Vsend
p2622
sI2667
Vsuits
p2623
sI2668
Vlanguages
p2624
sI2669
Vciting
p2625
sI2670
Vmaryland
p2626
sI2671
Vsubscription
p2627
sI2672
Vpostings
p2628
sI2673
Vresources
p2629
sI2674
Vhicss
p2630
sI2675
Vretire
p2631
sI2676
Vskinlaser
p2632
sI2677
Vacreage
p2633
sI2678
Vmelchuk
p2634
sI2679
Vishikawa
p2635
sI2680
Vcoston
p2636
sI2681
Vijcai95
p2637
sI2682
Vmixing
p2638
sI2683
Vijcai99
p2639
sI2684
Vcontinued
p2640
sI2685
Vai
p2641
sI2686
Vtri
p2642
sI2687
Vpositions
p2643
sI2688
Vboguraev
p2644
sI2689
Veve
p2645
sI2690
Vtry
p2646
sI2691
Vminimizing
p2647
sI2692
Vkit
p2648
sI2693
Vcar
p2649
sI2694
V1086
p2650
sI2695
V1083
p2651
sI2696
V1082
p2652
sI2697
V1080
p2653
sI2698
Vsumary
p2654
sI2699
Vquaker
p2655
sI2700
V1088
p2656
sI2701
Vsumerian
p2657
sI2702
Vvideo
p2658
sI2703
Vinsertion
p2659
sI2704
Vdownload
p2660
sI2705
Vodd
p2661
sI2706
Vcfp
p2662
sI2707
Vscientific
p2663
sI2708
Vuniversities
p2664
sI2709
Vbusiness
p2665
sI2710
Vbertinetto
p2666
sI2711
Vchicago
p2667
sI2712
Vassisted
p2668
sI2713
Vmultimedia
p2669
sI2714
Vijglsa
p2670
sI2715
V732-942
p2671
sI2716
Vaccess
p2672
sI2717
Vpaying
p2673
sI2718
V19th
p2674
sI2719
Vindian
p2675
sI2720
Vtwlt
p2676
sI2721
Vpristine
p2677
sI2722
V;
sI2723
V1404
p2678
sI2724
Vbody
p2679
sI2725
Vlee
p2680
sI2726
Vdegree
p2681
sI2727
Vcal
p2682
sI2728
Vjudges
p2683
sI2729
V1333
p2684
sI2730
Vsinn
p2685
sI2731
Vles
p2686
sI2732
Vlet
p2687
sI2733
Vseparation
p2688
sI2734
Vprolamat
p2689
sI2735
Vgreat
p2690
sI2736
Vkornfilt
p2691
sI2737
Vunsencored
p2692
sI2738
Vformalizing
p2693
sI2739
Vtechnical
p2694
sI2740
V32
p2695
sI2741
Vgent
p2696
sI2742
V30
p2697
sI2743
V36
p2698
sI2744
Vsharkey
p2699
sI2745
V1240
p2700
sI2746
Vlrec
p2701
sI2747
Vsurvey
p2702
sI2748
Vromanization
p2703
sI2749
Vresidents
p2704
sI2750
Vgene
p2705
sI2751
Vmaker
p2706
sI2752
Vwinkler
p2707
sI2753
Vshenandoah
p2708
sI2754
Vaddresses
p2709
sI2755
Vmontpellier
p2710
sI2756
Vwin
p2711
sI2757
Vjuries
p2712
sI2758
Vcalbe
p2713
sI2759
Vboolean
p2714
sI2760
Vnames
p2715
sI2761
Vrepetitions
p2716
sI2762
V16-17
p2717
sI2763
V11116
p2718
sI2764
Vtools
p2719
sI2765
Vcausal
p2720
sI2766
Vape
p2721
sI2767
Vuse
p2722
sI2768
Vjournees
p2723
sI2769
Vfrom
p2724
sI2770
Vexcursions
p2725
sI2771
Vcertificate
p2726
sI2772
V&
sI2773
Vnext
p2727
sI2774
Vkpelle
p2728
sI2775
Vrocling
p2729
sI2776
Vdoubling
p2730
sI2777
Vwecol
p2731
sI2778
Vconfs
p2732
sI2779
Vmathesius
p2733
sI2780
Vportugese
p2734
sI2781
Von
p2735
sI2782
Vsocitey
p2736
sI2783
Vreissued
p2737
sI2784
Viia
p2738
sI2785
Vlabelled
p2739
sI2786
Vbaby
p2740
sI2787
Viii
p2741
sI2788
Vcircle
p2742
sI2789
Vwomen
p2743
sI2790
Vutexas
p2744
sI2791
Vtsd98
p2745
sI2792
Vanimals
p2746
sI2793
Vannouncing
p2747
sI2794
Vf
sI2795
Vthis
p2748
sI2796
Vchallenge
p2749
sI2797
Vthinning
p2750
sI2798
Vnon-human
p2751
sI2799
Vceliac
p2752
sI2800
Vpublications
p2753
sI2801
Vfreedom
p2754
sI2802
Vsonghay
p2755
sI2803
Vclosing
p2756
sI2804
Vanthropological
p2757
sI2805
Vcontrol
p2758
sI2806
Vdo
p2759
sI2807
Vprocess
p2760
sI2808
Vclausal
p2761
sI2809
Vtax
p2762
sI2810
Vpurposes
p2763
sI2811
Vpromotional
p2764
sI2812
Vhigh
p2765
sI2813
Vtal
p2766
sI2814
Vtag
p2767
sI2815
Vcomputaional
p2768
sI2816
Vslip
p2769
sI2817
Vintuitions
p2770
sI2818
Vtai
p2771
sI2819
Vnative
p2772
sI2820
Vgrammaire
p2773
sI2821
Vunited
p2774
sI2822
Vgurt
p2775
sI2823
Vnegation
p2776
sI2824
Vdelay
p2777
sI2825
Vlanguaging
p2778
sI2826
Vanimal
p2779
sI2827
Vfrontiers
p2780
sI2828
Vvedder
p2781
sI2829
Vferdinand
p2782
sI2830
Vintelligent
p2783
sI2831
Vproven
p2784
sI2832
Vtypewriter
p2785
sI2833
Vprofile
p2786
sI2834
Velvish
p2787
sI2835
Vblocks
p2788
sI2836
Vseries
p2789
sI2837
Vstop
p2790
sI2838
V9113
p2791
sI2839
Vphilosophy
p2792
sI2840
Vcollection
p2793
sI2841
Vrays
p2794
sI2842
Vfatigue
p2795
sI2843
Vcoling-acl98
p2796
sI2844
Vtongue
p2797
sI2845
V12-14
p2798
sI2846
Vambiguous
p2799
sI2847
Vbedeutung
p2800
sI2848
Vlight
p2801
sI2849
Vlines
p2802
sI2850
V943
p2803
sI2851
Vflege
p2804
sI2852
Vserrano
p2805
sI2853
Vscoop
p2806
sI2854
Vencyclopedia
p2807
sI2855
Vnancy
p2808
sI2856
Vtenure
p2809
sI2857
Veurogp
p2810
sI2858
Vamta
p2811
sI2859
Vdirecte
p2812
sI2860
Vjall
p2813
sI2861
Vtropics
p2814
sI2862
Vsecol
p2815
sI2863
Vvmc
p2816
sI2864
Vinaugural
p2817
sI2865
Vsymbols
p2818
sI2866
V132
p2819
sI2867
V131
p2820
sI2868
V130
p2821
sI2869
V137
p2822
sI2870
V136
p2823
sI2871
Vduring
p2824
sI2872
V139
p2825
sI2873
Vdeictic
p2826
sI2874
Vtoolbox
p2827
sI2875
Vlinguistics
p2828
sI2876
Vld
p2829
sI2877
Vtsm
p2830
sI2878
Vcollocations
p2831
sI2879
Vla
p2832
sI2880
Vvoiceless
p2833
sI2881
Vtsd
p2834
sI2882
Vlabov
p2835
sI2883
Vmailin
p2836
sI2884
Vlinguistica
p2837
sI2885
Vchoose
p2838
sI2886
Vlp
p2839
sI2887
Vmillions
p2840
sI2888
V<
sI2889
Vlx
p2841
sI2890
Vdag
p2842
sI2891
Vbilingual
p2843
sI2892
Vclitics
p2844
sI2893
Vmaterial
p2845
sI2894
Vindexing
p2846
sI2895
V300usd
p2847
sI2896
Vday
p2848
sI2897
Vliteracy
p2849
sI2898
Vsalford
p2850
sI2899
Vminimalist
p2851
sI2900
Vmasters
p2852
sI2901
Vscitech
p2853
sI2902
Vuniversity
p2854
sI2903
Vnfl
p2855
sI2904
Vlatvia
p2856
sI2905
Vl2
p2857
sI2906
Vuniversite
p2858
sI2907
Vl1
p2859
sI2908
Vphonetic
p2860
sI2909
Vuil-ots
p2861
sI2910
Vcircular
p2862
sI2911
V4488
p2863
sI2912
V|
sI2913
Vinterlinguas
p2864
sI2914
Vlectures
p2865
sI2915
Vmap
p2866
sI2916
Vsociety
p2867
sI2917
Vfrequency
p2868
sI2918
Vour
p2869
sI2919
Vadlu
p2870
sI2920
Vpatch
p2871
sI2921
Vspecial
p2872
sI2922
Vout
p2873
sI2923
V'
sI2924
Ventertainment
p2874
sI2925
Vsigphon98
p2875
sI2926
Vreq
p2876
sI2927
Vmediated
p2877
sI2928
Vren
p2878
sI2929
Vsignstream
p2879
sI2930
Vrea
p2880
sI2931
Vref
p2881
sI2932
Vred
p2882
sI2933
Vcommon
p2883
sI2934
Vharold
p2884
sI2935
Vdictionary
p2885
sI2936
Vinteractions
p2886
sI2937
Vdelegates
p2887
sI2938
Vbleaching
p2888
sI2939
Vtemps
p2889
sI2940
Vapproaches
p2890
sI2941
Vque
p2891
sI2942
Vwsh
p2892
sI2943
Vfranz
p2893
sI2944
Vadl5
p2894
sI2945
Vprincess
p2895
sI2946
Vscary
p2896
sI2947
V1435
p2897
sI2948
V1433
p2898
sI2949
Vg
sI2950
Vautomatic
p2899
sI2951
Vcould
p2900
sI2952
Vput
p2901
sI2953
Vmembership
p2902
sI2954
Vkeep
p2903
sI2955
Vconversation
p2904
sI2956
Vlength
p2905
sI2957
Vworkbook
p2906
sI2958
Vinst
p2907
sI2959
Vaustin
p2908
sI2960
Vsubliminally
p2909
sI2961
Vsouth
p2910
sI2962
Vpraxis
p2911
sI2963
Vfda
p2912
sI2964
Vpublier
p2913
sI2965
Vreflexive
p2914
sI2966
Vcomparatives
p2915
sI2967
Vconferrence
p2916
sI2968
Vpgm
p2917
sI2969
V1344
p2918
sI2970
Vhey
p2919
sI2971
Vcontragram
p2920
sI2972
Vimprovements
p2921
sI2973
Vrepresentations
p2922
sI2974
Vowner
p2923
sI2975
V9875
p2924
sI2976
Vsummaries
p2925
sI2977
Vpkdd
p2926
sI2978
Vgradable
p2927
sI2979
Vancient
p2928
sI2980
Vbakhtin
p2929
sI2981
Vpublication
p2930
sI2982
Vunknown
p2931
sI2983
Vaccent
p2932
sI2984
Vsystem
p2933
sI2985
Vrelations
p2934
sI2986
Vannotation
p2935
sI2987
Vtheir
p2936
sI2988
V1500
p2937
sI2989
Vintelligence
p2938
sI2990
Vitalia
p2939
sI2991
Vfinal
p2940
sI2992
Vhappy
p2941
sI2993
Vpostgraduate
p2942
sI2994
Vminute
p2943
sI2995
Vlists
p2944
sI2996
Vcredibility
p2945
sI2997
Vromanizations
p2946
sI2998
Visb2
p2947
sI2999
Vtelri
p2948
sI3000
Vjuly
p2949
sI3001
Vthematisation
p2950
sI3002
V387
p2951
sI3003
Vteflin98
p2952
sI3004
Vphonesex
p2953
sI3005
Vsplit
p2954
sI3006
Vsee
p2955
sI3007
Vtommy
p2956
sI3008
Vmusement
p2957
sI3009
Vsed
p2958
sI3010
Vmultilinguality
p2959
sI3011
Vsexxx
p2960
sI3012
Vabstracts
p2961
sI3013
Vbet
p2962
sI3014
Vdescriptions
p2963
sI3015
Vwebmining
p2964
sI3016
Vichl
p2965
sI3017
Vtonight
p2966
sI3018
Vmongolian
p2967
sI3019
Vhave
p2968
sI3020
Vclin
p2969
sI3021
V389
p2970
sI3022
Vdemonstration
p2971
sI3023
Vdocuments
p2972
sI3024
Vhow-to
p2973
sI3025
Vlatins
p2974
sI3026
Vanglo
p2975
sI3027
Vpolarization
p2976
sI3028
Vforbidden
p2977
sI3029
Vbest
p2978
sI3030
Vfetish
p2979
sI3031
Vkorean
p2980
sI3032
V=
sI3033
Vmit
p2981
sI3034
Vsoas
p2982
sI3035
Vaccuracy
p2983
sI3036
Vlecturer
p2984
sI3037
Vmasta
p2985
sI3038
Vemnlp
p2986
sI3039
Vantigua
p2987
sI3040
Vaxiomatic
p2988
sI3041
Voceanic
p2989
sI3042
Vwho
p2990
sI3043
Vbronislaw
p2991
sI3044
Vawk
p2992
sI3045
Vpreliminary
p2993
sI3046
Ve-gift
p2994
sI3047
Vfuture
p2995
sI3048
Vsegment
p2996
sI3049
Vdelivery
p2997
sI3050
Vurl
p2998
sI3051
Vrequest
p2999
sI3052
Vperceiving
p3000
sI3053
Vgesture
p3001
sI3054
Vdatabases
p3002
sI3055
Vindo
p3003
sI3056
Vaway
p3004
sI3057
Vselection
p3005
sI3058
Vnostratic
p3006
sI3059
Vtolkien
p3007
sI3060
Vtext
p3008
sI3061
Vautomated
p3009
sI3062
Vvacancy
p3010
sI3063
Vplanning
p3011
sI3064
Vpostdoctoral
p3012
sI3065
Vsycopahnt
p3013
sI3066
Vma-tesol
p3014
sI3067
Vpasse
p3015
sI3068
Vadvertisement
p3016
sI3069
Vlowlands
p3017
sI3070
Vtaps
p3018
sI3071
Vha
p3019
sI3072
Vbased
p3020
sI3073
Vknowledge
p3021
sI3074
Vfuer
p3022
sI3075
Vsociolinguistic
p3023
sI3076
V(
sI3077
Vvaria
p3024
sI3078
Vbrighten
p3025
sI3079
Vcd-rom
p3026
sI3080
Vtape
p3027
sI3081
Vcommunist
p3028
sI3082
Vpartially
p3029
sI3083
Vdiscours
p3030
sI3084
Vmove
p3031
sI3085
Vcuba
p3032
sI3086
Vbeat
p3033
sI3087
Vlucky
p3034
sI3088
Vmaritime
p3035
sI3089
Vcomutational
p3036
sI3090
Vjoint
p3037
sI3091
Vwords
p3038
sI3092
Vtiming
p3039
sI3093
V129
p3040
sI3094
Vindirecte
p3041
sI3095
Vyears
p3042
sI3096
Vlitterature
p3043
sI3097
V913-383
p3044
sI3098
V133
p3045
sI3099
Vqs
p3046
sI3100
Vembedded
p3047
sI3101
Vh
sI3102
Vcalling
p3048
sI3103
V80924609220
p3049
sI3104
Vbannock
p3050
sI3105
Vshe
p3051
sI3106
Vqueries
p3052
sI3107
Vohio
p3053
sI3108
Vgrad
p3054
sI3109
Vview
p3055
sI3110
Vmadam
p3056
sI3111
Vfricative
p3057
sI3112
Vfreinds
p3058
sI3113
Vnational
p3059
sI3114
Vcruise
p3060
sI3115
Vbiz
p3061
sI3116
Vedition
p3062
sI3117
Vcomputer
p3063
sI3118
Viscll3
p3064
sI3119
Vgoldmine
p3065
sI3120
Vprocedings
p3066
sI3121
Vcreating
p3067
sI3122
Vunlimited
p3068
sI3123
Vcloses
p3069
sI3124
Vhas
p3070
sI3125
Vlectureship
p3071
sI3126
Vantipassive
p3072
sI3127
Vworshop
p3073
sI3128
Vgrammaticalization
p3074
sI3129
Vmacros
p3075
sI3130
Vwritten
p3076
sI3131
Videntification
p3077
sI3132
Vclosed
p3078
sI3133
Vhaagen
p3079
sI3134
Vemail
p3080
sI3135
Vbls
p3081
sI3136
Vkeynote
p3082
sI3137
Vability
p3083
sI3138
Vopening
p3084
sI3139
Vstrides
p3085
sI3140
Vjob
p3086
sI3141
Vhypothesis
p3087
sI3142
Vmerry
p3088
sI3143
Vamer
p3089
sI3144
Vpragmatics
p3090
sI3145
Vtls
p3091
sI3146
Vinterpretations
p3092
sI3147
Vempathy
p3093
sI3148
Vhebrew
p3094
sI3149
Vsoutheast
p3095
sI3150
Vinvited
p3096
sI3151
Vrecorders
p3097
sI3152
Vgalore
p3098
sI3153
Vcategorial
p3099
sI3154
Vetc
p3100
sI3155
Vfigures
p3101
sI3156
Vdarker
p3102
sI3157
Varticulatory
p3103
sI3158
Vgldv
p3104
sI3159
Vhuang
p3105
sI3160
Vcl
p3106
sI3161
Vcc
p3107
sI3162
Vpredication
p3108
sI3163
Vmarketplace
p3109
sI3164
Vcd
p3110
sI3165
Vinterface
p3111
sI3166
Vuce
p3112
sI3167
Vcx
p3113
sI3168
Vsequences
p3114
sI3169
Vkings
p3115
sI3170
Vundergraduate
p3116
sI3171
Vuci
p3117
sI3172
V1208
p3118
sI3173
Vpoem
p3119
sI3174
Vprovinces
p3120
sI3175
Vdebt
p3121
sI3176
Vaddition
p3122
sI3177
Vcvir
p3123
sI3178
Vholidays
p3124
sI3179
Vmispased
p3125
sI3180
Vgenetic
p3126
sI3181
Vyan
p3127
sI3182
Vhindi
p3128
sI3183
Vproposal
p3129
sI3184
Vpolitically
p3130
sI3185
Visolating
p3131
sI3186
V1358
p3132
sI3187
Vgeneral
p3133
sI3188
Vcommutes
p3134
sI3189
Val
p3135
sI3190
Vbulk
p3136
sI3191
V933
p3137
sI3192
Vtense
p3138
sI3193
Vbull
p3139
sI3194
Vlgs
p3140
sI3195
Vfellow
p3141
sI3196
Vspain
p3142
sI3197
Vmulti
p3143
sI3198
Vholiday
p3144
sI3199
Vlaser
p3145
sI3200
Vungrammatical
p3146
sI3201
Vstructuralist
p3147
sI3202
Vappearance
p3148
sI3203
Vas
p3149
sI3204
Vwill
p3150
sI3205
Vcarnie
p3151
sI3206
Vnon-surgical
p3152
sI3207
Vnwlc
p3153
sI3208
Vescol
p3154
sI3209
Vrevisited
p3155
sI3210
Vinstantly
p3156
sI3211
V~
sI3212
Vstuffing
p3157
sI3213
Vpdt
p3158
sI3214
Vepenthesis
p3159
sI3215
Vfollow-up
p3160
sI3216
Vvi
p3161
sI3217
Vrefs
p3162
sI3218
Vluso
p3163
sI3219
Vsite
p3164
sI3220
Vvo
p3165
sI3221
Vvp
p3166
sI3222
Vind
p3167
sI3223
Vvs
p3168
sI3224
Varabic
p3169
sI3225
Vforeign
p3170
sI3226
Vwhorf
p3171
sI3227
Vdescriptive
p3172
sI3228
Vobituary
p3173
sI3229
Veducation
p3174
sI3230
Vicgl
p3175
sI3231
V)
sI3232
Vcross
p3176
sI3233
Vleroux
p3177
sI3234
Vromance
p3178
sI3235
Vecml
p3179
sI3236
Vspeaker
p3180
sI3237
Vince
p3181
sI3238
Vauto
p3182
sI3239
Vgames
p3183
sI3240
Vfinite
p3184
sI3241
Vplurilinguisme
p3185
sI3242
Vhttp
p3186
sI3243
Vmassaro
p3187
sI3244
Vfunctions
p3188
sI3245
Vsaami
p3189
sI3246
Vphd
p3190
sI3247
Vv2
p3191
sI3248
Vstudent
p3192
sI3249
Vtimroth
p3193
sI3250
Vjudgment
p3194
sI3251
Vscholars
p3195
sI3252
Videntity
p3196
sI3253
Vtucker
p3197
sI3254
Vceltic
p3198
sI3255
Voff
p3199
sI3256
Vcenter
p3200
sI3257
Vneural
p3201
sI3258
Vi
sI3259
Vcom
p3202
sI3260
Vwell
p3203
sI3261
Vpatterns
p3204
sI3262
Vutrecht
p3205
sI3263
V351
p3206
sI3264
Venglish
p3207
sI3265
Vposition
p3208
sI3266
Vaudio
p3209
sI3267
Vlatest
p3210
sI3268
Vneologisms
p3211
sI3269
Vstores
p3212
sI3270
Vnicknames
p3213
sI3271
Vsocio-linguistics
p3214
sI3272
Vwealthy
p3215
sI3273
Vbloomfield
p3216
sI3274
Vcoling-acl
p3217
sI3275
Vsources
p3218
sI3276
Vinterim
p3219
sI3277
Vvirtual
p3220
sI3278
Venterprise
p3221
sI3279
Vmths
p3222
sI3280
Vpaul
p3223
sI3281
V41
p3224
sI3282
Vcoordination
p3225
sI3283
Vclipper
p3226
sI3284
Vallgemeine
p3227
sI3285
Vboersma
p3228
sI3286
Vpreprint
p3229
sI3287
Vads
p3230
sI3288
Vfield
p3231
sI3289
Vweightless
p3232
sI3290
Vjeff
p3233
sI3291
Vsky
p3234
sI3292
Vrecommending
p3235
sI3293
Vother
p3236
sI3294
Vsweet
p3237
sI3295
Vusage
p3238
sI3296
V280
p3239
sI3297
Vadl
p3240
sI3298
V282
p3241
sI3299
Vloan
p3242
sI3300
Vgmt
p3243
sI3301
Vwont
p3244
sI3302
Vrspas
p3245
sI3303
Varticles
p3246
sI3304
Vchecking
p3247
sI3305
Vfyi
p3248
sI3306
Vutah
p3249
sI3307
Vterm
p3250
sI3308
Vfive
p3251
sI3309
Vknow
p3252
sI3310
Vfacial
p3253
sI3311
Vpress
p3254
sI3312
Vimmediately
p3255
sI3313
Vpassword
p3256
sI3314
Vpier
p3257
sI3315
Vloss
p3258
sI3316
Vlike
p3259
sI3317
Vlost
p3260
sI3318
Vukjx
p3261
sI3319
Vdictionaries
p3262
sI3320
Vkaren
p3263
sI3321
Vkuala
p3264
sI3322
Vjames
p3265
sI3323
Vadjoining
p3266
sI3324
Vworks
p3267
sI3325
Vpage
p3268
sI3326
Vitalian
p3269
sI3327
Vaccessible
p3270
sI3328
V988
p3271
sI3329
Vbecause
p3272
sI3330
Vclassical
p3273
sI3331
V980
p3274
sI3332
Vbasque
p3275
sI3333
Vsearching
p3276
sI3334
Vlibrary
p3277
sI3335
Vhair
p3278
sI3336
Vconnectives
p3279
sI3337
Vrecommendation
p3280
sI3338
Vproper
p3281
sI3339
Vhome
p3282
sI3340
Vrecognition
p3283
sI3341
Vvso
p3284
sI3342
Vest
p3285
sI3343
Vcongress
p3286
sI3344
Vcognition
p3287
sI3345
Vgoedemans
p3288
sI3346
Vdelaware
p3289
sI3347
Vpashto
p3290
sI3348
Vmarkers
p3291
sI3349
V14th
p3292
sI3350
Ve-mail
p3293
sI3351
Vdoes
p3294
sI3352
Vjoin
p3295
sI3353
Vmutation
p3296
sI3354
Veconomical
p3297
sI3355
Vsweepstakes
p3298
sI3356
Vesl
p3299
sI3357
Vfanny
p3300
sI3358
V?
sI3359
Vmedieval
p3301
sI3360
Vschedule
p3302
sI3361
Vjournal
p3303
sI3362
Vhost
p3304
sI3363
Vyuen
p3305
sI3364
Vinstinct
p3306
sI3365
Vloans
p3307
sI3366
Vpanel
p3308
sI3367
Vabout
p3309
sI3368
Vbills
p3310
sI3369
Vextension
p3311
sI3370
Vgemination
p3312
sI3371
Vscott
p3313
sI3372
Vdependency
p3314
sI3373
Vaddendum
p3315
sI3374
Vconstraints
p3316
sI3375
Vtome
p3317
sI3376
Vsoftware
p3318
sI3377
Vown
p3319
sI3378
Vwilderness
p3320
sI3379
Vkeeps
p3321
sI3380
Vmicrocap
p3322
sI3381
Vquichua
p3323
sI3382
Vfunctional
p3324
sI3383
Vregistration
p3325
sI3384
Vuniversals
p3326
sI3385
Vvan
p3327
sI3386
Vfriends
p3328
sI3387
Vminority
p3329
sI3388
V*
sI3389
Vindoeuropean
p3330
sI3390
Vhokan
p3331
sI3391
V8820
p3332
sI3392
Vtalc98
p3333
sI3393
Vtroubling
p3334
sI3394
Vfunction
p3335
sI3395
Vbuy
p3336
sI3396
Vnorth
p3337
sI3397
Vtina
p3338
sI3398
Vbut
p3339
sI3399
Vvolume
p3340
sI3400
Vhk
p3341
sI3401
Vhi
p3342
sI3402
Vflexible
p3343
sI3403
Vconvergence
p3344
sI3404
Vear
p3345
sI3405
Vpresuppositions
p3346
sI3406
Vhe
p3347
sI3407
Vmade
p3348
sI3408
Vtemp
p3349
sI3409
Vj
sI3410
Vhosting
p3350
sI3411
Vdunque
p3351
sI3412
Vrecord
p3352
sI3413
Vbooks
p3353
sI3414
Vdistribution
p3354
sI3415
Vinformational
p3355
sI3416
Vwac4
p3356
sI3417
Vunfolding
p3357
sI3418
Virish
p3358
sI3419
Vbudiman
p3359
sI3420
Vint
p3360
sI3421
Vuniversal
p3361
sI3422
Vyear
p3362
sI3423
Vpie
p3363
sI3424
Vpig
p3364
sI3425
Vmultimodal
p3365
sI3426
Vppsn
p3366
sI3427
Vdonnellan
p3367
sI3428
Viada
p3368
sI3429
Videntities
p3369
sI3430
Vinc
p3370
sI3431
Vdiego
p3371
sI3432
Vhpsg
p3372
sI3433
Vincredible
p3373
sI3434
V44
p3374
sI3435
Vaquariums
p3375
sI3436
V40
p3376
sI3437
Villinois
p3377
sI3438
Vbook
p3378
sI3439
Vdetails
p3379
sI3440
Vmass
p3380
sI3441
Vscil
p3381
sI3442
Vcanada
p3382
sI3443
Vjunk
p3383
sI3444
Vselim
p3384
sI3445
Vtranformational
p3385
sI3446
Vjune
p3386
sI3447
Vvariation
p3387
sI3448
Vchance
p3388
sI3449
Vmankind
p3389
sI3450
Vretroflex
p3390
sI3451
Vdialectal
p3391
sI3452
Vlinguistisches
p3392
sI3453
Vdave
p3393
sI3454
Vrule
p3394
sI3455
Vdomani
p3395
sI3456
Vsyllabi
p3396
sI3457
V4a
p3397
sI3458
Vdefend
p3398
sI3459
V8th
p3399
sI3460
S'UNK'
p3400
s.