(lp1
(lp2
S'dog'
p3
aS'eat'
p4
aS'thing'
p5
aS'cat'
p6
aS'eat'
p7
aa(lp8
S'dog'
p9
aS'mous'
p10
aa(lp11
S'mice'
p12
aS'eat'
p13
aS'littl'
p14
aS'thing'
p15
aa(lp16
S'cat'
p17
aS'often'
p18
aS'plai'
p19
aS'rat'
p20
aS'mice'
p21
aa(lp22
S'cat'
p23
aS'often'
p24
aS'plai'
p25
aS'cat'
p26
aa.