(dp1
I0
S'zerostart'
p2
sI1
S'a'
sI2
S'and'
p3
sI3
S'good'
p4
sI4
S'dogs'
p5
sI5
S"n't"
p6
sI6
S'pet'
p7
sI7
S'fine'
p8
sI8
S'is'
p9
sI9
S'cat'
p10
sI10
S'disabled'
p11
sI11
S'i'
sI12
S'have'
p12
sI13
S'cats'
p13
sI14
S'pets'
p14
sI15
S'in'
p15
sI16
S'got'
p16
sI17
S'the'
p17
sI18
S'.'
sI19
S'hat'
p18
sI20
S'ponies'
p19
sI21
S'make'
p20
sI22
S'EOF'
p21
sI23
S'UNK'
p22
s.