(ilsa.vector_space
VectorSpace
p1
(dp2
S'word_index'
p3
(dp4
I0
S'zerostart'
p5
sI1
S'a'
sI2
S'and'
p6
sI3
S'good'
p7
sI4
S'dogs'
p8
sI5
S"n't"
p9
sI6
S'pet'
p10
sI7
S'fine'
p11
sI8
S'is'
p12
sI9
S'cat'
p13
sI10
S'disabled'
p14
sI11
S'i'
sI12
S'have'
p15
sI13
S'cats'
p16
sI14
S'pets'
p17
sI15
S'in'
p18
sI16
S'got'
p19
sI17
S'the'
p20
sI18
S'.'
sI19
S'hat'
p21
sI20
S'ponies'
p22
sI21
S'make'
p23
sI22
S'EOF'
p24
sI23
S'UNK'
p25
ssS'td_tfidf'
p26
(lp27
(lp28
F0
aF0
aF0
aF0
aF0
aF0
aF0
aF0
aF0
aF0.51082562376599072
aF0.91629073187415511
aF0
aF0
aF0
aF0
aF0.91629073187415511
aF0
aF1.8325814637483102
aF0
aF0.51082562376599072
aF0
aF0
aF0
aF0
aa(lp29
F0
aF1.0216512475319814
aF0
aF0
aF0
aF0
aF0.91629073187415511
aF0.91629073187415511
aF0.91629073187415511
aF0.51082562376599072
aF0
aF0
aF0
aF0
aF0
aF0
aF0
aF0
aF0.22314355131420976
aF0
aF0.91629073187415511
aF0
aF0
aF0
aa(lp30
F0
aF0
aF0.91629073187415511
aF0.91629073187415511
aF0.91629073187415511
aF0
aF0
aF0
aF0
aF0
aF0
aF0
aF0
aF0.91629073187415511
aF0.91629073187415511
aF0
aF0
aF0
aF0.22314355131420976
aF0
aF0
aF0.91629073187415511
aF0
aF0
aa(lp31
F0
aF0.51082562376599072
aF0
aF0
aF0
aF0.91629073187415511
aF0
aF0
aF0
aF0
aF0
aF0.91629073187415511
aF0.91629073187415511
aF0
aF0
aF0
aF0.91629073187415511
aF0
aF0.22314355131420976
aF0.51082562376599072
aF0
aF0
aF0
aF0
aasS'td_bow_sublin'
p32
(lp33
(lp34
I0
aI0
aI0
aI0
aI0
aI0
aI0
aI0
aI0
aF1
aF1
aI0
aI0
aI0
aI0
aF1
aI0
aF1.6931471805599454
aI0
aF1
aI0
aI0
aI0
aI0
aa(lp35
I0
aF1.6931471805599454
aI0
aI0
aI0
aI0
aF1
aF1
aF1
aF1
aI0
aI0
aI0
aI0
aI0
aI0
aI0
aI0
aF1
aI0
aF1
aI0
aI0
aI0
aa(lp36
I0
aI0
aF1
aF1
aF1
aI0
aI0
aI0
aI0
aI0
aI0
aI0
aI0
aF1
aF1
aI0
aI0
aI0
aF1
aI0
aI0
aF1
aI0
aI0
aa(lp37
I0
aF1
aI0
aI0
aI0
aF1
aI0
aI0
aI0
aI0
aI0
aF1
aF1
aI0
aI0
aI0
aF1
aI0
aF1
aF1
aI0
aI0
aI0
aI0
aasS'td_bow'
p38
(lp39
(lp40
I0
aI0
aI0
aI0
aI0
aI0
aI0
aI0
aI0
aI1
aI1
aI0
aI0
aI0
aI0
aI1
aI0
aI2
aI0
aI1
aI0
aI0
aI0
aI0
aa(lp41
I0
aI2
aI0
aI0
aI0
aI0
aI1
aI1
aI1
aI1
aI0
aI0
aI0
aI0
aI0
aI0
aI0
aI0
aI1
aI0
aI1
aI0
aI0
aI0
aa(lp42
I0
aI0
aI1
aI1
aI1
aI0
aI0
aI0
aI0
aI0
aI0
aI0
aI0
aI1
aI1
aI0
aI0
aI0
aI1
aI0
aI0
aI1
aI0
aI0
aa(lp43
I0
aI1
aI0
aI0
aI0
aI1
aI0
aI0
aI0
aI0
aI0
aI1
aI1
aI0
aI0
aI0
aI1
aI0
aI1
aI1
aI0
aI0
aI0
aI0
aasb.