(lp1
(lp2
S'dogs'
p3
aS'eat'
p4
aS'the'
p5
aS'same'
p6
aS'things'
p7
aS'that'
p8
aS'cats'
p9
aS'eat'
p10
aa(lp11
S'no'
p12
aS'dog'
p13
aS'is'
p14
aS'a'
aS'mouse'
p15
aa(lp16
S'mice'
p17
aS'eat'
p18
aS'little'
p19
aS'things'
p20
aa(lp21
S'cats'
p22
aS'often'
p23
aS'play'
p24
aS'with'
p25
aS'rats'
p26
aS'and'
p27
aS'mice'
p28
aa(lp29
S'cats'
p30
aS'often'
p31
aS'play'
p32
aS','
aS'but'
p33
aS'not'
p34
aS'with'
p35
aS'other'
p36
aS'cats'
p37
aa.