(dp1
I0
S'zerostart'
p2
sI1
S'and'
p3
sI2
S'rats'
p4
sI3
S'often'
p5
sI4
S'is'
p6
sI5
S'mouse'
p7
sI6
S'little'
p8
sI7
S'no'
p9
sI8
S'things'
p10
sI9
S','
sI10
S'same'
p11
sI11
S'cats'
p12
sI12
S'dogs'
p13
sI13
S'play'
p14
sI14
S'that'
p15
sI15
S'but'
p16
sI16
S'not'
p17
sI17
S'mice'
p18
sI18
S'with'
p19
sI19
S'eat'
p20
sI20
S'a'
sI21
S'dog'
p21
sI22
S'the'
p22
sI23
S'other'
p23
sI24
S'EOF'
p24
sI25
S'UNK'
p25
s.