(dp1
Vlimited
p2
I1387
sVmid-continental
p3
I1388
sVpardon
p4
I1389
sVsaver
p5
I1390
sVdynamic
p6
I1391
sVnottingham
p7
I1392
sVasian
p8
I149
sVaffixes
p9
I659
sVsci
p10
I1393
sVbuccalization
p11
I1394
sVincrease
p12
I1396
sVreplacements
p13
I1446
sVceases
p14
I1398
sVecdl
p15
I1399
sVkbcs-98
p16
I867
sVaum
p17
I1400
sVaisb96
p18
I1402
sVvoted
p19
I1403
sVunder
p20
I1404
sVteaching
p21
I160
sVsorry
p22
I1405
sVworth
p23
I1407
sVxth
p24
I1408
sV@
I335
sVupdated
p25
I868
sVrisk
p26
I869
sVarboreal
p27
I1409
sVneg0
p28
I1410
sVinternet
p29
I91
sVdell
p30
I1411
sVevery
p31
I1412
sVupdates
p32
I1413
sVlecture
p33
I1414
sVmonth
p34
I870
sVtagging
p35
I1415
sVschool
p36
I161
sVrea
p37
I1416
sVmacswan
p38
I1417
sVinvestigator
p39
I1418
sVreduplication
p40
I1419
sVvelar
p41
I1420
sVcmc
p42
I1421
sVtang
p43
I1422
sVclite
p44
I1423
sVsystemic
p45
I619
sVannounced
p46
I2065
sVlanuage
p47
I3318
sVkonvens98
p48
I473
sVrun-on
p49
I1424
sVenjoy
p50
I1425
sVbill
p51
I620
sVpragmatic
p52
I1426
sVconcise
p53
I1427
sVlistserve
p54
I1428
sVcapitalisation
p55
I621
sVtwlt14
p56
I1429
sVrodman
p57
I1430
sV007
p58
I1586
sVjapanese
p59
I118
sVhorn
p60
I1431
sVsecond
p61
I119
sVsummer
p62
I139
sVborrowings
p63
I1432
sV7th
p64
I1433
sVavailable
p65
I74
sVboyland
p66
I1434
sVprosody
p67
I644
sVsociolinguist
p68
I1435
sVeven
p69
I623
sVerrors
p70
I474
sVpreferences
p71
I1436
sV+
I97
sVund
p72
I2359
sVasia
p73
I391
sVnez
p74
I1437
sVchechen
p75
I1438
sVcheng
p76
I1439
sVcross-cultural
p77
I1440
sVnew
p78
I18
sVnet
p79
I624
sVever
p80
I1441
sVexclamations
p81
I1682
sVspecialist
p82
I938
sVnotions
p83
I1444
sVmel
p84
I872
sVnever
p85
I873
sVhere
p86
I392
sVhundreds
p87
I1445
sVanthropology
p88
I874
sV108
p89
I625
sVchina
p90
I1447
sVpath
p91
I1448
sVstudia
p92
I1449
sVmey
p93
I1450
sVconversational
p94
I626
sVwaseda
p95
I1451
sVhunting
p96
I1452
sVforum
p97
I875
sVk
I475
sVreports
p98
I393
sVguide
p99
I1453
sVhansa
p100
I1454
sVgenerala
p101
I1455
sVanalysts
p102
I1456
sVgls
p103
I476
sVchanges
p104
I627
sVsegments
p105
I1457
sVcriticism
p106
I1458
sVclassification
p107
I628
sVdiscontinuous
p108
I1459
sVpsychological
p109
I1460
sVunix
p110
I1461
sVtotal
p111
I1462
sVuniv
p112
I477
sVu
I557
sVplot
p113
I1463
sVlaryngeal
p114
I1464
sVcriminals
p115
I1465
sVjetai
p116
I1466
sVwould
p117
I1467
sVhualapai
p118
I1468
sVchamito
p119
I1469
sVnegative
p120
I1470
sVmitwpl
p121
I336
sVdistributing
p122
I478
sVorthography
p123
I1224
sVcall
p124
I17
sVstrike
p125
I876
sVbu
p126
I877
sVpreview
p127
I1471
sVcald
p128
I1472
sVuntil
p129
I1473
sVposting
p130
I253
sVsenseval
p131
I1475
sVsuccessful
p132
I1476
sVmotors
p133
I1477
sV212-6587900
p134
I1478
sV99
p135
I76
sV98
p136
I28
sVberlin
p137
I1479
sV1435
p138
I879
sVadult
p139
I337
sV90
p140
I1480
sVhole
p141
I1481
sVhold
p142
I1482
sV95
p143
I103
sV94
p144
I880
sV97
p145
I222
sV96
p146
I479
sVme
p147
I881
sVii
p148
I394
sVdgfs
p149
I395
sVword
p150
I223
sVmc
p151
I1938
sVpwpl
p152
I1483
sV1999
p153
I162
sV1998
p154
I45
sVwork
p155
I629
sVik
p156
I1484
sVtheories
p157
I882
sVmt
p158
I290
sVtagalog
p159
I1486
sVconcepts
p160
I1014
sVernest
p161
I1488
sVmy
p162
I1489
sVexample
p163
I630
sVproverbio
p164
I1490
sVaaas
p165
I631
sVprogramming
p166
I2105
sViawe
p167
I883
sVmarkedness
p168
I1979
sVindia
p169
I1493
sV550
p170
I1984
sVcomputereinsatz
p171
I1967
sVcurrency
p172
I1029
sVmarco
p173
I1765
sVwant
p174
I338
sVcantonese
p175
I1496
sVaaai
p176
I1497
sVattract
p177
I1498
sVaaal
p178
I885
sVhoe
p179
I1499
sVend
p180
I632
sVsyntactic
p181
I481
sVtravel
p182
I633
sVjochem
p183
I1500
sVfeature
p184
I1501
sV1196
p185
I886
sVmachine
p186
I191
sVhow
p187
I176
sVhot
p188
I339
sVpossessives
p189
I1502
sVanswer
p190
I1503
sVsymposium
p191
I87
sVwolfram
p192
I1505
sVseelangs
p193
I1506
sVdialect
p194
I291
sVminority
p195
I254
sVtextlinguistics
p196
I1508
sVafter
p197
I1509
sVlab
p198
I1510
sVmcwop
p199
I1511
sVwrong
p200
I1512
sVfracas
p201
I1513
sVpredicates
p202
I1514
sVsalsa
p203
I1515
sVlaw
p204
I1516
sVparallel
p205
I887
sVtypes
p206
I1517
sVpurchase
p207
I1518
sV1281
p208
I1519
sVthird
p209
I482
sVseduce
p210
I888
sVthink
p211
I1520
sVgreek
p212
I292
sVcomplexity
p213
I634
sVgreen
p214
I1521
sVkarcevskij
p215
I1522
sV816-356
p216
I1523
sVdemocratic
p217
I1524
sVorder
p218
I483
sVrestriction
p219
I1525
sVoffice
p220
I1526
sVover
p221
I396
sVlinguistlist
p222
I1527
sVclitics
p223
I1528
sVorientale
p224
I1529
sVlondon
p225
I1530
sVjapan
p226
I293
sVbefore
p227
I1532
sVlocklear
p228
I1533
sVamericana
p229
I1534
sVpersonal
p230
I889
sVfix
p231
I1535
sVmultidisciplinary
p232
I890
sV,
I3
sVwriting
p233
I224
sVbetter
p234
I397
sV1370
p235
I891
sV405
p236
I484
sVproduction
p237
I1536
sVlingvistica
p238
I1537
sVfig
p239
I635
sV400
p240
I1538
sVpustejovsky
p241
I1539
sVcree
p242
I1540
sVsplit
p243
I1774
sVversus
p244
I892
sVthem
p245
I893
sVinternationa
p246
I1542
sVinterdisciplinary
p247
I894
sVdiachronica
p248
I895
sVbreak
p249
I1543
sVeducating
p250
I636
sVeffects
p251
I896
sVthey
p252
I486
sVschools
p253
I294
sVyourself
p254
I1544
sVelsnet
p255
I1545
sVsmoking
p256
I1546
sVprize
p257
I1547
sVgermanic
p258
I163
sVnetherlands
p259
I897
sVgrammar
p260
I51
sVfonts
p261
I487
sVl
I295
sVrocks
p262
I898
sV378
p263
I1548
sVeacl
p264
I899
sVeach
p265
I1549
sV370
p266
I1550
sV375
p267
I1552
sVside
p268
I900
sVbantu
p269
I1553
sVconsolidate
p270
I1554
sVtheworld
p271
I1555
sVfinancial
p272
I552
sVconcord
p273
I1557
sVdiana
p274
I488
sVweightless
p275
I1558
sVprinciples
p276
I1559
sVemnlp3
p277
I637
sVliterature
p278
I277
sVyiddish
p279
I901
sV395
p280
I1561
sVcombining
p281
I1562
sVgeisteswissenschaften
p282
I1563
sVtypology
p283
I225
sVuncollected
p284
I2435
sVnetwork
p285
I902
sVhellenistic
p286
I903
sVlangue
p287
I1564
sVdialects
p288
I255
sVtried
p289
I1565
sVmayan
p290
I904
sVfellows
p291
I1566
sVcontent
p292
I1567
sVfellowship
p293
I905
sVrf
p294
I1568
sVbanning
p295
I489
sVgot
p296
I906
sVjall
p297
I907
sVcreole
p298
I908
sVfoundation
p299
I1569
sVarizona
p300
I1570
sVdatasources
p301
I1571
sVlove
p302
I1018
sVial
p303
I2122
sVeisteddfodau
p304
I1573
sVthreatened
p305
I1574
sVfree
p306
I42
sVstandard
p307
I1575
sVmanagement
p308
I639
sVesslli
p309
I398
sVwanted
p310
I490
sV249
p311
I491
sVcertified
p312
I1577
sVihardunaldiak
p313
I1579
sVcreated
p314
I1401
sV17-19
p315
I1581
sVcorrectness
p316
I1582
sVdays
p317
I399
sVsintassi
p318
I1583
sV293
p319
I640
sVfascino
p320
I1584
sVsmokers
p321
I1585
sVcorrections
p322
I909
sValster
p323
I2563
sVuralic
p324
I910
sVphonetics
p325
I104
sVindustrial
p326
I1589
sVfeatures
p327
I1590
sVthereon
p328
I1591
sVresearcher
p329
I911
sVez
p330
I1592
sVhearing
p331
I1593
sVlately
p332
I1594
sVphilosophical
p333
I1595
sVstylistics
p334
I1596
sV176
p335
I1597
sVesperanto
p336
I1598
sVelectronic
p337
I642
sVijhcs
p338
I1599
sVservice
p339
I492
sVtop
p340
I643
sVtov
p341
I1600
sVfiction
p342
I493
sVneeded
p343
I204
sVtromsoe
p344
I1601
sV2
I61
sVmaster
p345
I1603
sVlisted
p346
I1604
sVxiv
p347
I1605
sVtoc
p348
I120
sVcorpus
p349
I150
sVjohn
p350
I1607
sVpaclic12
p351
I1608
sVpaclic10
p352
I1609
sVgeneve
p353
I1610
sVgeneva
p354
I1611
sVserve
p355
I1613
sVdirect
p356
I912
sVcilca
p357
I1614
sVwestern
p358
I913
sVcorpuys
p359
I1615
sVhelen
p360
I1616
sVtranslingual
p361
I914
sVdistance
p362
I1617
sViwcs
p363
I1618
sVaditjondro
p364
I1619
sVforensic
p365
I915
sVtree
p366
I916
sVzero
p367
I1620
sVtmi-99
p368
I1621
sVproject
p369
I494
sVbigrams
p370
I1622
sVclasses
p371
I1114
sVhistorical
p372
I226
sVflorida
p373
I1623
sV10th
p374
I1624
sVdiachrony
p375
I1625
sVhayo
p376
I1626
sVacquisition
p377
I75
sVquebec
p378
I1627
sVmini
p379
I1628
sValaa
p380
I918
sVkiyoshi
p381
I1629
sVdisambiguation
p382
I919
sVmodern
p383
I400
sVmind
p384
I495
sVmine
p385
I1630
sVglass
p386
I1631
sVparsers
p387
I1632
sVsocio
p388
I920
sVrap
p389
I1633
sVseen
p390
I1634
sVseminar
p391
I296
sVin-aid
p392
I1635
sVacademic
p393
I1636
sV-
I2
sVsnow
p394
I164
sVinvestment
p395
I641
sVdialectologists
p396
I3223
sVsubjects
p397
I401
sVlumpur
p398
I1637
sVparis
p399
I1638
sVlayoffs
p400
I1639
sVthough
p401
I1640
sVobject
p402
I921
sVtranslator
p403
I645
sVgermany
p404
I646
sVletter
p405
I402
sVhacek
p406
I1641
sVutxvms
p407
I1642
sVglot
p408
I297
sValabama
p409
I1643
sVlexis
p410
I1644
sVglow
p411
I647
sVzealand
p412
I1645
sVreleased
p413
I298
sVijsl
p414
I497
sVmedical
p415
I1646
sVflow
p416
I1647
sVchiini
p417
I1648
sVyours
p418
I1649
sVpalatal
p419
I1650
sVdefinitely
p420
I922
sVsprachwissenschaft
p421
I923
sVdos
p422
I924
sVnineteenth
p423
I925
sVuptalk
p424
I1651
sVmailing
p425
I926
sVasie
p426
I1652
sVpidgins
p427
I648
sVconference-5
p428
I1653
sV1143
p429
I1654
sVnominalization
p430
I1655
sVretire
p431
I1880
sVsexist
p432
I1657
sVsyntax
p433
I29
sVsexism
p434
I3024
sVisfc
p435
I1659
sVuninflected
p436
I1662
sVsubmit
p437
I459
sVterminologie
p438
I1664
sVdebts
p439
I1665
sVvacation
p440
I729
sV11116
p441
I1666
sVkassel
p442
I927
sV543
p443
I1667
sVtheme
p444
I928
sVgreenberg
p445
I1668
sVrich
p446
I1669
sVannounce
p447
I1670
sVocr
p448
I929
sVcfps
p449
I1671
sVreconstruction
p450
I649
sViatl
p451
I650
sV10
p452
I165
sVde
p453
I133
sVvowels
p454
I930
sVicslp
p455
I651
sVgogo
p456
I1672
sVapple-iss
p457
I1673
sVeurogp
p458
I1674
sV764
p459
I1675
sVnegated
p460
I1676
sVreport
p461
I652
sVtoolbox
p462
I1677
sVdu
p463
I931
sVdr
p464
I1678
sVearn
p465
I932
sVtextbooks
p466
I653
sVidioms
p467
I933
sVtranslating
p468
I934
sVmidamerica
p469
I1679
sVmethod
p470
I72
sVbad
p471
I1680
sV417
p472
I1681
sV34th
p473
I1712
sVems
p474
I935
sV413
p475
I1683
sVrelease
p476
I654
sVflutter
p477
I936
sVlinguist
p478
I106
sVautomatic
p479
I937
sVebicc
p480
I1684
sVinaugural
p481
I3091
sVrespond
p482
I1685
sVleasing
p483
I1686
sVreference
p484
I177
sVicla
p485
I1687
sVprototypical
p486
I1688
sVtechniques
p487
I1689
sVbrazil
p488
I1690
sVoceanic
p489
I3220
sVattitudes
p490
I1692
sV06
p491
I1693
sV04
p492
I1694
sVlots
p493
I1695
sVaway
p494
I1696
sVirs
p495
I1697
sVrings
p496
I1698
sVshaved
p497
I1699
sVartificial
p498
I499
sVtechnicia
p499
I2421
sVvoyeur
p500
I1701
sVr
I299
sVpay-no
p501
I1702
sVmuc
p502
I1703
sV12ichl
p503
I1704
sVconceptual
p504
I940
sVapproach
p505
I941
sVdiscovery
p506
I1706
sVwe
p507
I178
sVterms
p508
I227
sVantipassive
p509
I2180
sVwo
p510
I1707
sVweak
p511
I1708
sVwh
p512
I942
sVsoutheast
p513
I943
sVcut
p514
I1709
sVws
p515
I500
sVhuang
p516
I1710
sV387
p517
I1711
sVnews
p518
I256
sVdebt
p519
I403
sVliposuction
p520
I1713
sVrightward
p521
I944
sVila
p522
I1714
sVcountry
p523
I1715
sVreaders
p524
I2864
sVagainst
p525
I1716
sVhamada
p526
I1717
sVunc
p527
I1718
sVcolloquium
p528
I187
sVlogic
p529
I340
sVnameserver
p530
I1721
sVfreshest
p531
I3342
sVasked
p532
I656
sVcon
p533
I1723
sVsocio-linguistics
p534
I1724
sVtone
p535
I501
sVhad
p536
I1725
sVgopher
p537
I945
sV2nd
p538
I73
sVtons
p539
I1726
sVbasque
p540
I1728
sVtilburg
p541
I946
sV100
p542
I502
sVconference
p543
I22
sVyale
p544
I2627
sVkoyra
p545
I1729
sVengines
p546
I1730
sVsource
p547
I1731
sVmicrocap
p548
I1732
sVbeen
p549
I503
sV.
I1
sVadvert
p550
I1733
sVscatton
p551
I2121
sVinterest
p552
I1734
sVbasic
p553
I341
sVtutorials
p554
I657
sVshinri
p555
I2102
sVlovely
p556
I1736
sVcorrection
p557
I151
sVwebsite
p558
I1737
sVdry
p559
I1738
sVlife
p560
I342
sVprosperous
p561
I1739
sVeastern
p562
I947
sVpacling
p563
I1740
sV900
p564
I1741
sVsigir98
p565
I1742
sVcircumcision
p566
I1743
sVsycophants
p567
I1744
sVcuny
p568
I658
sVchild
p569
I205
sVfuturesignals
p570
I866
sV167
p571
I1745
sV161
p572
I1746
sVcartoons
p573
I1747
sVapplied
p574
I113
sVopenings
p575
I1748
sVsynchronic
p576
I1750
sVsampson
p577
I1751
sVslt
p578
I1752
sVlctl
p579
I1753
sVkentucky
p580
I1754
sVn
I228
sVdept
p581
I1755
sVapocryphal
p582
I1756
sVteachers
p583
I948
sVsle
p584
I404
sVlabphon6
p585
I504
sVsla
p586
I505
sVstop
p587
I820
sVcont
p588
I949
sVconcordancer
p589
I1757
sVconv
p590
I1758
sVmexico
p591
I1759
sVdiscourses
p592
I1760
sVseparatism
p593
I1761
sVis
p594
I68
sVspeech
p595
I100
sVit
p596
I229
sViv
p597
I660
sVhpsg97
p598
I1763
sVclin
p599
I1764
sVgrammars
p600
I343
sVsiouan
p601
I2872
sVil
p602
I950
sVconf
p603
I77
sVin
p604
I9
sVcomparative
p605
I49
sVfarsi
p606
I1766
sVie
p607
I1767
sVid
p608
I951
sVif
p609
I344
sValasa
p610
I1768
sVhong
p611
I1769
sVspecialization
p612
I1770
sVintrasentential
p613
I1771
sVcredit
p614
I300
sVlarge
p615
I638
sVmake
p616
I498
sVpunctuation
p617
I405
sVwound
p618
I1772
sVbella
p619
I1773
sVany
p620
I506
sVcoola
p621
I3152
sVsuccess
p622
I953
sVpre-school
p623
I1775
sVeuropean
p624
I166
sVindependent
p625
I1776
sVskyrocket
p626
I954
sVwelsh
p627
I1778
sVnic
p628
I1779
sVhana
p629
I1780
sV97-98
p630
I1781
sVclosings
p631
I1782
sVspeakers
p632
I345
sVrain
p633
I661
sVhand
p634
I1783
sVnorwegian
p635
I1580
sVcharacters
p636
I662
sVgerman-english
p637
I1786
sVhans
p638
I1787
sVopportunity
p639
I257
sVaisb
p640
I1788
sVliteratures
p641
I1789
sVkept
p642
I1790
sVslrf
p643
I1791
sVintrusion
p644
I1792
sVprograms
p645
I406
sVhispanic
p646
I955
sVsavings
p647
I956
sVcontact
p648
I346
sVgreatest
p649
I1793
sVquantitative
p650
I407
sVthe
p651
I15
sV800
p652
I957
sVinvestments
p653
I1794
sVkinship
p654
I408
sVconsciousness
p655
I958
sVsentence
p656
I959
sVinterrogatives
p657
I1796
sVideas
p658
I1797
sVranlp
p659
I960
sVthanks
p660
I507
sVhuman
p661
I179
sVyet
p662
I663
sVproofing
p663
I1799
sVlasso
p664
I1800
sVatip
p665
I1801
sVdialogues
p666
I1802
sVaa29536
p667
I1803
sVendangered
p668
I258
sVcornell
p669
I1804
sVcharacter
p670
I664
sVeasy
p671
I1805
sVfares
p672
I1806
sVeast
p673
I347
sVamazonian
p674
I1807
sVusable
p675
I1809
sVmaya
p676
I961
sVadvances
p677
I1810
sVpossible
p678
I1811
sVcultural
p679
I962
sVbackground
p680
I409
sVsilverman
p681
I1812
sVtense-aspect
p682
I1813
sVunique
p683
I963
sVadvanced
p684
I1814
sVd
I1235
sVdesire
p685
I1808
sVtsch
p686
I1816
sVgift
p687
I964
sV55
p688
I965
sV57
p689
I966
sVperforming
p690
I967
sV50
p691
I410
sV52
p692
I1817
sVspecific
p693
I1818
sVoaxaca
p694
I1819
sVflaps
p695
I1820
sVwebentrepreneurs
p696
I1821
sValgonquian
p697
I1822
sVesrc
p698
I1823
sVsurf
p699
I1395
sVwww
p700
I134
sVpostpositions
p701
I1824
sVhonored
p702
I1507
sVpeople
p703
I413
sVlocatives
p704
I1825
sVintern
p705
I411
sVpenutian
p706
I1826
sVdear
p707
I1827
sVmultiple
p708
I2163
sVadvertise
p709
I970
sVmazel
p710
I1829
sVaustronesian
p711
I971
sVembodied
p712
I666
sVsociology
p713
I510
sVhumor
p714
I1830
sVclash
p715
I1831
sVxv
p716
I1795
sVicl
p717
I972
sVcolloque
p718
I667
sVschilling
p719
I1832
sVear
p720
I3237
sVcomments
p721
I973
sV429
p722
I668
sVtrack
p723
I511
sV421
p724
I1833
sV420
p725
I1834
sVchristmas
p726
I1835
sVparticipation
p727
I125
sVslavic
p728
I192
sVbold
p729
I1836
sVbaltics
p730
I1837
sVdental
p731
I513
sVconformation
p732
I1838
sVinnateness
p733
I230
sVplc
p734
I1839
sVcoswl
p735
I1840
sVsinica
p736
I1841
sVplm
p737
I2097
sVcocosda-97
p738
I1842
sVemail-secrets
p739
I1843
sVnewspapers
p740
I1844
sVmonths
p741
I974
sVintercultural
p742
I1845
sVo
I975
sVsycophant
p743
I976
sVfromkin
p744
I1846
sVpaclic
p745
I1847
sVairline
p746
I2375
sVplus
p747
I1848
sVislands
p748
I1849
sVsept
p749
I514
sVconsulting
p750
I1850
sVformerly
p751
I2055
sVportuguese
p752
I968
sVamericanist
p753
I1853
sVparsing
p754
I348
sVdown
p755
I1854
sVfreshman
p756
I1855
sVright
p757
I670
sVamsterdam
p758
I1856
sVanaphora
p759
I515
sVtami
p760
I1858
sVaccordo
p761
I1859
sVsupport
p762
I977
sVinitial
p763
I978
sVhypermedia
p764
I979
sVnova
p765
I1860
sVavail
p766
I301
sVanderson
p767
I2125
sVconservation
p768
I1976
sVeditor
p769
I1863
sVmusic
p770
I671
sVwas
p771
I1864
sVlagb
p772
I672
sVsynthesis
p773
I1865
sVhead
p774
I1866
sVlistserv
p775
I1867
sVfqtfsqvb
p776
I1868
sVform
p777
I980
sVoffer
p778
I231
sVpropositional
p779
I1972
sVbecoming
p780
I981
sVdifferences
p781
I1869
sVecai
p782
I2169
sVspeedracer
p783
I982
sVfeminine
p784
I1871
sVincorporation
p785
I1872
sVbengali
p786
I1873
sVdoctorants
p787
I1875
sV221
p788
I1876
sVviva
p789
I2193
sVdialectology
p790
I984
sVsilliness
p791
I1877
sVversions
p792
I1878
sVharmony
p793
I1541
sVinside
p794
I1879
sVeuralex
p795
I985
sVtrends
p796
I986
sVtell
p797
I987
sVmth
p798
I1881
sVcreolistics
p799
I1882
sVmarburg
p800
I1883
sV28th
p801
I1884
sVtheorizing
p802
I1885
sVbulgarian
p803
I988
sVtextbook
p804
I1886
sVphoneme
p805
I1887
sVsaltwater
p806
I1888
sVperez
p807
I1889
sVgenderless
p808
I673
sVcheck
p809
I674
sVphysical
p810
I1890
sVtesl
p811
I1891
sVmarking
p812
I989
sVnl
p813
I1892
sVno
p814
I79
sVcommercials
p815
I1893
sVwhen
p816
I990
sVproceedings
p817
I349
sVreality
p818
I1894
sVgrammatical
p819
I412
sVinterested
p820
I1895
sVtutorial
p821
I991
sVholding
p822
I1896
sVpapers
p823
I25
sVnp
p824
I259
sVns
p825
I1897
sVlinguistnet
p826
I1898
sV's
p827
I52
sVzu3
p828
I1899
sVmodels
p829
I992
sVdies
p830
I1900
sVwelcome
p831
I1406
sVupdate
p832
I302
sVsyldavian
p833
I994
sV'd
p834
I350
sVoncall
p835
I995
sVreplacement
p836
I1901
sVhittite
p837
I1902
sV82936699
p838
I1903
sVmdia
p839
I1904
sVgasla
p840
I1905
sVsacks
p841
I1906
sVmodals
p842
I1907
sVconnecticut
p843
I1908
sVren
p844
I996
sVfunctionalism
p845
I1909
sVteeth
p846
I1975
sVserious
p847
I997
sVn2
p848
I1910
sVnewbie
p849
I1912
sVrom
p850
I998
sVannoncement
p851
I1913
sVreviewers
p852
I999
sVadjs
p853
I1914
sVmainz
p854
I1915
sVllt
p855
I1000
sVleads
p856
I1916
sVmanager
p857
I1001
sVkiddin
p858
I1917
sV/
I16
sVcomputation
p859
I516
sVmorphology
p860
I135
sVchair
p861
I1918
sV93
p862
I1919
sV92
p863
I675
sVdisorders
p864
I1920
sVflash
p865
I1922
sVeditors
p866
I1002
sVblocking
p867
I1923
sV0
I1924
sVfinally
p868
I1925
sVumich
p869
I1926
sV810
p870
I1927
sVkolloquium
p871
I1928
sVsouthwest
p872
I1929
sVdivision
p873
I676
sVmyles
p874
I1930
sVslash
p875
I1931
sVpisin
p876
I1932
sVfrequencies
p877
I1003
sVbilingualism
p878
I303
sVepia
p879
I1933
sVcook
p880
I1934
sVgenitive
p881
I1935
sVsubcategorization
p882
I1004
sVcool
p883
I1936
sVramstedt
p884
I1937
sV1997
p885
I190
sVlevel
p886
I1939
sVdid
p887
I351
sV12th
p888
I1005
sVposts
p889
I1006
sVspecials
p890
I414
sVitem
p891
I1940
sV427
p892
I1007
sVespanol
p893
I1941
sVquick
p894
I1942
sVpostdoctoral
p895
I1943
sVdiv
p896
I1944
sVperceptual
p897
I1945
sVhaceks
p898
I1946
sVrevolution
p899
I1947
sVregret
p900
I1948
sVpsycholinguistics
p901
I260
sVquantifiers
p902
I1949
sVsigh
p903
I1950
sVdiscover
p904
I1951
sVsign
p905
I352
sVatomism
p906
I1952
sVcontrastive
p907
I1008
sVcurrent
p908
I677
sVannouncment
p909
I1953
sVhaskins
p910
I1954
sVmarketing
p911
I1013
sVprofessur
p912
I1009
sVreply
p913
I1010
sVfalling
p914
I1011
sVappeal
p915
I1956
sVconsolidations
p916
I1957
sV1237
p917
I1958
sVwail
p918
I1012
sVhenry
p919
I1487
sVfrench
p920
I152
sVunderstanding
p921
I678
sVwater
p922
I1015
sVdrug
p923
I1959
sVlangages
p924
I1960
sVaddress
p925
I180
sVdandruff
p926
I1961
sV[
I517
sVteacher
p927
I1016
sVchange
p928
I153
sVtempo-aspettuale
p929
I1962
sVreformatting
p930
I1963
sVchomskyan
p931
I1965
sVcanadian
p932
I353
sVinstitute
p933
I261
sVtrial
p934
I679
sVwomen
p935
I326
sVsimultaneous
p936
I1968
sVfranklin
p937
I1969
sVetymo-dicts
p938
I1970
sVstudies
p939
I92
sVmontreal
p940
I1017
sVmacintosh
p941
I680
sVipa
p942
I136
sV1sg
p943
I1777
sVperspectives
p944
I782
sVhumour
p945
I1019
sVextra
p946
I1020
sVexpletive
p947
I1021
sVlogical
p948
I681
sVxenical
p949
I1971
sVdurham
p950
I2888
sV1st
p951
I682
sVpost
p952
I669
sVmarket
p953
I683
sVarief
p954
I1973
sVwealth
p955
I1023
sVworking
p956
I304
sVbrighter
p957
I1974
sV0500
p958
I1024
sVmsu
p959
I1025
sVvisit
p960
I518
sVfrance
p961
I1026
sVlive
p962
I354
sVaustralian
p963
I415
sVangels
p964
I1977
sVtheoretical
p965
I305
sVdiagrams
p966
I1978
sV``
p967
I20
sVpreserving
p968
I1492
sVsessions
p969
I1027
sVclub
p970
I1028
sVsmtp
p971
I2075
sVcurriculum
p972
I1982
sVmalay
p973
I1252
sVvisual
p974
I1985
sVappel
p975
I684
sVparticipiale
p976
I1987
sVeffort
p977
I1988
sVinsights
p978
I1989
sVbisfai
p979
I884
sVmigrants
p980
I1990
sVa-12
p981
I1981
sVjulius
p982
I1991
sVroscoe
p983
I1992
sVchomsky
p984
I98
sVmodified
p985
I1993
sVreviews
p986
I1994
sVnoveau
p987
I1995
sVsaussure
p988
I1996
sVcan
p989
I262
sV9th
p990
I1997
sVcal
p991
I1998
sVfollowing
p992
I685
sVmaking
p993
I1999
sVmodifier
p994
I2000
sVroundtable
p995
I1030
sVshow-ers
p996
I2750
sVspy
p997
I2002
sVkyo
p998
I2003
sVstream
p999
I2004
sVdecember
p1000
I2005
sVagent
p1001
I2006
sVsample
p1002
I2007
sVdebt-free
p1003
I2008
sVrefine
p1004
I2009
sVnek
p1005
I2010
sVallowed
p1006
I2011
sVcounting
p1007
I686
sVpaulston
p1008
I2012
sVeuralex96
p1009
I2013
sVproductive
p1010
I2014
sVrequirements
p1011
I2015
sVwinter
p1012
I2016
sVdiscussion
p1013
I416
sVmagazine
p1014
I2017
sV1
I67
sVetymological
p1015
I1032
sVfourth
p1016
I2018
sVoptimal
p1017
I2019
sVspeaks
p1018
I2020
sVparameter
p1019
I2021
sVlehrstuhl
p1020
I2022
sV146
p1021
I2023
sVmap
p1022
I2024
sVproduct
p1023
I2025
sVmar
p1024
I2026
sVmodal
p1025
I2027
sVcsl
p1026
I2028
sVmay
p1027
I520
sVmax
p1028
I2029
sVsouthern
p1029
I1033
sVapplications
p1030
I1034
sVmac
p1031
I355
sV4th
p1032
I1035
sVeverall
p1033
I2030
sVdate
p1034
I1036
sVsociolinguistics
p1035
I93
sVendgame
p1036
I2031
sVjournals
p1037
I1531
sVannotation
p1038
I2032
sVman
p1039
I2033
sVclassroom
p1040
I2034
sVstress
p1041
I1037
sVnatural
p1042
I263
sVvarieties
p1043
I687
sV6th
p1044
I264
sVeng
p1045
I1038
sVborrowing
p1046
I2035
sVst
p1047
I1039
sVq
I121
sVfrancais
p1048
I2036
sVburmese
p1049
I2037
sVso
p1050
I521
sVkaramojong
p1051
I2038
sVtalc
p1052
I2039
sVafrican
p1053
I306
sVrepresentation
p1054
I2040
sVyouthese
p1055
I688
sVtaln
p1056
I2041
sVtalk
p1057
I2042
sVtwendial
p1058
I2043
sVcelao
p1059
I2044
sVtagged
p1060
I2045
sVestuary
p1061
I1040
sVlsa
p1062
I1321
sVtts
p1063
I2047
sVconstituents
p1064
I2048
sVkong
p1065
I2050
sVcourse
p1066
I356
sVtagger
p1067
I2051
sVstatistical
p1068
I1041
sVronde
p1069
I2053
sVjie
p1070
I2054
sVgroup
p1071
I1042
sVthank
p1072
I1330
sVswadesh
p1073
I2056
sVorganisation
p1074
I2057
sVamazing
p1075
I1043
sVattraction
p1076
I2058
sV939
p1077
I2059
sVlisting
p1078
I2060
sV933
p1079
I689
sVmail
p1080
I232
sVnystesol
p1081
I1084
sVtexas
p1082
I690
sVhappened
p1083
I1044
sVcorrespondence
p1084
I1045
sVcentenary
p1085
I2062
sVfinance
p1086
I1046
sVdisseminate
p1087
I2063
sVohio-state
p1088
I2064
sVevolution
p1089
I250
sVindigenous
p1090
I522
sVbisca-98
p1091
I1047
sVconquer
p1092
I2066
sVsubscribers
p1093
I523
sVhalf
p1094
I2067
sVnot
p1095
I691
sVnov
p1096
I1048
sVnow
p1097
I181
sV1958
p1098
I2068
sVdevelopments
p1099
I692
sVgroningen
p1100
I2069
sVinversion
p1101
I2070
sVname
p1102
I524
sVsophomore
p1103
I2071
sVpenpals
p1104
I2072
sVjanuary
p1105
I2073
sV7310
p1106
I2074
sVrock
p1107
I1049
sV826
p1108
I2076
sV823
p1109
I2077
sVel
p1110
I2078
sVdomain
p1111
I2079
sVen
p1112
I2080
sVkruse
p1113
I2081
sVlatin
p1114
I275
sVcyberspace
p1115
I2082
sVee
p1116
I2083
sVed
p1117
I693
sVrevised
p1118
I525
sVea
p1119
I2084
sVstieber
p1120
I2085
sVconventions
p1121
I2086
sVpersian
p1122
I2087
sV1484
p1123
I2088
sVeu
p1124
I2089
sVet
p1125
I307
sVkant
p1126
I1050
sVceth
p1127
I1051
sVelizabeth
p1128
I1921
sV797
p1129
I526
sV793
p1130
I2091
sV792
p1131
I1052
sV3rd
p1132
I206
sVspace
p1133
I2092
sVprofit
p1134
I308
sVbls
p1135
I2093
sV798
p1136
I2094
sVlooking
p1137
I1053
sVnominal
p1138
I1054
sVsibilant
p1139
I2095
sVwccfl
p1140
I694
sVdutch
p1141
I309
sVcorrect
p1142
I2096
sVtheory
p1143
I99
sVsheffield
p1144
I1578
sVmillion
p1145
I252
sVdivergence
p1146
I1055
sVrecordings
p1147
I2098
sVdependencies
p1148
I1056
sVcalifornia
p1149
I2099
sVohio
p1150
I2930
sVorg
p1151
I2101
sVcreoles
p1152
I695
sVcard
p1153
I2103
sVcare
p1154
I696
sVtraining
p1155
I1057
sVlanguage
p1156
I12
sVyup
p1157
I2104
sVoqth
p1158
I1491
sVbritish
p1159
I527
sVhypnosis
p1160
I1058
sVplace
p1161
I1059
sVinvitation
p1162
I1060
sVpromotion
p1163
I1061
sVchildhood
p1164
I2106
sVsumiko
p1165
I2107
sV1000
p1166
I1474
sVromanic
p1167
I2108
sVadpositional
p1168
I2109
sV1225
p1169
I1062
sVxi
p1170
I2110
sV1221
p1171
I2111
sVroelofs
p1172
I2112
sVspoken
p1173
I2133
sVlegislation
p1174
I2113
sVsymbolic
p1175
I2115
sVone
p1176
I195
sVlat
p1177
I2116
sVfast
p1178
I508
sVperiodical
p1179
I2118
sVspanish
p1180
I108
sVgenerative
p1181
I196
sVsounds
p1182
I2119
sVmorphosyntax
p1183
I528
sVgeorge
p1184
I2120
sVsize
p1185
I1588
sVcity
p1186
I1572
sVjeonju
p1187
I2123
sVcaught
p1188
I1587
sVamlap
p1189
I2124
sVresponse
p1190
I749
sVanyone
p1191
I697
sVreturns
p1192
I1064
sV1b
p1193
I1602
sVdraft
p1194
I2126
sVconvention
p1195
I1612
sVasllrp
p1196
I1066
sVlegally
p1197
I2127
sVstructures
p1198
I698
sVspeaking
p1199
I1067
sVgives
p1200
I2128
sVexploring
p1201
I2129
sVwebnet
p1202
I2130
sVthat
p1203
I80
sVrevue
p1204
I2131
sVmoscow
p1205
I1068
sVcontinuous
p1206
I2132
sVtorrego
p1207
I1069
sVarround
p1208
I2134
sVtuttle
p1209
I699
sVkeio
p1210
I2135
sVthai
p1211
I2136
sVcopy
p1212
I2137
sVrepresenting
p1213
I2138
sVthan
p1214
I2139
sVsemantics
p1215
I40
sVmetalangage
p1216
I2140
sV11
p1217
I700
sVwide
p1218
I2141
sV13
p1219
I701
sV12
p1220
I702
sV15
p1221
I358
sV14
p1222
I529
sV16
p1223
I530
sV19
p1224
I1070
sVfuture
p1225
I418
sVcards
p1226
I2142
sVproofread
p1227
I2143
sVbrowser
p1228
I2144
sVand
p1229
I5
sVsao
p1230
I2145
sVsan
p1231
I2146
sVbolognesi
p1232
I2147
sVsac
p1233
I1071
sVtopics
p1234
I1072
sVargument
p1235
I2148
sVvoices
p1236
I2149
sV13th
p1237
I703
sVanu
p1238
I704
sVrecursos
p1239
I2150
sVallen
p1240
I2151
sVmodality
p1241
I705
sVicoll
p1242
I2152
sVcomputationally
p1243
I706
sVoffering
p1244
I1073
sVchangpei
p1245
I2153
sVtranscription
p1246
I419
sVforeigner
p1247
I2154
sVconsortium
p1248
I2155
sVsemcom
p1249
I1074
sVsciences
p1250
I1075
sVideal
p1251
I2156
sVtake
p1252
I2157
sVonline
p1253
I531
sVperformance
p1254
I2158
sVverb-particles
p1255
I2159
sVimpairment
p1256
I2160
sVswitching
p1257
I707
sVultimate
p1258
I1076
sVinstanly
p1259
I2161
sV200
p1260
I708
sVimperatives
p1261
I2162
sVpain
p1262
I1828
sVsyllable
p1263
I532
sVkeeps
p1264
I2164
sVpaid
p1265
I2165
sVbeta
p1266
I2166
sVtract
p1267
I2167
sVremarks
p1268
I1077
sVevaluator
p1269
I2168
sVamerica
p1270
I533
sV]
I709
sVlatex
p1271
I534
sVforever
p1272
I1870
sVsalk
p1273
I2170
sVrefunds
p1274
I2171
sV31st
p1275
I2172
sVautosegmental
p1276
I2173
sVsale
p1277
I1078
sVprofessional
p1278
I2174
sVsalt
p1279
I2175
sVfiling
p1280
I2176
sVlipolalia
p1281
I2177
sVgrepping
p1282
I2178
sVnlp
p1283
I154
sVshor
p1284
I2179
sVlexicon
p1285
I265
sVgerman
p1286
I94
sVfulbright
p1287
I1727
sVworkshops
p1288
I710
sVperce
p1289
I2181
sVcontemporary
p1290
I1079
sVsumerologists
p1291
I1749
sVcomputationally-intensive
p1292
I2182
sVnlg
p1293
I2183
sVdata
p1294
I417
sVxxvii
p1295
I2184
sVfifth
p1296
I711
sVground
p1297
I2185
sV2525
p1298
I2186
sVboundaries
p1299
I1080
sVslow
p1300
I2187
sVfhcg-98
p1301
I2188
sVtitle
p1302
I1081
sVromanian
p1303
I2189
sVdick
p1304
I310
sVwritten
p1305
I420
sVanalytic
p1306
I421
sVonly
p1307
I114
sVgoing
p1308
I536
sVblack
p1309
I1082
sVheinrich
p1310
I2190
sVfirst
p1311
I233
sVinformatique
p1312
I2192
sVfda
p1313
I1551
sVhungarian
p1314
I2194
sVget
p1315
I197
sVassistant
p1316
I2195
sVmorphological
p1317
I537
sVrmmla
p1318
I2196
sVlagerwerf
p1319
I2197
sVcgsw
p1320
I2198
sVnels
p1321
I359
sVconjunction
p1322
I1083
sVmanuscripts
p1323
I2199
sVssc
p1324
I2200
sVircs
p1325
I2061
sVclosure
p1326
I2201
sVregarding
p1327
I2202
sVresource
p1328
I712
sVxxxnet
p1329
I2203
sVmorphophonemics
p1330
I2204
sVsummary
p1331
I30
sVoverworked
p1332
I2205
sVjokes
p1333
I2206
sVresourcs
p1334
I2207
sVleur
p1335
I2208
sVesslli98
p1336
I2209
sVnmrh
p1337
I2100
sV923
p1338
I2211
sV4971
p1339
I2212
sVcapitalfm
p1340
I198
sVfellowships
p1341
I2213
sVlangacker
p1342
I2214
sVrelative
p1343
I1086
sVcollege
p1344
I1087
sVexistence
p1345
I2215
sVmitxelena
p1346
I2216
sVsurgery
p1347
I2217
sVpostdoc
p1348
I1088
sVunderpaid
p1349
I2218
sVeuropeans
p1350
I2219
sVisraeli
p1351
I1089
sV836
p1352
I1090
sVcompounds
p1353
I538
sVmanaging
p1354
I2221
sVharvey
p1355
I2222
sVreview
p1356
I46
sVlexical
p1357
I137
sVsites
p1358
I539
sVmaterials
p1359
I1091
sVwollic
p1360
I2114
sV3
I36
sVbetween
p1361
I713
sVmandarin
p1362
I2224
sVreading
p1363
I1092
sVacross
p1364
I714
sV3cde
p1365
I2225
sVaffordable
p1366
I540
sVnotice
p1367
I541
sVjobs
p1368
I266
sVaugust
p1369
I542
sVcomp
p1370
I2226
sVtut
p1371
I2227
sVcheap
p1372
I2228
sVrevealed
p1373
I2229
sVawards
p1374
I2230
sVarmenian
p1375
I1093
sVjk
p1376
I2231
sVje
p1377
I2232
sVcome
p1378
I2233
sVtue
p1379
I2234
sVcoupons
p1380
I2235
sVdates
p1381
I715
sVacquiring
p1382
I2236
sV22
p1383
I2237
sV783
p1384
I2238
sVintonational
p1385
I2239
sVrhodes
p1386
I2240
sVcars
p1387
I2241
sVparts
p1388
I569
sVdeduction
p1389
I716
sVs
I199
sVdated
p1390
I2242
sVprecoling
p1391
I2243
sVsemitic
p1392
I234
sVathapaskan
p1393
I2244
sViascl
p1394
I2245
sVpilsudski
p1395
I2246
sVfiltering
p1396
I2247
sVdiachronic
p1397
I1094
sVoverview
p1398
I2248
sVdislocations
p1399
I2249
sVapril
p1400
I1107
sV60
p1401
I2250
sVclite1
p1402
I2251
sVgrants
p1403
I1095
sVclaw98
p1404
I2252
sVassertions
p1405
I2253
sVlearning
p1406
I138
sVarticle
p1407
I2254
sV68
p1408
I2255
sVboas
p1409
I2256
sVadults
p1410
I543
sVsave
p1411
I544
sVhattori
p1412
I2257
sVwest
p1413
I1096
sVcomputing
p1414
I2258
sVairlines
p1415
I1661
sVworkshop
p1416
I21
sVjudging
p1417
I2260
sV403
p1418
I1556
sV111000
p1419
I2261
sV500
p1420
I2262
sV402
p1421
I485
sVshopping
p1422
I2264
sVincome
p1423
I1251
sVelvis
p1424
I1097
sVcausatives
p1425
I2266
sVstudentship
p1426
I1063
sVinternships
p1427
I1442
sVissue
p1428
I124
sVclassicalphilology
p1429
I2268
sVoptimality
p1430
I422
sVcascadilla
p1431
I2269
sVinstant
p1432
I1098
sVhardcore
p1433
I717
sVscobbie
p1434
I2270
sVrealities
p1435
I1099
sVthose
p1436
I2271
sV^
I718
sVsound
p1437
I496
sVthese
p1438
I1100
sVconsultant
p1439
I2272
sVcash
p1440
I791
sVrhymes
p1441
I2273
sVn't
p1442
I312
sV1107
p1443
I2274
sV1100
p1444
I1102
sVmany
p1445
I2276
sVsituation
p1446
I2277
sVconstituency
p1447
I1103
sV408
p1448
I720
sV1459
p1449
I2278
sV1108
p1450
I2279
sVpolgardi
p1451
I2280
sVdatabases
p1452
I993
sVconferences
p1453
I1104
sVmandeville
p1454
I2281
sVtelephone
p1455
I2282
sVsleeping
p1456
I2283
sVials
p1457
I2284
sVbias
p1458
I2285
sVlasso-27
p1459
I2286
sVbeaver
p1460
I2287
sVtechnology
p1461
I200
sVwordnet
p1462
I2288
sVsummerschool
p1463
I2289
sVbinary
p1464
I1105
sVdifferent
p1465
I2290
sV381
p1466
I1106
sVpullum
p1467
I2291
sVauthor
p1468
I1705
sVmedia
p1469
I721
sVdeseret
p1470
I2292
sVsame
p1471
I2293
sVrochebrune
p1472
I722
sVwilhelm
p1473
I2295
sVinquiry
p1474
I878
sVreminder
p1475
I267
sVdocument
p1476
I2296
sVevents
p1477
I2297
sVgenerated
p1478
I1815
sVweek
p1479
I983
sVextended
p1480
I545
sVsingapore
p1481
I1108
sVdrives
p1482
I2299
sVdriven
p1483
I2300
sVpersons
p1484
I2301
sVharris
p1485
I1109
sVvowel
p1486
I723
sV%
I361
sVccall
p1487
I2302
sVsituated
p1488
I2491
sVmohawk
p1489
I2303
sVcoling
p1490
I208
sVmacro
p1491
I2305
sVmelcuk
p1492
I2306
sV32nd
p1493
I2307
sVccs
p1494
I2308
sVeureka
p1495
I2690
sVwithout
p1496
I1110
sVvery
p1497
I423
sVgenie
p1498
I2310
sVlaboratories
p1499
I2311
sV217
p1500
I2726
sVia
p1501
I480
sVnoam
p1502
I2312
sVphoentics
p1503
I2313
sVmo2
p1504
I2314
sVvaluable
p1505
I2315
sVinofficial
p1506
I2316
sVgreetings
p1507
I2317
sVaspect
p1508
I546
sVpolish
p1509
I2318
sVspeed
p1510
I2319
sVpassives
p1511
I2320
sVcn
p1512
I2321
sVannouncement
p1513
I37
sVdoctoral
p1514
I2322
sVfeminist
p1515
I2323
sVthinking
p1516
I2324
sV4
I95
sVsamples
p1517
I724
sVstruck
p1518
I2325
sVross
p1519
I2326
sVstyles
p1520
I2327
sVpredication
p1521
I2328
sVaspects
p1522
I424
sVstudentships
p1523
I2329
sVesslli-99
p1524
I1111
sVesslli-98
p1525
I2330
sVrules
p1526
I313
sVdigital
p1527
I387
sVearly
p1528
I547
sVdepartment
p1529
I2332
sVsumm
p1530
I1112
sVmoo
p1531
I2333
sVlingusitic
p1532
I2856
sVdirectieven
p1533
I2334
sVsymbolism
p1534
I2335
sVusing
p1535
I725
sVaccepted
p1536
I2336
sVparticle
p1537
I2337
sVidentifying
p1538
I2338
sVcollective
p1539
I2339
sVpreference
p1540
I2340
sVserver
p1541
I726
sVt
I314
sVclaw
p1542
I2341
sVdets
p1543
I2342
sVwalloon
p1544
I1115
sVmulder
p1545
I2343
sVverbal
p1546
I548
sVlecturership
p1547
I2344
sVconditional
p1548
I2345
sVcompetition
p1549
I2346
sVchonju
p1550
I2347
sVanglicization
p1551
I1116
sVinvites
p1552
I2309
sV7979
p1553
I2348
sVkings
p1554
I2349
sVadjuncts
p1555
I549
sVcomposers
p1556
I2350
sVouts
p1557
I2351
sVmood
p1558
I727
sVmicro
p1559
I2352
sVsudan
p1560
I2353
sVvariationist
p1561
I2354
sVlegal
p1562
I728
sVsapir-whorf
p1563
I1784
sVcritical
p1564
I2355
sV917
p1565
I2356
sVcompulsion
p1566
I2357
sVaccessing
p1567
I550
sVluuk
p1568
I2358
sVscientific
p1569
I3031
sVpower
p1570
I2360
sVquit
p1571
I2361
sVinternship
p1572
I2362
sVsixth
p1573
I2363
sVsymp
p1574
I2364
sVacoustic
p1575
I2365
sVthailand
p1576
I2366
sVafrikaans
p1577
I2367
sVtesol
p1578
I1117
sV_
I268
sVcomplementation
p1579
I2368
sVon
p1580
I10
sVy2k
p1581
I1118
sVcentral
p1582
I2369
sV841
p1583
I2370
sVof
p1584
I7
sVsri
p1585
I2371
sVchiphon
p1586
I2372
sVacm
p1587
I551
sVacl
p1588
I168
sVacq
p1589
I2373
sVvedder
p1590
I2374
sVstand
p1591
I1874
sVmixed
p1592
I2376
sVov
p1593
I2377
sVskytop
p1594
I2378
sV376
p1595
I1911
sVor
p1596
I126
sVmetaphors
p1597
I2379
sVop
p1598
I2380
sVvi
p1599
I2381
sVporsche
p1600
I2382
sVcommunication
p1601
I362
sVstromswold
p1602
I2383
sVucla
p1603
I360
sVreferences
p1604
I269
sVpragma99
p1605
I952
sVparties
p1606
I2384
sVoperator
p1607
I2385
sVyour
p1608
I48
sVempathetic
p1609
I2387
sVlogics
p1610
I2388
sVforwarded
p1611
I1120
sVher
p1612
I425
sVthere
p1613
I553
sVician
p1614
I2389
sVshanghaihua
p1615
I2390
sVstealth
p1616
I2391
sVitalia
p1617
I2392
sVlow
p1618
I1121
sVbrazilian
p1619
I730
sVpoliteness
p1620
I2393
sVcultures
p1621
I2394
sVysuolvpv
p1622
I2395
sViambic
p1623
I2396
sV9
I441
sVcomplete
p1624
I554
sVspider
p1625
I2397
sVlaine
p1626
I2398
sVlinguistic
p1627
I53
sVelimination
p1628
I2399
sVlectures
p1629
I969
sVtechnologies
p1630
I2400
sVpromote
p1631
I2052
sVwith
p1632
I169
sVhottest
p1633
I2401
sVwholes
p1634
I731
sVfaster
p1635
I2402
sVembedded
p1636
I1123
sVlexicographers
p1637
I2403
sVwholesale
p1638
I732
sVlanguaes
p1639
I2404
sVreduplicative
p1640
I2405
sVinternationale
p1641
I2406
sV501
p1642
I2263
sVcategorial
p1643
I2407
sV396
p1644
I426
sVbaal
p1645
I2408
sV1208
p1646
I2409
sVvideos
p1647
I2410
sVbarthel
p1648
I2411
sVmispased
p1649
I2412
sVpseudo
p1650
I2413
sVaccents
p1651
I1125
sVcitation
p1652
I363
sVdhumbadji
p1653
I2414
sVgeneral
p1654
I218
sVrapide
p1655
I2416
sVas
p1656
I209
sVintro
p1657
I2417
sVat
p1658
I47
sVaw
p1659
I3325
sVay
p1660
I2419
sVmoves
p1661
I2420
sVleroux
p1662
I2422
sVfilm
p1663
I2423
sVbancuri
p1664
I1504
sVagain
p1665
I1126
sVgenres
p1666
I2425
sVheather
p1667
I2426
sVjengl
p1668
I2427
sVdeserve
p1669
I2428
sVstorage
p1670
I733
sVgraduate
p1671
I734
sVigg
p1672
I2429
sVfield
p1673
I1127
sV1113
p1674
I2430
sV5
I44
sVtmi95
p1675
I2431
sVspatial
p1676
I1128
sV1119
p1677
I2432
sVannouncements
p1678
I1129
sVyou
p1679
I41
sV1448
p1680
I2433
sVopacity
p1681
I1130
sVrequested
p1682
I427
sVdiscours
p1683
I3390
sVcongress
p1684
I270
sVstudents
p1685
I555
sVlexicographer
p1686
I1131
sVtime
p1687
I193
sVslant
p1688
I2437
sVimportant
p1689
I1132
sVfresh
p1690
I2438
sVqueensland
p1691
I1133
sVcongreso
p1692
I2439
sVstocks
p1693
I2440
sVflexible
p1694
I1735
sVslang
p1695
I2441
sVbuilding
p1696
I2442
sVthematic
p1697
I1134
sVremote
p1698
I2443
sVpre-final
p1699
I2444
sVcalls
p1700
I556
sVhaving
p1701
I2445
sVicsnl
p1702
I3445
sVbehavioral
p1703
I2447
sVdirectory
p1704
I2448
sVcontext-99
p1705
I2449
sVresolution
p1706
I364
sVoriginal
p1707
I2450
sVlangues
p1708
I558
sVgalicismos
p1709
I2452
sVall
p1710
I735
sVsemantic
p1711
I2453
sVforget
p1712
I2454
sVchinese
p1713
I122
sVenterprizes
p1714
I2455
sVlacl
p1715
I736
sVseals
p1716
I2456
sVdisc
p1717
I56
sVdeadline
p1718
I127
sVlgs
p1719
I1338
sValt
p1720
I1135
sVdeixis
p1721
I1136
sVchildren
p1722
I2458
sVschwenter
p1723
I1443
sVequipment
p1724
I1137
sVausterlitz
p1725
I2459
sVdescrambler
p1726
I737
sVtx
p1727
I2460
sVre
p1728
I8
sVtv
p1729
I559
sV60852
p1730
I2461
sVts
p1731
I2462
sVopportunities
p1732
I2463
sVpreprint
p1733
I2464
sVto
p1734
I32
sVhwaet
p1735
I2465
sVprogram
p1736
I60
sVwml
p1737
I2466
sVadapted
p1738
I1722
sVilsl
p1739
I2467
sVta
p1740
I1138
sVweeks
p1741
I2468
sVactivities
p1742
I2469
sVkhmer
p1743
I1139
sVesther
p1744
I2470
sVpremium
p1745
I2471
sVjensen
p1746
I2472
sVconfidential
p1747
I2473
sVvoicing
p1748
I2474
sVtranslations
p1749
I2475
sVfat
p1750
I2476
sVfocus
p1751
I1140
sVverb
p1752
I738
sVinterpreting
p1753
I1141
sVfall
p1754
I560
sV24th
p1755
I2478
sVbubbler
p1756
I2479
sV`
I561
sVpre
p1757
I2480
sVlinguists
p1758
I128
sVcable
p1759
I739
sVlisp
p1760
I1142
sVvenezuela
p1761
I1663
sVlist
p1762
I109
sVphonology
p1763
I50
sVautoantonyms
p1764
I2482
sVsmall
p1765
I1143
sVstudy
p1766
I1144
sVprogramme
p1767
I201
sVtei
p1768
I1145
sV199
p1769
I1146
sVickl
p1770
I2483
sVtea
p1771
I1606
sVgrasshopper
p1772
I1147
sV191
p1773
I2485
sV192
p1774
I2486
sVtex
p1775
I2487
sVrate
p1776
I562
sVoptionality
p1777
I917
sVdesign
p1778
I1148
sVperspective
p1779
I2488
sVpass
p1780
I1149
sVausschreibung
p1781
I1150
sVter
p1782
I2490
sVlacl98
p1783
I2446
sVdissertation
p1784
I1151
sVwhat
p1785
I235
sVsuo
p1786
I2492
sVdisintegration
p1787
I2493
sVsum
p1788
I23
sVassociate
p1789
I2494
sVlearner
p1790
I2495
sV165505
p1791
I2496
sVversion
p1792
I740
sVnonreferential
p1793
I1153
sVsur
p1794
I1154
sVcase-marked
p1795
I2497
sVpublic
p1796
I1152
sVmovement
p1797
I741
sVasiatic
p1798
I1155
sVpolicies
p1799
I2500
sVtags
p1800
I2501
sVma
p1801
I2502
sVempower
p1802
I2503
sV1101
p1803
I2504
sVanswers
p1804
I2505
sVleeds
p1805
I2506
sVandrews
p1806
I2507
sVberkeley
p1807
I2508
sVlegend
p1808
I2509
sVpublisher
p1809
I1156
sVsearch
p1810
I563
sVbible
p1811
I2510
sVmeulen
p1812
I2511
sVfwd
p1813
I210
sVvietnamese
p1814
I1157
sVexperience
p1815
I2512
sVe-texts
p1816
I742
sVadjectives
p1817
I365
sVatelier
p1818
I2513
sVbreakdown
p1819
I2514
sVcssp97
p1820
I2515
sVperso
p1821
I2516
sVsocial
p1822
I564
sVaction
p1823
I2517
sVluck
p1824
I2518
sVarmey
p1825
I315
sVfamily
p1826
I429
sVphonemicity
p1827
I1158
sVvii
p1828
I743
sVafrica
p1829
I1159
sVcosmetic
p1830
I2519
sVling
p1831
I89
sVtexts
p1832
I140
sVvip
p1833
I2520
sVarbeitstagung
p1834
I2521
sVnyankore
p1835
I2522
sVvd
p1836
I2523
sVmistress
p1837
I2524
sVintensive
p1838
I565
sVeye
p1839
I2525
sVtwd
p1840
I2526
sVarcling
p1841
I2527
sVtwo
p1842
I366
sVdemo
p1843
I2451
sVamta-98
p1844
I1160
sVgoettingen
p1845
I2528
sVmore
p1846
I170
sVteen
p1847
I1161
sVisrael
p1848
I744
sVscotia
p1849
I2529
sVinfoseek
p1850
I2530
sVimmersion
p1851
I2531
sVcompany
p1852
I2532
sVcorrected
p1853
I745
sVtelri
p1854
I1658
sVsite
p1855
I141
sVvp
p1856
I2533
sVworldwide
p1857
I2534
sVscience
p1858
I129
sVder
p1859
I2535
sVdes
p1860
I2536
sVsyntaxis
p1861
I1162
sVdev
p1862
I2537
sVsent
p1863
I2538
sVden
p1864
I2539
sVlearn
p1865
I1085
sVstrategies
p1866
I2540
sVdec
p1867
I2541
sVspontaneous
p1868
I746
sVmalc
p1869
I2542
sVpick
p1870
I1660
sVprehistory
p1871
I1022
sVshare
p1872
I2543
sVaccept
p1873
I1986
sVautumn
p1874
I519
sVicgi-98
p1875
I1165
sVjornadas
p1876
I1166
sVaffricates
p1877
I747
sVnumbers
p1878
I1167
sVsense
p1879
I367
sVphrase
p1880
I748
sVspecies
p1881
I566
sVbiography
p1882
I2544
sV!
I4
sVinformation
p1883
I65
sVneeds
p1884
I2545
sV1053
p1885
I2546
sVprocessors
p1886
I2547
sV1059
p1887
I2548
sVacts
p1888
I2549
sVnwav
p1889
I2550
sVmaps
p1890
I2551
sVearnings
p1891
I2552
sVlancker
p1892
I2553
sVtanlps
p1893
I1168
sVweisgerber
p1894
I2554
sV410-4332
p1895
I2555
sVft
p1896
I2556
sVfu
p1897
I2090
sVobituary
p1898
I1343
sVadvice
p1899
I2558
sVderived
p1900
I2559
sVlong
p1901
I2117
sV1276
p1902
I2560
sVcatalog
p1903
I2561
sVassemblers
p1904
I2562
sVfi
p1905
I2564
sVqueries
p1906
I357
sVlanka
p1907
I2565
sVfm
p1908
I207
sVa
I27
sVfeminine-he
p1909
I2566
sVrandomised
p1910
I2567
sVregister
p1911
I1169
sVovernight
p1912
I2568
sVdragon
p1913
I2569
sV1470
p1914
I1170
sVfundamental
p1915
I2570
sVpay
p1916
I1171
sVxxx
p1917
I237
sVdream
p1918
I2571
sVretrieval
p1919
I316
sV1304
p1920
I2572
sV1305
p1921
I2573
sVhelp
p1922
I211
sV77273
p1923
I2574
sVseptember
p1924
I2575
sVtaxonomy
p1925
I2576
sVhypertext
p1926
I2577
sVsemiotic
p1927
I756
sVattitude
p1928
I2578
sVpaper
p1929
I567
sVscott
p1930
I2210
sVsigns
p1931
I1172
sVurdu
p1932
I1173
sVmilwaukee
p1933
I2579
sVwayana
p1934
I2580
sVits
p1935
I1174
sVdeveloper
p1936
I2581
sV50000
p1937
I2582
sV26
p1938
I2583
sV27
p1939
I430
sV20
p1940
I1175
sV21
p1941
I2584
sVarian
p1942
I2585
sV23
p1943
I2586
sVonsets
p1944
I2587
sVcalsvxtn
p1945
I2588
sV28
p1946
I2589
sV29
p1947
I568
sVchangement
p1948
I2590
sVfilip
p1949
I2591
sVthinning
p1950
I3079
sVargentino
p1951
I2592
sVsystems
p1952
I116
sVpenn
p1953
I751
sVdocdes98
p1954
I2593
sV1f81
p1955
I2595
sVgood
p1956
I2596
sVreturn
p1957
I1176
sVseeking
p1958
I752
sV12828
p1959
I2597
sVaphasia
p1960
I2598
sVparty
p1961
I2599
sVoxford
p1962
I431
sVlifeplan
p1963
I2600
sVyu
p1964
I2601
sVassociation
p1965
I142
sVmoncton
p1966
I2602
sVdecimal
p1967
I753
sVphilology
p1968
I754
sVcourses
p1969
I570
sVcute
p1970
I2603
sVpositions
p1971
I571
sVcgsw10
p1972
I2604
sVshocking
p1973
I2605
sVcahiers
p1974
I1178
sVgrounding-representations
p1975
I2606
sVheavy
p1976
I2607
sVreactions
p1977
I1179
sVmental
p1978
I432
sVweight
p1979
I2608
sVgeneration
p1980
I755
sVproposals
p1981
I238
sVhard
p1982
I1180
sVidea
p1983
I2609
sVcancels
p1984
I2610
sVmeasurement
p1985
I2611
sVbeyond
p1986
I1181
sVwkshp
p1987
I2612
sVevent
p1988
I2613
sVreally
p1989
I2614
sVernie
p1990
I2615
sVp
I2616
sVhilp
p1991
I2617
sVrobert
p1992
I2618
sViulc
p1993
I2619
sVresearch
p1994
I88
sVparticipants
p1995
I2620
sVhealth
p1996
I1182
sV7
I239
sVlexicography
p1997
I1183
sVprint
p1998
I2621
sVcompounding
p1999
I2622
sVevaluation
p2000
I368
sVaborigen
p2001
I2623
sVwisconsin
p2002
I2624
sVbelief
p2003
I2625
sVdirt
p2004
I1966
sVdressler
p2005
I2626
sV104554
p2006
I2499
sV0100
p2007
I2628
sVadvertsing
p2008
I2629
sVbase
p2009
I2630
sVgiveaway
p2010
I2631
sVput
p2011
I3164
sVteach
p2012
I757
sVautomation
p2013
I2633
sVbeginning
p2014
I2634
sVasl
p2015
I1184
sVdirector
p2016
I2635
sVfeb
p2017
I2636
sVbenefits
p2018
I2637
sVeventuality
p2019
I2638
sVbulletproof
p2020
I2639
sVjust
p2021
I143
sVfinland
p2022
I2640
sVtocharian
p2023
I2641
sVlingual
p2024
I2642
sVamericas
p2025
I2643
sVamerican
p2026
I130
sVcomputerm
p2027
I758
sVw
I2644
sVshibilant
p2028
I2645
sVshareware
p2029
I2646
sVmajor
p2030
I759
sVadvertisement
p2031
I1320
sVgirls
p2032
I1185
sVcelex
p2033
I2649
sVmisc
p2034
I760
sVnumber
p2035
I1186
sVfancy
p2036
I1187
sVtimroth
p2037
I2650
sVdong
p2038
I1861
sV600
p2039
I433
sVest-ce
p2040
I2651
sVmiss
p2041
I2652
sVinvariance
p2042
I2653
sVguess
p2043
I2654
sVheads
p2044
I2655
sVtok
p2045
I762
sVintroduction
p2046
I2656
sV5th
p2047
I434
sVnomo
p2048
I2657
sVobligatory
p2049
I1188
sVtwente
p2050
I1189
sV185
p2051
I763
sVrates
p2052
I2658
sV189
p2053
I2659
sVtoo
p2054
I2660
sVselling
p2055
I435
sVoption
p2056
I2662
sVpara
p2057
I2663
sVsynthetic
p2058
I271
sVchao
p2059
I2267
sVhotel
p2060
I2664
sVceltic
p2061
I572
sVpart
p2062
I317
sVnotification
p2063
I2665
sVnorms
p2064
I2666
sVprodigious
p2065
I2667
sVtranslation
p2066
I96
sVgrace
p2067
I2668
sVexplodes
p2068
I2669
sVcenter
p2069
I2670
sVking
p2070
I2671
sVkind
p2071
I2672
sVb
I1191
sVaaa
p2072
I2673
sVhomophones
p2073
I2674
sViranian
p2074
I2675
sVdouble
p2075
I573
sVinstruction
p2076
I2676
sVdans
p2077
I2677
sVvocal
p2078
I2678
sVscandinavian
p2079
I764
sVyouth
p2080
I2679
sVaiml
p2081
I765
sVstates
p2082
I1164
sVpamela
p2083
I2680
sVmarriage
p2084
I2681
sVmetathesis
p2085
I1192
sViceis
p2086
I2682
sVepicenes
p2087
I2683
sVtongues
p2088
I2684
sV882
p2089
I1193
sVinsertion
p2090
I1194
sVstorytelling
p2091
I2685
sVmicrosynergy
p2092
I2686
sVstrengthen
p2093
I1495
sVromatzyh
p2094
I2687
sVphilippine
p2095
I1196
sVaffirmative
p2096
I2688
sVgala
p2097
I766
sVsentences
p2098
I1197
sVgwoyeu
p2099
I2689
sVconstructions
p2100
I1198
sVrelationship
p2101
I2691
sVtrip
p2102
I1199
sVexposedwhat
p2103
I2693
sVlit
p2104
I1200
sVsteal
p2105
I1201
sVefl
p2106
I767
sVbuild
p2107
I2694
sVanalogy
p2108
I574
sVorton
p2109
I2695
sVfinding
p2110
I2696
sV775
p2111
I2697
sV774
p2112
I2698
sVtowards
p2113
I2699
sVelectric
p2114
I2700
sVcarolina
p2115
I2191
sVmultilingual
p2116
I768
sVquota
p2117
I2702
sV7100
p2118
I2703
sVmost
p2119
I2704
sVvirus
p2120
I2705
sVassoc
p2121
I1202
sVplan
p2122
I2706
sVwatt
p2123
I2707
sVseasons
p2124
I2708
sVkay
p2125
I2709
sVprobabilistic
p2126
I2710
sVapproved
p2127
I2711
sV1043
p2128
I2712
sVwaengler
p2129
I2713
sV1047
p2130
I2714
sV1044
p2131
I2715
sVwindows
p2132
I2716
sV1049
p2133
I2717
sVkr
p2134
I2718
sVzhou1
p2135
I2719
sVoptical
p2136
I1203
sVdata-sources
p2137
I1204
sVclean
p2138
I2720
sVapres
p2139
I2721
sVphysics
p2140
I2722
sVmicrosoft
p2141
I1205
sVchairwoman
p2142
I2723
sVthomas
p2143
I2724
sVgold
p2144
I2725
sVgates
p2145
I1560
sV25-27
p2146
I2727
sV664
p2147
I2728
sVaccommodations
p2148
I2729
sV1265
p2149
I2730
sVsession
p2150
I769
sValert
p2151
I770
sVacceptability
p2152
I2731
sVcarefully
p2153
I2732
sVjireem
p2154
I2733
sVfont
p2155
I1206
sVfind
p2156
I771
sVuniversitaet
p2157
I2734
sVimpact
p2158
I2735
sV524
p2159
I2736
sViaupe
p2160
I2737
sVnorthern
p2161
I2738
sVjustice
p2162
I2739
sVkroch
p2163
I2740
sVcolloq
p2164
I2741
sVviagra
p2165
I2742
sVquer
p2166
I2743
sV1468
p2167
I2744
sVmoney
p2168
I240
sV8
I57
sVcircle
p2169
I2745
sViee
p2170
I2746
sV1462
p2171
I575
sVhis
p2172
I436
sVdependent
p2173
I2747
sVecdl98
p2174
I1209
sVbanned
p2175
I2748
sVon-glides
p2176
I1955
sVinformants
p2177
I1210
sVfamous
p2178
I2749
sVecai-98
p2179
I369
sVlexicogrammar
p2180
I2001
sVadcs
p2181
I2751
sVshared
p2182
I2304
sVduring
p2183
I2752
sVhil
p2184
I1211
sVtypos
p2185
I2753
sVprogressive
p2186
I773
sVmetaling
p2187
I2754
sViccs-95
p2188
I2755
sVmillenium
p2189
I2756
sVinvestigate
p2190
I1212
sVwhitening
p2191
I2757
sVcommon
p2192
I1213
sVrecommendations
p2193
I2758
sVx
I2759
sVrestaurants
p2194
I2760
sVset
p2195
I2761
sVn-ary
p2196
I2762
sVintelligence
p2197
I774
sVunpublished
p2198
I2484
sVbiannual
p2199
I775
sVsex
p2200
I101
sVtip
p2201
I2386
sVgeoff
p2202
I2764
sVsed
p2203
I2765
sVsec
p2204
I2766
sVare
p2205
I81
sVsea
p2206
I2767
sVthayer
p2207
I2768
sVsem
p2208
I2769
sVnations
p2209
I2770
sVcssi
p2210
I2771
sVanalog
p2211
I2772
sVbarn
p2212
I1214
sVseminars
p2213
I2773
sV#
I182
sVgoldmine
p2214
I2774
sVexpert
p2215
I2775
sVguinea
p2216
I1215
sVwow
p2217
I1216
sVplease
p2218
I273
sVhollander
p2219
I2776
sVwor
p2220
I2777
sVlibraries
p2221
I1217
sVcase
p2222
I311
sVverbs
p2223
I776
sVvarious
p2224
I2779
sVenvelopes
p2225
I2780
sVanaphor
p2226
I2781
sV15th
p2227
I2782
sVconsonants
p2228
I3263
sVadv
p2229
I274
sVkorea
p2230
I665
sVcatalogs
p2231
I2783
sViron
p2232
I1720
sVweb
p2233
I144
sVcimca
p2234
I2784
sVattention
p2235
I1218
sVfirth
p2236
I2785
sVinterface
p2237
I437
sVbibliography
p2238
I389
sVcityu
p2239
I2786
sVboth
p2240
I2787
sVc
I370
sVlast
p2241
I276
sVdesparately
p2242
I2788
sVmega
p2243
I2789
sVsecrets
p2244
I468
sVonlyhottest
p2245
I2791
sVannual
p2246
I171
sVvilem
p2247
I2793
sVpdp
p2248
I2794
sVorthographies
p2249
I2049
sVanthropoid
p2250
I2795
sVcontext
p2251
I183
sVafar
p2252
I2796
sVexperimental
p2253
I2797
sVinsurance
p2254
I1208
sVjeff
p2255
I2799
sVtypological
p2256
I779
sVsweet
p2257
I3366
sVloan
p2258
I780
sVdeposit
p2259
I2801
sVwhatever
p2260
I1219
sV404
p2261
I781
sVadjoining
p2262
I3386
sVscottish
p2263
I2802
sVlangs
p2264
I438
sVicehl
p2265
I2803
sVpublishing
p2266
I1851
sVpt
p2267
I2804
sVmonthly
p2268
I2805
sVcreate
p2269
I2806
sVpolitical
p2270
I2807
sVdue
p2271
I2808
sVa-linguist
p2272
I2809
sVfootnote
p2273
I1195
sVsecret
p2274
I783
sVcitations
p2275
I155
sVmaintenance
p2276
I784
sVcollected
p2277
I2810
sVclinical
p2278
I1862
sVph
p2279
I2811
sVmeeting
p2280
I172
sVfhcg98
p2281
I2812
sVsaarbruecken
p2282
I2813
sVdialogue
p2283
I1221
sVkitahara
p2284
I2814
sVadresse
p2285
I3449
sV39
p2286
I1222
sVracer
p2287
I2816
sVopposites
p2288
I117
sVinstructor
p2289
I1223
sVmla
p2290
I578
sVclassifications
p2291
I2817
sVlook
p2292
I2818
sVjudicial
p2293
I2819
sVcorpora
p2294
I241
sVmlm
p2295
I785
sVbiographies
p2296
I2820
sVwhile
p2297
I2821
sVdominio
p2298
I2822
sVformats
p2299
I2823
sVmitchell
p2300
I2824
sVdesigning
p2301
I2825
sVprolog
p2302
I2826
sVnasalisation
p2303
I2827
sVcasino
p2304
I2828
sVportugal
p2305
I2829
sVvol
p2306
I86
sVvon
p2307
I2830
sVbinding
p2308
I786
sVcontex
p2309
I2831
sVexpressions
p2310
I622
sVimperialism
p2311
I318
sVsharkey
p2312
I2832
sVfinalists
p2313
I2833
sVrid
p2314
I2834
sVcampidanian
p2315
I2835
sVdomani
p2316
I3456
sVtenses
p2317
I2836
sVopen
p2318
I319
sVgrant
p2319
I2837
sVtolkienian
p2320
I2838
sVgovernment
p2321
I2839
sVsardinian
p2322
I2840
sV870
p2323
I2841
sVread
p2324
I440
sVdiscourse
p2325
I82
sVcontents
p2326
I1225
sVdeletion
p2327
I2842
sVwasteland
p2328
I3006
sVestes
p2329
I2843
sVconflict
p2330
I2844
sVdevelopment
p2331
I442
sVrepetitions
p2332
I2331
sVtemporary
p2333
I1226
sVself-opposites
p2334
I2845
sVassignment
p2335
I2846
sVproper
p2336
I3395
sVsolicited
p2337
I2847
sV000
p2338
I371
sVuses
p2339
I2848
sVuser
p2340
I2849
sVlouis
p2341
I2850
sVrecent
p2342
I443
sVusc
p2343
I2046
sVdecsrambler
p2344
I2851
sVdatabase
p2345
I787
sVals-98
p2346
I2852
sVschindler
p2347
I2853
sVanalysis
p2348
I145
sVpicks
p2349
I2854
sVnordic
p2350
I2855
sVmon
p2351
I1113
sVldc
p2352
I1227
sVjudgments
p2353
I788
sVcliticization
p2354
I2857
sVturkic
p2355
I2858
sVquestions
p2356
I789
sVworld
p2357
I320
sVad
p2358
I444
sVinference
p2359
I1228
sVtaiwan
p2360
I2859
sVafro
p2361
I1229
sVprince
p2362
I1700
sVletting
p2363
I1230
sVtables
p2364
I2861
sVicelandic
p2365
I2862
sV$
I55
sV1078
p2366
I2863
sV1079
p2367
I655
sVworkers
p2368
I2865
sVguaranteed
p2369
I790
sV1070
p2370
I2866
sV1071
p2371
I2867
sVsignals
p2372
I2868
sVprepositions
p2373
I1231
sVhomeland
p2374
I2869
sVrelevance
p2375
I792
sVcuk
p2376
I1232
sVheidelberg
p2377
I2870
sVchess
p2378
I1233
sV1094
p2379
I2871
sVindonesian
p2380
I793
sVaustralia
p2381
I939
sVmarch
p2382
I2873
sVbig
p2383
I2874
sVfieldwork
p2384
I2875
sV1098
p2385
I2876
sVcatalan
p2386
I2877
sVgame
p2387
I2878
sValias
p2388
I2879
sVclitic
p2389
I1234
sVculturally
p2390
I2880
sVagfl
p2391
I2881
sVbit
p2392
I2882
sVformal
p2393
I445
sVcognitive
p2394
I78
sVsemi
p2395
I2883
sVfollows
p2396
I2884
sVmessage
p2397
I1236
sVpounds
p2398
I2885
sVignore
p2399
I2886
sVmultilingua
p2400
I2887
sVhistory
p2401
I115
sVtranslators
p2402
I1237
sVcontinua
p2403
I2889
sV1414
p2404
I1238
sVterminology
p2405
I242
sVunesco
p2406
I2890
sVecology
p2407
I1239
sVmethods
p2408
I372
sVspring
p2409
I794
sVsome
p2410
I795
sVphone
p2411
I579
sVaisb-95
p2412
I2891
sVamharic
p2413
I2892
sVurgent
p2414
I580
sVijb
p2415
I2893
sVdefinites
p2416
I2894
sVnewsletter
p2417
I796
sVhaagen
p2418
I2895
sVpet
p2419
I2896
sVfile
p2420
I2897
sVintegration
p2421
I1240
sVper
p2422
I1241
sVplanck
p2423
I2898
sVedition
p2424
I1327
sVreligion
p2425
I2899
sV1254
p2426
I2900
sVearlybird
p2427
I2901
sV1250
p2428
I1242
sV1251
p2429
I2902
sVellipsis
p2430
I797
sVbedoel
p2431
I2903
sVneurosciences
p2432
I2904
sV300
p2433
I2905
sVprocessing
p2434
I156
sVagreement
p2435
I2906
sVdeliverables
p2436
I2907
sVnels-29
p2437
I2908
sVusd
p2438
I2909
sVvol-5
p2439
I2910
sVsanta
p2440
I2911
sVbecome
p2441
I2912
sVfrom
p2442
I62
sVtaboo
p2443
I2913
sVby
p2444
I243
sVanything
p2445
I2914
sVconstraint
p2446
I2915
sVbraille
p2447
I2916
sVhoncoop
p2448
I2917
sVsimulation
p2449
I2918
sVmelbourne
p2450
I2919
sVacquistion
p2451
I2920
sVbgs
p2452
I1243
sVlatvian
p2453
I1762
sVsocioling
p2454
I1244
sVzellig
p2455
I1245
sVclassics
p2456
I2921
sVgenre
p2457
I1246
sVsilence
p2458
I2922
sVseeing
p2459
I1247
sVcomputational
p2460
I63
sVreal
p2461
I1248
sVal
p2462
I2923
sVintl
p2463
I278
sVwithin
p2464
I2924
sVnsf
p2465
I2925
sVservers
p2466
I2926
sVservices
p2467
I2927
sVbecause
p2468
I2928
sVadverbs
p2469
I2929
sVframes
p2470
I2931
sVeskimo
p2471
I322
sVphonological
p2472
I1249
sVpre-conference
p2473
I2932
sVquestion
p2474
I373
sVtextual
p2475
I2933
sVsyllabus
p2476
I799
sVcamera
p2477
I2934
sVfasl
p2478
I800
sVdissertations
p2479
I801
sV:
I0
sVvienna
p2480
I2935
sVfax
p2481
I1494
sVanywhere
p2482
I2936
sVsearching
p2483
I2937
sVlink
p2484
I2489
sVpacific
p2485
I447
sV22043
p2486
I2939
sVrussian
p2487
I535
sVline
p2488
I374
sVraising
p2489
I448
sVsingular-they
p2490
I2940
sVinfo
p2491
I157
sVrefinancing
p2492
I2941
sVneurolinguistics
p2493
I802
sVstumbling
p2494
I2942
sVlinguistique
p2495
I449
sVup
p2496
I213
sVus
p2497
I323
sVinternational
p2498
I71
sVtoday
p2499
I2943
sVuk
p2500
I375
sVua
p2501
I2944
sVclear
p2502
I2945
sVpsoriasis
p2503
I2946
sVv
I236
sVconstant
p2504
I2947
sVcurs
p2505
I2948
sVm
I279
sVparser
p2506
I1250
sVinfluence
p2507
I2949
sViccip
p2508
I2950
sVdoesn
p2509
I2951
sVquantification
p2510
I2952
sVsingle
p2511
I1101
sVwarning
p2512
I2275
sVlexemes
p2513
I2954
sVhuron
p2514
I2955
sVyearbook
p2515
I2956
sV959
p2516
I2957
sVsymposia
p2517
I3068
sVcodes
p2518
I2958
sVparadox
p2519
I2959
sVgranada
p2520
I2960
sVhumanities
p2521
I324
sVpart-time
p2522
I2961
sVsunshine
p2523
I2962
sVgry
p2524
I2963
sVnat
p2525
I2964
sVneurophysiology
p2526
I1980
sVpronouns
p2527
I2965
sVreflections
p2528
I2966
sVtitles
p2529
I428
sVusers
p2530
I2967
sVcreditline
p2531
I2968
sVkansas
p2532
I2969
sVproblems
p2533
I2970
sVsamla
p2534
I2971
sVnaccl-11
p2535
I2972
sVassimilation
p2536
I1983
sVmeaning
p2537
I582
sV859
p2538
I1253
sVreservation
p2539
I2973
sVbibliographies
p2540
I2974
sVtislr
p2541
I2975
sVdesert
p2542
I2976
sVstructure
p2543
I450
sVisfc95
p2544
I2977
sVlang
p2545
I105
sVsoundex
p2546
I2978
sVe
I131
sVconsumer
p2547
I2294
sVhokan
p2548
I2980
sVrequired
p2549
I2981
sVorbit
p2550
I2982
sVadvertisment
p2551
I2983
sVbulletin
p2552
I2984
sVcomparata
p2553
I3309
sV2000
p2554
I1254
sVsummit
p2555
I803
sVacl-95
p2556
I2985
sVberman
p2557
I2436
sVacl-99
p2558
I2986
sVjoining
p2559
I2987
sVhello
p2560
I325
sVcode
p2561
I583
sVgp
p2562
I2988
sVnynorsk
p2563
I2989
sVenseignement
p2564
I1256
sVhist
p2565
I2223
sVwordperfect
p2566
I2990
sVresults
p2567
I2220
sVnunn
p2568
I2992
sVgroceries
p2569
I2993
sVgang
p2570
I2994
sVedt
p2571
I2995
sVedu
p2572
I1257
sVgo
p2573
I376
sVquery
p2574
I43
sVcontributions
p2575
I1258
sVissues
p2576
I584
sVsinthesizer
p2577
I2996
sVturkish
p2578
I1259
sVhispanistas
p2579
I2997
sVdescription
p2580
I2998
sVbestock
p2581
I2999
sVyoung
p2582
I805
sVsend
p2583
I3000
sVsuits
p2584
I3001
sVlanguages
p2585
I31
sVciting
p2586
I1260
sVmaryland
p2587
I3002
sVthrough
p2588
I750
sVgb
p2589
I3003
sVpostings
p2590
I3004
sVresources
p2591
I146
sVhicss
p2592
I3005
sVlabels
p2593
I1656
sVskinlaser
p2594
I3007
sVacreage
p2595
I3008
sVmelchuk
p2596
I3009
sVishikawa
p2597
I3010
sVcoston
p2598
I3011
sVijcai95
p2599
I3012
sVmixing
p2600
I3013
sVijcai99
p2601
I3014
sVcontinued
p2602
I3015
sVtri
p2603
I3017
sVquote
p2604
I2701
sVliterary
p2605
I806
sVgender
p2606
I451
sVboguraev
p2607
I3018
sVeve
p2608
I807
sVtry
p2609
I3019
sVminimizing
p2610
I3020
sVkit
p2611
I1261
sVcar
p2612
I3021
sVsapir
p2613
I772
sV1086
p2614
I1262
sV1083
p2615
I3022
sV1082
p2616
I3023
sV1080
p2617
I1263
sVsumary
p2618
I2661
sVquaker
p2619
I3025
sV1088
p2620
I3026
sVsumerian
p2621
I3027
sVvideo
p2622
I585
sVicsc
p2623
I3028
sVdownload
p2624
I3029
sVodd
p2625
I3030
sVcfp
p2626
I58
sVuniversities
p2627
I3032
sVturn
p2628
I3206
sVbusiness
p2629
I132
sVbertinetto
p2630
I3033
sVchicago
p2631
I808
sVassisted
p2632
I586
sVmultimedia
p2633
I280
sVijglsa
p2634
I1264
sV732-942
p2635
I3034
sVaccess
p2636
I3035
sVpaying
p2637
I3036
sV19th
p2638
I3037
sVindian
p2639
I587
sVtwlt
p2640
I3038
sVpristine
p2641
I3039
sV;
I245
sV1404
p2642
I1265
sVbody
p2643
I452
sVhypothesis
p2644
I3040
sVlee
p2645
I3041
sVdegree
p2646
I1266
sVjakobson
p2647
I1267
sVjudges
p2648
I3042
sV1333
p2649
I3043
sVsinn
p2650
I3044
sVobjects
p2651
I778
sVlet
p2652
I3045
sVseparation
p2653
I3046
sVprolamat
p2654
I1268
sVgreat
p2655
I246
sVkornfilt
p2656
I3047
sVunsencored
p2657
I3048
sVformalizing
p2658
I3049
sVtechnical
p2659
I810
sV32
p2660
I1269
sV31
p2661
I588
sV30
p2662
I811
sV36
p2663
I377
sV35
p2664
I3050
sV1240
p2665
I3051
sVlrec
p2666
I247
sVproducts
p2667
I1177
sVromanization
p2668
I1270
sVresidents
p2669
I3052
sVgene
p2670
I3053
sVmaker
p2671
I3054
sVwinkler
p2672
I3055
sVshenandoah
p2673
I1852
sVaddresses
p2674
I378
sVmontpellier
p2675
I3056
sVwin
p2676
I327
sVjuries
p2677
I3057
sVboolean
p2678
I3059
sVnames
p2679
I248
sV16-17
p2680
I3060
sVtools
p2681
I1271
sVcausal
p2682
I3061
sVape
p2683
I3062
sVuse
p2684
I812
sVjournees
p2685
I813
sVmetaphor
p2686
I446
sVexcursions
p2687
I3063
sVcertificate
p2688
I3064
sV&
I33
sVnext
p2689
I589
sVkpelle
p2690
I1272
sVrocling
p2691
I3065
sVdoubling
p2692
I1273
sVwecol
p2693
I814
sVconfs
p2694
I454
sVmathesius
p2695
I3067
sVportugese
p2696
I2953
sVostertag
p2697
I3069
sVsocitey
p2698
I3070
sVreissued
p2699
I3071
sViia
p2700
I3072
sVlabelled
p2701
I815
sVbaby
p2702
I3073
sViii
p2703
I590
sV1467
p2704
I1274
sVsubscription
p2705
I3074
sVutexas
p2706
I3075
sVtsd98
p2707
I1275
sVanimals
p2708
I3076
sVannouncing
p2709
I3077
sVf
I591
sVthis
p2710
I69
sVchallenge
p2711
I3078
sVcd-rom
p2712
I599
sVpro
p2713
I1163
sV6
I26
sVnon-human
p2714
I1276
sVceliac
p2715
I3080
sVpublications
p2716
I281
sVfreedom
p2717
I816
sVsonghay
p2718
I3081
sVpedagogy
p2719
I3082
sVanthropological
p2720
I214
sVcontrol
p2721
I1277
sVdo
p2722
I173
sVprocess
p2723
I3083
sVclausal
p2724
I3084
sVtax
p2725
I3085
sVpurposes
p2726
I3086
sVpromotional
p2727
I3087
sVhigh
p2728
I592
sVintuitions
p2729
I282
sVtag
p2730
I593
sVcomputaional
p2731
I3088
sVslip
p2732
I379
sVtal
p2733
I3089
sVtai
p2734
I1278
sVnative
p2735
I174
sVgrammaire
p2736
I1279
sVunited
p2737
I817
sVbedeutung
p2738
I3090
sVpoetry
p2739
I3117
sVdelay
p2740
I3092
sVlanguaging
p2741
I818
sVbilingual
p2742
I1207
sVfrontiers
p2743
I3093
sVoulipo
p2744
I3094
sVferdinand
p2745
I3095
sVintelligent
p2746
I1280
sVproven
p2747
I3096
sVstock
p2748
I865
sVprofile
p2749
I3097
sVelvish
p2750
I3098
sVblocks
p2751
I3099
sVseries
p2752
I594
sVwatch
p2753
I3313
sV9113
p2754
I3100
sVphilosophy
p2755
I283
sVcollection
p2756
I1282
sVrays
p2757
I3101
sVinst
p2758
I3102
sVcoling-acl98
p2759
I3103
sVtongue
p2760
I3104
sVengineering
p2761
I581
sV12-14
p2762
I3105
sVambiguous
p2763
I3106
sVot
p2764
I1119
sVgurt
p2765
I1283
sVlight
p2766
I3107
sVlines
p2767
I3108
sV943
p2768
I1284
sVflege
p2769
I3109
sVprovisional
p2770
I3110
sVscoop
p2771
I3111
sVencyclopedia
p2772
I1285
sVnancy
p2773
I3112
sVtenure
p2774
I1286
sValtavista
p2775
I3113
sVamta
p2776
I1287
sVevolutionary
p2777
I2259
sVtropics
p2778
I1288
sVsecol
p2779
I3115
sVvmc
p2780
I3116
sVnegation
p2781
I321
sV133
p2782
I3118
sV132
p2783
I1289
sV131
p2784
I3119
sV130
p2785
I3120
sV137
p2786
I821
sV136
p2787
I3121
sVreferencing
p2788
I1290
sV139
p2789
I1291
sVdeictic
p2790
I3122
sVlg
p2791
I512
sVld
p2792
I822
sVtsm
p2793
I3123
sVcollocations
p2794
I3124
sVla
p2795
I455
sVvoiceless
p2796
I3125
sVtsd
p2797
I3126
sVlabov
p2798
I3127
sVage
p2799
I1292
sVcsdl
p2800
I761
sVlinguistica
p2801
I1293
sVchoose
p2802
I823
sVlp
p2803
I3129
sVmillions
p2804
I456
sV<
I147
sVlx
p2805
I1294
sVacknowledgments
p2806
I2498
sVdag
p2807
I3130
sVanimal
p2808
I819
sVauto
p2809
I3131
sVmaterial
p2810
I1295
sVindexing
p2811
I1296
sVprobus
p2812
I2647
sV300usd
p2813
I3132
sVday
p2814
I824
sVwp
p2815
I3133
sVliteracy
p2816
I825
sVsalford
p2817
I3134
sVworlds
p2818
I3374
sVmasters
p2819
I3135
sVscitech
p2820
I3136
sVuniversity
p2821
I123
sVnfl
p2822
I3137
sVlatvia
p2823
I3138
sVl2
p2824
I457
sVfsmnlp
p2825
I826
sVl1
p2826
I3139
sVphonetic
p2827
I1297
sVevolvable
p2828
I2792
sVuil-ots
p2829
I3140
sVtypewriter
p2830
I1281
sV4488
p2831
I3142
sV|
I3143
sVinterlinguas
p2832
I827
sVlfg
p2833
I3144
sVedinburgh
p2834
I828
sVsociety
p2835
I148
sVbooks
p2836
I38
sVour
p2837
I328
sVadlu
p2838
I3145
sVpatch
p2839
I3146
sVspecial
p2840
I110
sVout
p2841
I215
sV'
I19
sVcapital
p2842
I212
sVsigphon98
p2843
I829
sVreq
p2844
I1298
sVmediated
p2845
I830
sVoriental
p2846
I3148
sVnarrative
p2847
I1255
sVsignstream
p2848
I1299
sVbangani
p2849
I3149
sVref
p2850
I1964
sVred
p2851
I871
sVstandardisation
p2852
I1798
sVharold
p2853
I3153
sVdictionary
p2854
I380
sVinteractions
p2855
I1300
sVdelegates
p2856
I3154
sVbleaching
p2857
I3155
sVtemps
p2858
I3156
sVapproaches
p2859
I381
sVque
p2860
I3157
sVwsh
p2861
I2481
sVfranz
p2862
I3158
sVadl5
p2863
I3159
sVprincess
p2864
I458
sVscary
p2865
I3160
sVinteraction
p2866
I3161
sV1433
p2867
I3162
sVg
I831
sVexplanations
p2868
I3163
sVcould
p2869
I832
sVask
p2870
I2632
sVmembership
p2871
I833
sVkeep
p2872
I1301
sVconversation
p2873
I834
sVlength
p2874
I3165
sVworkbook
p2875
I3166
sVfatigue
p2876
I1302
sVaustin
p2877
I3167
sVsubliminally
p2878
I3168
sVsouth
p2879
I329
sVpraxis
p2880
I3169
sVnon-linguists
p2881
I3170
sVpublier
p2882
I3171
sVreflexive
p2883
I1303
sVcomparatives
p2884
I3172
sVconferrence
p2885
I3173
sVpgm
p2886
I3174
sV1344
p2887
I3175
sVnoun
p2888
I1304
sVhey
p2889
I835
sVcontragram
p2890
I1305
sVimprovements
p2891
I1306
sVrepresentations
p2892
I3176
sVowner
p2893
I3177
sV9875
p2894
I3178
sVsummaries
p2895
I2860
sVpkdd
p2896
I3179
sVgradable
p2897
I3180
sVancient
p2898
I1307
sVbakhtin
p2899
I3181
sVpublication
p2900
I3182
sVpalindromes
p2901
I3183
sVunknown
p2902
I3184
sVaccent
p2903
I1308
sVsystem
p2904
I1309
sVrelations
p2905
I597
sVinsitute
p2906
I3185
sVtheir
p2907
I90
sV1500
p2908
I3186
sVary
p2909
I460
sVracist
p2910
I3187
sVprague
p2911
I2763
sVpolarity
p2912
I3188
sVpostgraduate
p2913
I3189
sVminute
p2914
I3190
sVlists
p2915
I216
sVcredibility
p2916
I3191
sVromanizations
p2917
I3192
sVisb2
p2918
I3193
sVintonation
p2919
I1310
sVjuly
p2920
I3194
sVthematisation
p2921
I3195
sVukjx
p2922
I3196
sVteflin98
p2923
I3197
sVqs
p2924
I107
sVculture
p2925
I576
sVphonesex
p2926
I3198
sVsee
p2927
I382
sVtommy
p2928
I3199
sVmusement
p2929
I3200
sVmultilinguality
p2930
I836
sVsexxx
p2931
I3201
sVabstracts
p2932
I249
sVbet
p2933
I3202
sVdescriptions
p2934
I3203
sVwebmining
p2935
I3204
sVichl
p2936
I3205
sVtonight
p2937
I837
sVmongolian
p2938
I1311
sVhave
p2939
I158
sVneed
p2940
I284
sV389
p2941
I1312
sVserrano
p2942
I1576
sVdemonstration
p2943
I3207
sVdocuments
p2944
I1785
sVhow-to
p2945
I3208
sVlatins
p2946
I3209
sV30740
p2947
I3210
sVuniversite
p2948
I3211
sVanglo
p2949
I3212
sVfor
p2950
I6
sVpolarization
p2951
I3213
sVforbidden
p2952
I1313
sVbest
p2953
I184
sVfetish
p2954
I3214
sVkorean
p2955
I285
sV=
I70
sVmit
p2956
I3215
sVsoas
p2957
I838
sVaccuracy
p2958
I3216
sVlecturer
p2959
I1314
sVmasta
p2960
I1315
sVemnlp
p2961
I3217
sVaxiomatic
p2962
I3219
sV03
p2963
I1691
sVwho
p2964
I185
sVbronislaw
p2965
I3221
sVawk
p2966
I3222
sVpreliminary
p2967
I330
sVe-gift
p2968
I1485
sVcomparison
p2969
I383
sVsegment
p2970
I3224
sVdelivery
p2971
I3225
sVurl
p2972
I461
sVrequest
p2973
I202
sVperceiving
p2974
I1316
sVgesture
p2975
I3226
sV1995
p2976
I167
sVramanzo
p2977
I3227
sVindo
p2978
I598
sV08
p2979
I3228
sVhpsg
p2980
I1317
sVselection
p2981
I1318
sVnostratic
p2982
I3229
sVvoyage
p2983
I2800
sVtolkien
p2984
I3230
sVtext
p2985
I331
sVvacancy
p2986
I3231
sVplanning
p2987
I1319
sVmanchester
p2988
I839
sVsycopahnt
p2989
I3232
sVma-tesol
p2990
I3233
sVpasse
p2991
I3234
sVcalbe
p2992
I3058
sVlowlands
p2993
I3235
sVtaps
p2994
I3236
sVsposs
p2995
I1122
sVbased
p2996
I217
sVknowledge
p2997
I384
sVfuer
p2998
I3238
sVsociolinguistic
p2999
I2778
sV(
I14
sVvaria
p3000
I3239
sVbrighten
p3001
I3240
sVlinguistics
p3002
I11
sVwebpage
p3003
I2265
sVsign-singing
p3004
I3241
sVtape
p3005
I3242
sVawali
p3006
I2798
sVcommunist
p3007
I3243
sVpartially
p3008
I3244
sVmove
p3009
I1322
sVcuba
p3010
I840
sVbeat
p3011
I3245
sVlucky
p3012
I1323
sVmaritime
p3013
I3246
sVcomutational
p3014
I3247
sVjoint
p3015
I3248
sVwords
p3016
I66
sVtiming
p3017
I3066
sV129
p3018
I3250
sVindirecte
p3019
I3251
sVyears
p3020
I3252
sVlitterature
p3021
I3253
sV913-383
p3022
I3254
sVsymbols
p3023
I3255
sVprocesses
p3024
I719
sV1023
p3025
I3256
sVh
I841
sVcalling
p3026
I3257
sV80924609220
p3027
I3258
sVbannock
p3028
I3259
sVshe
p3029
I600
sV96-97
p3030
I3260
sVan
p3031
I244
sVglosses
p3032
I3261
sVgrad
p3033
I3262
sVview
p3034
I1324
sVeurope
p3035
I2434
sVfricative
p3036
I3264
sVfreinds
p3037
I3265
sVnational
p3038
I1325
sVcruise
p3039
I1326
sVbiz
p3040
I3266
sVdialog
p3041
I798
sVcomputer
p3042
I186
sVatlantic
p3043
I2938
sViscll3
p3044
I3267
sVprocedings
p3045
I3268
sVcreating
p3046
I577
sVunlimited
p3047
I601
sVcloses
p3048
I3269
sVhas
p3049
I3270
sV128
p3050
I3249
sVlectureship
p3051
I3271
sVaugias
p3052
I3272
sVworshop
p3053
I3273
sVgrammaticalization
p3054
I602
sVdiscounts
p3055
I2692
sVstate
p3056
I462
sVidentification
p3057
I842
sVclosed
p3058
I3275
sVemail
p3059
I111
sVluo
p3060
I3276
sVkeynote
p3061
I1329
sVability
p3062
I3277
sVopening
p3063
I463
sVstrides
p3064
I3278
sVjob
p3065
I39
sVvijver
p3066
I3279
sVmerry
p3067
I3280
sVamer
p3068
I3281
sVpragmatics
p3069
I83
sVtls
p3070
I843
sVinterpretations
p3071
I3282
sVempathy
p3072
I3283
sVhebrew
p3073
I3284
sVrime
p3074
I3285
sVinvited
p3075
I3286
sVrecorders
p3076
I1331
sVgalore
p3077
I3287
sVetc
p3078
I286
sVuniformitarianism
p3079
I844
sVfigures
p3080
I1332
sVluganda
p3081
I3288
sVsection
p3082
I1333
sVdarker
p3083
I3289
sVarticulatory
p3084
I1334
sVgldv
p3085
I845
sV386
p3086
I3290
sVagents
p3087
I1220
sVcl
p3088
I464
sVcc
p3089
I3291
sVcimql
p3090
I3292
sVmarketplace
p3091
I3293
sVcd
p3092
I287
sVpalc97
p3093
I3294
sVuce
p3094
I3295
sVcx
p3095
I3296
sVmath
p3096
I3151
sVsequences
p3097
I3297
sVtable
p3098
I846
sVundergraduate
p3099
I3298
sVuci
p3100
I847
sVnonfinite
p3101
I3299
sVpoem
p3102
I1335
sVprovinces
p3103
I3300
sVaddition
p3104
I3301
sVcvir
p3105
I3302
sVholidays
p3106
I3303
sVmailin
p3107
I3128
sVdirecte
p3108
I3114
sVai
p3109
I3016
sVgenetic
p3110
I849
sVyan
p3111
I3304
sVhindi
p3112
I3305
sVgent
p3113
I1336
sVproposal
p3114
I1337
sVpolitically
p3115
I1124
sVisolating
p3116
I1190
sV1358
p3117
I3306
sVdiversity
p3118
I3307
sVcommutes
p3119
I3308
sVsales
p3120
I804
sVbulk
p3121
I332
sVpolicy
p3122
I465
sVtense
p3123
I466
sVice
p3124
I2424
sVbull
p3125
I3310
sVsensei
p3126
I2457
sVfellow
p3127
I2415
sVspain
p3128
I3311
sVmulti
p3129
I3312
sVholiday
p3130
I1339
sVlaser
p3131
I2477
sVsurvey
p3132
I453
sVvirtual
p3133
I3355
sVungrammatical
p3134
I3314
sVstructuralist
p3135
I3315
sVappearance
p3136
I3316
sVbritain
p3137
I603
sVwill
p3138
I3317
sVcarnie
p3139
I2790
sVnon-surgical
p3140
I3319
sVantigua
p3141
I3218
sVescol
p3142
I1340
sVrevisited
p3143
I3321
sVinstantly
p3144
I1341
sV~
I385
sVstuffing
p3145
I3322
sVpdt
p3146
I3323
sVepenthesis
p3147
I3324
sVfollow-up
p3148
I2418
sVles
p3149
I809
sVdissent
p3150
I3326
sVrefs
p3151
I3327
sVluso
p3152
I3328
sVnon
p3153
I288
sVvo
p3154
I3329
sVhardware
p3155
I3330
sVdonnellan
p3156
I1342
sVvs
p3157
I467
sVarabic
p3158
I604
sVforeign
p3159
I386
sVwhorf
p3160
I850
sVdescriptive
p3161
I595
sVhappy
p3162
I1031
sViada
p3163
I3331
sVicgl
p3164
I3332
sV)
I13
sVseoul
p3165
I2557
sVcross
p3166
I3333
sVromance
p3167
I203
sVecml
p3168
I3334
sVspeaker
p3169
I219
sVince
p3170
I2594
sVgames
p3171
I1719
sVfinite
p3172
I1344
sVresponses
p3173
I1328
sVplurilinguisme
p3174
I3335
sVhttp
p3175
I851
sVmassaro
p3176
I1345
sVmutual
p3177
I3336
sVsaami
p3178
I3337
sVphd
p3179
I852
sVv2
p3180
I1346
sVstudent
p3181
I251
sVpoznan
p3182
I1347
sVjudgment
p3183
I1348
sVscholars
p3184
I3338
sVidentity
p3185
I1349
sVtucker
p3186
I3339
sVconcordance
p3187
I853
sVoff
p3188
I469
sVeamt
p3189
I3340
sVippe
p3190
I1350
sVneural
p3191
I3341
sVi
I175
sVcom
p3192
I194
sVwell
p3193
I3343
sVpatterns
p3194
I3344
sVutrecht
p3195
I388
sV351
p3196
I3345
sVenglish
p3197
I35
sVposition
p3198
I112
sVacademia
p3199
I3346
sVaudio
p3200
I1351
sVlatest
p3201
I3347
sVneologisms
p3202
I3348
sVstores
p3203
I3349
sVnicknames
p3204
I3350
sVmadam
p3205
I3351
sVwealthy
p3206
I3352
sVbloomfield
p3207
I3353
sVcoling-acl
p3208
I333
sVsources
p3209
I1352
sVinterim
p3210
I3354
sVminimalist
p3211
I596
sVenterprise
p3212
I1353
sVmths
p3213
I3356
sVpaul
p3214
I3357
sVillinois
p3215
I1384
sVcoordination
p3216
I1354
sVclipper
p3217
I3359
sVallgemeine
p3218
I1355
sVboersma
p3219
I3360
sVconsole
p3220
I777
sVads
p3221
I1356
sV399
p3222
I3361
sV1110
p3223
I3362
sVpoint
p3224
I3363
sVsky
p3225
I3364
sVrecommending
p3226
I3365
sVbook
p3227
I34
sVcircular
p3228
I3141
sVusage
p3229
I3367
sV280
p3230
I3368
sVadl
p3231
I3369
sV282
p3232
I3370
sVsber
p3233
I3371
sVgmt
p3234
I3372
sVwont
p3235
I3373
sVrspas
p3236
I854
sVarticles
p3237
I1065
sVchecking
p3238
I3375
sVfyi
p3239
I605
sVutah
p3240
I3376
sVterm
p3241
I3377
sV>
I84
sVfive
p3242
I3378
sVknow
p3243
I289
sVfacial
p3244
I1357
sVpress
p3245
I470
sVimmediately
p3246
I1358
sVpassword
p3247
I3379
sVpier
p3248
I3380
sVloss
p3249
I471
sVlike
p3250
I606
sVlost
p3251
I1359
sVpronominal
p3252
I3381
sVdictionaries
p3253
I3382
sVkaren
p3254
I3383
sVkuala
p3255
I3384
sVjames
p3256
I3385
sVsimply
p3257
I2648
sVworks
p3258
I1360
sVpage
p3259
I220
sVitalian
p3260
I855
sVaccessible
p3261
I1361
sV988
p3262
I3387
sVleuven
p3263
I1362
sVclassical
p3264
I1363
sV980
p3265
I3388
sVlinguistically
p3266
I3389
sVthief
p3267
I3415
sVlibrary
p3268
I3391
sVhair
p3269
I3392
sVconnectives
p3270
I3393
sVrecommendation
p3271
I3394
sVcomputers
p3272
I272
sVhome
p3273
I159
sVintuition
p3274
I3396
sVrecognition
p3275
I607
sVvso
p3276
I3397
sVest
p3277
I1364
sVvocabulary
p3278
I3398
sVcognition
p3279
I856
sVgoedemans
p3280
I3399
sVmacros
p3281
I3274
sVdelaware
p3282
I3400
sVpashto
p3283
I3401
sVmarkers
p3284
I857
sV14th
p3285
I3402
sVe-mail
p3286
I608
sVdoes
p3287
I3403
sVjoin
p3288
I1365
sVmutation
p3289
I1366
sVeconomical
p3290
I3404
sVsweepstakes
p3291
I1367
sVesl
p3292
I858
sVfanny
p3293
I3405
sV?
I24
sVsymoposium
p3294
I1397
sVmedieval
p3295
I859
sVschedule
p3296
I609
sVjournal
p3297
I64
sVhost
p3298
I3406
sVdepts
p3299
I2979
sVyuen
p3300
I1368
sVinstinct
p3301
I3407
sVloans
p3302
I3408
sVpanel
p3303
I3409
sVabout
p3304
I188
sVbills
p3305
I3410
sVextension
p3306
I610
sVgemination
p3307
I1369
sVdependency
p3308
I611
sVaddendum
p3309
I1370
sVconstraints
p3310
I3411
sVtome
p3311
I3412
sVsoftware
p3312
I85
sVown
p3313
I102
sVfinal
p3314
I54
sVwilderness
p3315
I3413
sVquichua
p3316
I3414
sVfunctional
p3317
I221
sVnwlc
p3318
I3320
sVregistration
p3319
I189
sVclosing
p3320
I3416
sVuniversals
p3321
I3417
sVvan
p3322
I1371
sVpc
p3323
I439
sVfriends
p3324
I3418
sV*
I59
sVindoeuropean
p3325
I3419
sV8820
p3326
I3420
sVtalc98
p3327
I3421
sVtroubling
p3328
I3422
sVfunction
p3329
I3423
sVbuy
p3330
I1372
sVnorth
p3331
I1373
sVtina
p3332
I3424
sVrifra
p3333
I2991
sVbut
p3334
I1374
sVvolume
p3335
I860
sVhk
p3336
I3425
sVhi
p3337
I390
sVautomated
p3338
I3426
sVconvergence
p3339
I1375
sVbe
p3340
I861
sVha
p3341
I3427
sVpresuppositions
p3342
I3428
sVhe
p3343
I472
sVmade
p3344
I1376
sVtemp
p3345
I3429
sVj
I334
sVhosting
p3346
I3430
sVdunque
p3347
I3431
sVrecord
p3348
I3432
sV1205
p3349
I848
sVfrequency
p3350
I1377
sVdistribution
p3351
I1378
sVinformational
p3352
I1379
sVwac4
p3353
I3433
sVunfolding
p3354
I3434
sVirish
p3355
I3435
sVbudiman
p3356
I3436
sVint
p3357
I612
sVuniversal
p3358
I1380
sVyear
p3359
I1381
sVpie
p3360
I3437
sVpig
p3361
I613
sVmultimodal
p3362
I614
sVppsn
p3363
I3438
sVind
p3364
I3439
sVeducation
p3365
I615
sVidentities
p3366
I3440
sVinc
p3367
I1382
sVdiego
p3368
I3441
sVfunctions
p3369
I862
sVincredible
p3370
I1383
sV44
p3371
I3442
sVaquariums
p3372
I3443
sV40
p3373
I863
sV41
p3374
I3358
sVold
p3375
I509
sVother
p3376
I616
sVdetails
p3377
I3444
sVmass
p3378
I1857
sVscil
p3379
I617
sVcanada
p3380
I3446
sVjunk
p3381
I3447
sVselim
p3382
I3448
sVtranformational
p3383
I2815
sVjune
p3384
I1385
sVvariation
p3385
I618
sVchance
p3386
I3450
sVmankind
p3387
I3451
sVretroflex
p3388
I3452
sVdialectal
p3389
I3150
sVlinguistisches
p3390
I3453
sVentertainment
p3391
I3147
sVdave
p3392
I3454
sVrule
p3393
I3455
sVstatus
p3394
I2298
sVsyllabi
p3395
I3457
sV4a
p3396
I1386
sVdefend
p3397
I3458
sV8th
p3398
I864
s.